
h743Loader.elf:     file format elf32-littlearm

Sections:
Idx Name          Size      VMA       LMA       File off  Algn
  0 .isr_vector   00000494  24000004  24000004  00010004  2**0
                  CONTENTS, ALLOC, LOAD, READONLY, DATA
  1 .ARM          00000008  24000498  24000498  00010498  2**2
                  CONTENTS, ALLOC, LOAD, READONLY, DATA
  2 .init_array   00000004  240004a0  240004a0  000104a0  2**2
                  CONTENTS, ALLOC, LOAD, DATA
  3 .fini_array   00000004  240004a4  240004a4  000104a4  2**2
                  CONTENTS, ALLOC, LOAD, DATA
  4 .data         0000007c  240004a8  240004a8  000104a8  2**2
                  CONTENTS, ALLOC, LOAD, DATA
  5 .bss          0000008c  24000524  24000524  00010524  2**2
                  ALLOC
  6 .text         0000bb68  240005b0  240005b0  000105b0  2**2
                  CONTENTS, ALLOC, LOAD, READONLY, CODE
  7 .Dev_info     000000c8  2400c118  2400c118  0002c118  2**2
                  CONTENTS, ALLOC, LOAD, READONLY, DATA
  8 .rodata       00000064  2400c1e0  2400c1e0  0001c1e0  2**2
                  CONTENTS, ALLOC, LOAD, READONLY, DATA
  9 ._user_heap_stack 00000a00  2400c244  2400c244  0001c244  2**0
                  ALLOC
 10 .ARM.attributes 0000002e  00000000  00000000  0002c1e0  2**0
                  CONTENTS, READONLY
 11 .comment      00000050  00000000  00000000  0002c20e  2**0
                  CONTENTS, READONLY
 12 .debug_frame  00000094  00000000  00000000  0002c260  2**2
                  CONTENTS, READONLY, DEBUGGING, OCTETS

Disassembly of section .text:

240005b0 <__do_global_dtors_aux>:
240005b0:	b510      	push	{r4, lr}
240005b2:	4c05      	ldr	r4, [pc, #20]	; (240005c8 <__do_global_dtors_aux+0x18>)
240005b4:	7823      	ldrb	r3, [r4, #0]
240005b6:	b933      	cbnz	r3, 240005c6 <__do_global_dtors_aux+0x16>
240005b8:	4b04      	ldr	r3, [pc, #16]	; (240005cc <__do_global_dtors_aux+0x1c>)
240005ba:	b113      	cbz	r3, 240005c2 <__do_global_dtors_aux+0x12>
240005bc:	4804      	ldr	r0, [pc, #16]	; (240005d0 <__do_global_dtors_aux+0x20>)
240005be:	f3af 8000 	nop.w
240005c2:	2301      	movs	r3, #1
240005c4:	7023      	strb	r3, [r4, #0]
240005c6:	bd10      	pop	{r4, pc}
240005c8:	24000524 	.word	0x24000524
240005cc:	00000000 	.word	0x00000000
240005d0:	2400c0fc 	.word	0x2400c0fc

240005d4 <frame_dummy>:
240005d4:	b508      	push	{r3, lr}
240005d6:	4b03      	ldr	r3, [pc, #12]	; (240005e4 <frame_dummy+0x10>)
240005d8:	b11b      	cbz	r3, 240005e2 <frame_dummy+0xe>
240005da:	4903      	ldr	r1, [pc, #12]	; (240005e8 <frame_dummy+0x14>)
240005dc:	4803      	ldr	r0, [pc, #12]	; (240005ec <frame_dummy+0x18>)
240005de:	f3af 8000 	nop.w
240005e2:	bd08      	pop	{r3, pc}
240005e4:	00000000 	.word	0x00000000
240005e8:	24000528 	.word	0x24000528
240005ec:	2400c0fc 	.word	0x2400c0fc

240005f0 <_stack_init>:
240005f0:	f5a3 3a80 	sub.w	sl, r3, #65536	; 0x10000
240005f4:	4770      	bx	lr
240005f6:	bf00      	nop

240005f8 <_mainCRTStartup>:
240005f8:	4b17      	ldr	r3, [pc, #92]	; (24000658 <_mainCRTStartup+0x60>)
240005fa:	2b00      	cmp	r3, #0
240005fc:	bf08      	it	eq
240005fe:	4b13      	ldreq	r3, [pc, #76]	; (2400064c <_mainCRTStartup+0x54>)
24000600:	469d      	mov	sp, r3
24000602:	f7ff fff5 	bl	240005f0 <_stack_init>
24000606:	2100      	movs	r1, #0
24000608:	468b      	mov	fp, r1
2400060a:	460f      	mov	r7, r1
2400060c:	4813      	ldr	r0, [pc, #76]	; (2400065c <_mainCRTStartup+0x64>)
2400060e:	4a14      	ldr	r2, [pc, #80]	; (24000660 <_mainCRTStartup+0x68>)
24000610:	1a12      	subs	r2, r2, r0
24000612:	f00b fd6b 	bl	2400c0ec <memset>
24000616:	4b0e      	ldr	r3, [pc, #56]	; (24000650 <_mainCRTStartup+0x58>)
24000618:	2b00      	cmp	r3, #0
2400061a:	d000      	beq.n	2400061e <_mainCRTStartup+0x26>
2400061c:	4798      	blx	r3
2400061e:	4b0d      	ldr	r3, [pc, #52]	; (24000654 <_mainCRTStartup+0x5c>)
24000620:	2b00      	cmp	r3, #0
24000622:	d000      	beq.n	24000626 <_mainCRTStartup+0x2e>
24000624:	4798      	blx	r3
24000626:	2000      	movs	r0, #0
24000628:	2100      	movs	r1, #0
2400062a:	0004      	movs	r4, r0
2400062c:	000d      	movs	r5, r1
2400062e:	480d      	ldr	r0, [pc, #52]	; (24000664 <_mainCRTStartup+0x6c>)
24000630:	2800      	cmp	r0, #0
24000632:	d002      	beq.n	2400063a <_mainCRTStartup+0x42>
24000634:	480c      	ldr	r0, [pc, #48]	; (24000668 <_mainCRTStartup+0x70>)
24000636:	f3af 8000 	nop.w
2400063a:	f00b fd33 	bl	2400c0a4 <__libc_init_array>
2400063e:	0020      	movs	r0, r4
24000640:	0029      	movs	r1, r5
24000642:	f00b f951 	bl	2400b8e8 <main>
24000646:	f00b fd19 	bl	2400c07c <exit>
2400064a:	bf00      	nop
2400064c:	00080000 	.word	0x00080000
	...
2400065c:	24000524 	.word	0x24000524
24000660:	240005b0 	.word	0x240005b0
	...
2400066c:	240004a8 	.word	0x240004a8
24000670:	240004a8 	.word	0x240004a8
24000674:	24000524 	.word	0x24000524
24000678:	24000524 	.word	0x24000524
2400067c:	240005b0 	.word	0x240005b0
24000680:	4770      	bx	lr

24000682 <HAL_MspDeInit>:
24000682:	4770      	bx	lr

24000684 <HAL_DeInit>:
24000684:	4b16      	ldr	r3, [pc, #88]	; (240006e0 <HAL_DeInit+0x5c>)
24000686:	f06f 4200 	mvn.w	r2, #2147483648	; 0x80000000
2400068a:	b510      	push	{r4, lr}
2400068c:	67da      	str	r2, [r3, #124]	; 0x7c
2400068e:	2400      	movs	r4, #0
24000690:	f04f 32ff 	mov.w	r2, #4294967295
24000694:	67dc      	str	r4, [r3, #124]	; 0x7c
24000696:	f8c3 2080 	str.w	r2, [r3, #128]	; 0x80
2400069a:	f8c3 4080 	str.w	r4, [r3, #128]	; 0x80
2400069e:	f8c3 2084 	str.w	r2, [r3, #132]	; 0x84
240006a2:	f8c3 4084 	str.w	r4, [r3, #132]	; 0x84
240006a6:	f8c3 2088 	str.w	r2, [r3, #136]	; 0x88
240006aa:	f8c3 4088 	str.w	r4, [r3, #136]	; 0x88
240006ae:	f8c3 208c 	str.w	r2, [r3, #140]	; 0x8c
240006b2:	f8c3 408c 	str.w	r4, [r3, #140]	; 0x8c
240006b6:	f8c3 2090 	str.w	r2, [r3, #144]	; 0x90
240006ba:	f8c3 4090 	str.w	r4, [r3, #144]	; 0x90
240006be:	f8c3 2094 	str.w	r2, [r3, #148]	; 0x94
240006c2:	f8c3 4094 	str.w	r4, [r3, #148]	; 0x94
240006c6:	f8c3 2098 	str.w	r2, [r3, #152]	; 0x98
240006ca:	f8c3 4098 	str.w	r4, [r3, #152]	; 0x98
240006ce:	f8c3 209c 	str.w	r2, [r3, #156]	; 0x9c
240006d2:	f8c3 409c 	str.w	r4, [r3, #156]	; 0x9c
240006d6:	f7ff ffd4 	bl	24000682 <HAL_MspDeInit>
240006da:	4620      	mov	r0, r4
240006dc:	bd10      	pop	{r4, pc}
240006de:	bf00      	nop
240006e0:	58024400 	.word	0x58024400

240006e4 <HAL_InitTick>:
240006e4:	b538      	push	{r3, r4, r5, lr}
240006e6:	4b0f      	ldr	r3, [pc, #60]	; (24000724 <HAL_InitTick+0x40>)
240006e8:	4605      	mov	r5, r0
240006ea:	7818      	ldrb	r0, [r3, #0]
240006ec:	b908      	cbnz	r0, 240006f2 <HAL_InitTick+0xe>
240006ee:	2001      	movs	r0, #1
240006f0:	bd38      	pop	{r3, r4, r5, pc}
240006f2:	f44f 737a 	mov.w	r3, #1000	; 0x3e8
240006f6:	4a0c      	ldr	r2, [pc, #48]	; (24000728 <HAL_InitTick+0x44>)
240006f8:	fbb3 f3f0 	udiv	r3, r3, r0
240006fc:	6810      	ldr	r0, [r2, #0]
240006fe:	fbb0 f0f3 	udiv	r0, r0, r3
24000702:	f000 fac3 	bl	24000c8c <HAL_SYSTICK_Config>
24000706:	4604      	mov	r4, r0
24000708:	2800      	cmp	r0, #0
2400070a:	d1f0      	bne.n	240006ee <HAL_InitTick+0xa>
2400070c:	2d0f      	cmp	r5, #15
2400070e:	d8ee      	bhi.n	240006ee <HAL_InitTick+0xa>
24000710:	4602      	mov	r2, r0
24000712:	4629      	mov	r1, r5
24000714:	f04f 30ff 	mov.w	r0, #4294967295
24000718:	f000 fa52 	bl	24000bc0 <HAL_NVIC_SetPriority>
2400071c:	4b03      	ldr	r3, [pc, #12]	; (2400072c <HAL_InitTick+0x48>)
2400071e:	4620      	mov	r0, r4
24000720:	601d      	str	r5, [r3, #0]
24000722:	e7e5      	b.n	240006f0 <HAL_InitTick+0xc>
24000724:	240004ac 	.word	0x240004ac
24000728:	240004b8 	.word	0x240004b8
2400072c:	240004b0 	.word	0x240004b0

24000730 <HAL_Init>:
24000730:	b510      	push	{r4, lr}
24000732:	2003      	movs	r0, #3
24000734:	f000 fa32 	bl	24000b9c <HAL_NVIC_SetPriorityGrouping>
24000738:	f009 f99c 	bl	24009a74 <HAL_RCC_GetSysClockFreq>
2400073c:	490f      	ldr	r1, [pc, #60]	; (2400077c <HAL_Init+0x4c>)
2400073e:	4a10      	ldr	r2, [pc, #64]	; (24000780 <HAL_Init+0x50>)
24000740:	698b      	ldr	r3, [r1, #24]
24000742:	f3c3 2303 	ubfx	r3, r3, #8, #4
24000746:	5cd3      	ldrb	r3, [r2, r3]
24000748:	f003 031f 	and.w	r3, r3, #31
2400074c:	40d8      	lsrs	r0, r3
2400074e:	698b      	ldr	r3, [r1, #24]
24000750:	f003 030f 	and.w	r3, r3, #15
24000754:	5cd3      	ldrb	r3, [r2, r3]
24000756:	4a0b      	ldr	r2, [pc, #44]	; (24000784 <HAL_Init+0x54>)
24000758:	f003 031f 	and.w	r3, r3, #31
2400075c:	fa20 f303 	lsr.w	r3, r0, r3
24000760:	6013      	str	r3, [r2, #0]
24000762:	4b09      	ldr	r3, [pc, #36]	; (24000788 <HAL_Init+0x58>)
24000764:	6018      	str	r0, [r3, #0]
24000766:	2000      	movs	r0, #0
24000768:	f7ff ffbc 	bl	240006e4 <HAL_InitTick>
2400076c:	4604      	mov	r4, r0
2400076e:	b918      	cbnz	r0, 24000778 <HAL_Init+0x48>
24000770:	f00b faee 	bl	2400bd50 <HAL_MspInit>
24000774:	4620      	mov	r0, r4
24000776:	bd10      	pop	{r4, pc}
24000778:	2401      	movs	r4, #1
2400077a:	e7fb      	b.n	24000774 <HAL_Init+0x44>
2400077c:	58024400 	.word	0x58024400
24000780:	2400c230 	.word	0x2400c230
24000784:	240004bc 	.word	0x240004bc
24000788:	240004b8 	.word	0x240004b8

2400078c <HAL_IncTick>:
2400078c:	4a03      	ldr	r2, [pc, #12]	; (2400079c <HAL_IncTick+0x10>)
2400078e:	4b04      	ldr	r3, [pc, #16]	; (240007a0 <HAL_IncTick+0x14>)
24000790:	6811      	ldr	r1, [r2, #0]
24000792:	781b      	ldrb	r3, [r3, #0]
24000794:	440b      	add	r3, r1
24000796:	6013      	str	r3, [r2, #0]
24000798:	4770      	bx	lr
2400079a:	bf00      	nop
2400079c:	24000540 	.word	0x24000540
240007a0:	240004ac 	.word	0x240004ac

240007a4 <HAL_GetTick>:
240007a4:	4b01      	ldr	r3, [pc, #4]	; (240007ac <HAL_GetTick+0x8>)
240007a6:	6818      	ldr	r0, [r3, #0]
240007a8:	4770      	bx	lr
240007aa:	bf00      	nop
240007ac:	24000540 	.word	0x24000540

240007b0 <HAL_GetTickPrio>:
240007b0:	4b01      	ldr	r3, [pc, #4]	; (240007b8 <HAL_GetTickPrio+0x8>)
240007b2:	6818      	ldr	r0, [r3, #0]
240007b4:	4770      	bx	lr
240007b6:	bf00      	nop
240007b8:	240004b0 	.word	0x240004b0

240007bc <HAL_SetTickFreq>:
240007bc:	b538      	push	{r3, r4, r5, lr}
240007be:	4c07      	ldr	r4, [pc, #28]	; (240007dc <HAL_SetTickFreq+0x20>)
240007c0:	7825      	ldrb	r5, [r4, #0]
240007c2:	4285      	cmp	r5, r0
240007c4:	d007      	beq.n	240007d6 <HAL_SetTickFreq+0x1a>
240007c6:	4b06      	ldr	r3, [pc, #24]	; (240007e0 <HAL_SetTickFreq+0x24>)
240007c8:	7020      	strb	r0, [r4, #0]
240007ca:	6818      	ldr	r0, [r3, #0]
240007cc:	f7ff ff8a 	bl	240006e4 <HAL_InitTick>
240007d0:	b100      	cbz	r0, 240007d4 <HAL_SetTickFreq+0x18>
240007d2:	7025      	strb	r5, [r4, #0]
240007d4:	bd38      	pop	{r3, r4, r5, pc}
240007d6:	2000      	movs	r0, #0
240007d8:	e7fc      	b.n	240007d4 <HAL_SetTickFreq+0x18>
240007da:	bf00      	nop
240007dc:	240004ac 	.word	0x240004ac
240007e0:	240004b0 	.word	0x240004b0

240007e4 <HAL_GetTickFreq>:
240007e4:	4b01      	ldr	r3, [pc, #4]	; (240007ec <HAL_GetTickFreq+0x8>)
240007e6:	7818      	ldrb	r0, [r3, #0]
240007e8:	4770      	bx	lr
240007ea:	bf00      	nop
240007ec:	240004ac 	.word	0x240004ac

240007f0 <HAL_Delay>:
240007f0:	b538      	push	{r3, r4, r5, lr}
240007f2:	4604      	mov	r4, r0
240007f4:	f7ff ffd6 	bl	240007a4 <HAL_GetTick>
240007f8:	4605      	mov	r5, r0
240007fa:	1c63      	adds	r3, r4, #1
240007fc:	bf1e      	ittt	ne
240007fe:	4b04      	ldrne	r3, [pc, #16]	; (24000810 <HAL_Delay+0x20>)
24000800:	781b      	ldrbne	r3, [r3, #0]
24000802:	18e4      	addne	r4, r4, r3
24000804:	f7ff ffce 	bl	240007a4 <HAL_GetTick>
24000808:	1b43      	subs	r3, r0, r5
2400080a:	42a3      	cmp	r3, r4
2400080c:	d3fa      	bcc.n	24000804 <HAL_Delay+0x14>
2400080e:	bd38      	pop	{r3, r4, r5, pc}
24000810:	240004ac 	.word	0x240004ac

24000814 <HAL_SuspendTick>:
24000814:	f04f 22e0 	mov.w	r2, #3758153728	; 0xe000e000
24000818:	6913      	ldr	r3, [r2, #16]
2400081a:	f023 0302 	bic.w	r3, r3, #2
2400081e:	6113      	str	r3, [r2, #16]
24000820:	4770      	bx	lr

24000822 <HAL_ResumeTick>:
24000822:	f04f 22e0 	mov.w	r2, #3758153728	; 0xe000e000
24000826:	6913      	ldr	r3, [r2, #16]
24000828:	f043 0302 	orr.w	r3, r3, #2
2400082c:	6113      	str	r3, [r2, #16]
2400082e:	4770      	bx	lr

24000830 <HAL_GetHalVersion>:
24000830:	f04f 7084 	mov.w	r0, #17301504	; 0x1080000
24000834:	4770      	bx	lr
	...

24000838 <HAL_GetREVID>:
24000838:	4b01      	ldr	r3, [pc, #4]	; (24000840 <HAL_GetREVID+0x8>)
2400083a:	6818      	ldr	r0, [r3, #0]
2400083c:	0c00      	lsrs	r0, r0, #16
2400083e:	4770      	bx	lr
24000840:	5c001000 	.word	0x5c001000

24000844 <HAL_GetDEVID>:
24000844:	4b02      	ldr	r3, [pc, #8]	; (24000850 <HAL_GetDEVID+0xc>)
24000846:	6818      	ldr	r0, [r3, #0]
24000848:	f3c0 000b 	ubfx	r0, r0, #0, #12
2400084c:	4770      	bx	lr
2400084e:	bf00      	nop
24000850:	5c001000 	.word	0x5c001000

24000854 <HAL_GetUIDw0>:
24000854:	4b01      	ldr	r3, [pc, #4]	; (2400085c <HAL_GetUIDw0+0x8>)
24000856:	f8d3 0800 	ldr.w	r0, [r3, #2048]	; 0x800
2400085a:	4770      	bx	lr
2400085c:	1ff1e000 	.word	0x1ff1e000

24000860 <HAL_GetUIDw1>:
24000860:	4b01      	ldr	r3, [pc, #4]	; (24000868 <HAL_GetUIDw1+0x8>)
24000862:	f8d3 0804 	ldr.w	r0, [r3, #2052]	; 0x804
24000866:	4770      	bx	lr
24000868:	1ff1e000 	.word	0x1ff1e000

2400086c <HAL_GetUIDw2>:
2400086c:	4b01      	ldr	r3, [pc, #4]	; (24000874 <HAL_GetUIDw2+0x8>)
2400086e:	f8d3 0808 	ldr.w	r0, [r3, #2056]	; 0x808
24000872:	4770      	bx	lr
24000874:	1ff1e000 	.word	0x1ff1e000

24000878 <HAL_SYSCFG_VREFBUF_VoltageScalingConfig>:
24000878:	4a03      	ldr	r2, [pc, #12]	; (24000888 <HAL_SYSCFG_VREFBUF_VoltageScalingConfig+0x10>)
2400087a:	6813      	ldr	r3, [r2, #0]
2400087c:	f023 0370 	bic.w	r3, r3, #112	; 0x70
24000880:	4318      	orrs	r0, r3
24000882:	6010      	str	r0, [r2, #0]
24000884:	4770      	bx	lr
24000886:	bf00      	nop
24000888:	58003c00 	.word	0x58003c00

2400088c <HAL_SYSCFG_VREFBUF_HighImpedanceConfig>:
2400088c:	4a03      	ldr	r2, [pc, #12]	; (2400089c <HAL_SYSCFG_VREFBUF_HighImpedanceConfig+0x10>)
2400088e:	6813      	ldr	r3, [r2, #0]
24000890:	f023 0302 	bic.w	r3, r3, #2
24000894:	4318      	orrs	r0, r3
24000896:	6010      	str	r0, [r2, #0]
24000898:	4770      	bx	lr
2400089a:	bf00      	nop
2400089c:	58003c00 	.word	0x58003c00

240008a0 <HAL_SYSCFG_VREFBUF_TrimmingConfig>:
240008a0:	4a03      	ldr	r2, [pc, #12]	; (240008b0 <HAL_SYSCFG_VREFBUF_TrimmingConfig+0x10>)
240008a2:	6853      	ldr	r3, [r2, #4]
240008a4:	f023 033f 	bic.w	r3, r3, #63	; 0x3f
240008a8:	4318      	orrs	r0, r3
240008aa:	6050      	str	r0, [r2, #4]
240008ac:	4770      	bx	lr
240008ae:	bf00      	nop
240008b0:	58003c00 	.word	0x58003c00

240008b4 <HAL_SYSCFG_EnableVREFBUF>:
240008b4:	b538      	push	{r3, r4, r5, lr}
240008b6:	4c0a      	ldr	r4, [pc, #40]	; (240008e0 <HAL_SYSCFG_EnableVREFBUF+0x2c>)
240008b8:	6823      	ldr	r3, [r4, #0]
240008ba:	f043 0301 	orr.w	r3, r3, #1
240008be:	6023      	str	r3, [r4, #0]
240008c0:	f7ff ff70 	bl	240007a4 <HAL_GetTick>
240008c4:	4605      	mov	r5, r0
240008c6:	6823      	ldr	r3, [r4, #0]
240008c8:	071b      	lsls	r3, r3, #28
240008ca:	d501      	bpl.n	240008d0 <HAL_SYSCFG_EnableVREFBUF+0x1c>
240008cc:	2000      	movs	r0, #0
240008ce:	bd38      	pop	{r3, r4, r5, pc}
240008d0:	f7ff ff68 	bl	240007a4 <HAL_GetTick>
240008d4:	1b40      	subs	r0, r0, r5
240008d6:	280a      	cmp	r0, #10
240008d8:	d9f5      	bls.n	240008c6 <HAL_SYSCFG_EnableVREFBUF+0x12>
240008da:	2003      	movs	r0, #3
240008dc:	e7f7      	b.n	240008ce <HAL_SYSCFG_EnableVREFBUF+0x1a>
240008de:	bf00      	nop
240008e0:	58003c00 	.word	0x58003c00

240008e4 <HAL_SYSCFG_DisableVREFBUF>:
240008e4:	4a02      	ldr	r2, [pc, #8]	; (240008f0 <HAL_SYSCFG_DisableVREFBUF+0xc>)
240008e6:	6813      	ldr	r3, [r2, #0]
240008e8:	f023 0301 	bic.w	r3, r3, #1
240008ec:	6013      	str	r3, [r2, #0]
240008ee:	4770      	bx	lr
240008f0:	58003c00 	.word	0x58003c00

240008f4 <HAL_SYSCFG_ETHInterfaceSelect>:
240008f4:	4a03      	ldr	r2, [pc, #12]	; (24000904 <HAL_SYSCFG_ETHInterfaceSelect+0x10>)
240008f6:	6853      	ldr	r3, [r2, #4]
240008f8:	f423 0360 	bic.w	r3, r3, #14680064	; 0xe00000
240008fc:	4318      	orrs	r0, r3
240008fe:	6050      	str	r0, [r2, #4]
24000900:	4770      	bx	lr
24000902:	bf00      	nop
24000904:	58000400 	.word	0x58000400

24000908 <HAL_SYSCFG_AnalogSwitchConfig>:
24000908:	4a03      	ldr	r2, [pc, #12]	; (24000918 <HAL_SYSCFG_AnalogSwitchConfig+0x10>)
2400090a:	6853      	ldr	r3, [r2, #4]
2400090c:	ea23 0000 	bic.w	r0, r3, r0
24000910:	4301      	orrs	r1, r0
24000912:	6051      	str	r1, [r2, #4]
24000914:	4770      	bx	lr
24000916:	bf00      	nop
24000918:	58000400 	.word	0x58000400

2400091c <HAL_SYSCFG_EnableBOOST>:
2400091c:	4a02      	ldr	r2, [pc, #8]	; (24000928 <HAL_SYSCFG_EnableBOOST+0xc>)
2400091e:	6853      	ldr	r3, [r2, #4]
24000920:	f443 7380 	orr.w	r3, r3, #256	; 0x100
24000924:	6053      	str	r3, [r2, #4]
24000926:	4770      	bx	lr
24000928:	58000400 	.word	0x58000400

2400092c <HAL_SYSCFG_DisableBOOST>:
2400092c:	4a02      	ldr	r2, [pc, #8]	; (24000938 <HAL_SYSCFG_DisableBOOST+0xc>)
2400092e:	6853      	ldr	r3, [r2, #4]
24000930:	f423 7380 	bic.w	r3, r3, #256	; 0x100
24000934:	6053      	str	r3, [r2, #4]
24000936:	4770      	bx	lr
24000938:	58000400 	.word	0x58000400

2400093c <HAL_SYSCFG_CM7BootAddConfig>:
2400093c:	b510      	push	{r4, lr}
2400093e:	0c09      	lsrs	r1, r1, #16
24000940:	4c08      	ldr	r4, [pc, #32]	; (24000964 <HAL_SYSCFG_CM7BootAddConfig+0x28>)
24000942:	b938      	cbnz	r0, 24000954 <HAL_SYSCFG_CM7BootAddConfig+0x18>
24000944:	f8d4 2308 	ldr.w	r2, [r4, #776]	; 0x308
24000948:	b292      	uxth	r2, r2
2400094a:	ea42 4101 	orr.w	r1, r2, r1, lsl #16
2400094e:	f8c4 1308 	str.w	r1, [r4, #776]	; 0x308
24000952:	bd10      	pop	{r4, pc}
24000954:	f8d4 330c 	ldr.w	r3, [r4, #780]	; 0x30c
24000958:	0c1b      	lsrs	r3, r3, #16
2400095a:	041b      	lsls	r3, r3, #16
2400095c:	430b      	orrs	r3, r1
2400095e:	f8c4 330c 	str.w	r3, [r4, #780]	; 0x30c
24000962:	e7f6      	b.n	24000952 <HAL_SYSCFG_CM7BootAddConfig+0x16>
24000964:	58000400 	.word	0x58000400

24000968 <HAL_EnableCompensationCell>:
24000968:	4a02      	ldr	r2, [pc, #8]	; (24000974 <HAL_EnableCompensationCell+0xc>)
2400096a:	6a13      	ldr	r3, [r2, #32]
2400096c:	f043 0301 	orr.w	r3, r3, #1
24000970:	6213      	str	r3, [r2, #32]
24000972:	4770      	bx	lr
24000974:	58000400 	.word	0x58000400

24000978 <HAL_DisableCompensationCell>:
24000978:	4a02      	ldr	r2, [pc, #8]	; (24000984 <HAL_DisableCompensationCell+0xc>)
2400097a:	6a13      	ldr	r3, [r2, #32]
2400097c:	f023 0301 	bic.w	r3, r3, #1
24000980:	6213      	str	r3, [r2, #32]
24000982:	4770      	bx	lr
24000984:	58000400 	.word	0x58000400

24000988 <HAL_SYSCFG_EnableIOSpeedOptimize>:
24000988:	4a02      	ldr	r2, [pc, #8]	; (24000994 <HAL_SYSCFG_EnableIOSpeedOptimize+0xc>)
2400098a:	6a13      	ldr	r3, [r2, #32]
2400098c:	f443 3380 	orr.w	r3, r3, #65536	; 0x10000
24000990:	6213      	str	r3, [r2, #32]
24000992:	4770      	bx	lr
24000994:	58000400 	.word	0x58000400

24000998 <HAL_SYSCFG_DisableIOSpeedOptimize>:
24000998:	4a02      	ldr	r2, [pc, #8]	; (240009a4 <HAL_SYSCFG_DisableIOSpeedOptimize+0xc>)
2400099a:	6a13      	ldr	r3, [r2, #32]
2400099c:	f423 3380 	bic.w	r3, r3, #65536	; 0x10000
240009a0:	6213      	str	r3, [r2, #32]
240009a2:	4770      	bx	lr
240009a4:	58000400 	.word	0x58000400

240009a8 <HAL_SYSCFG_CompensationCodeSelect>:
240009a8:	4a03      	ldr	r2, [pc, #12]	; (240009b8 <HAL_SYSCFG_CompensationCodeSelect+0x10>)
240009aa:	6a13      	ldr	r3, [r2, #32]
240009ac:	f023 0302 	bic.w	r3, r3, #2
240009b0:	4318      	orrs	r0, r3
240009b2:	6210      	str	r0, [r2, #32]
240009b4:	4770      	bx	lr
240009b6:	bf00      	nop
240009b8:	58000400 	.word	0x58000400

240009bc <HAL_SYSCFG_CompensationCodeConfig>:
240009bc:	4a04      	ldr	r2, [pc, #16]	; (240009d0 <HAL_SYSCFG_CompensationCodeConfig+0x14>)
240009be:	6a93      	ldr	r3, [r2, #40]	; 0x28
240009c0:	f023 03ff 	bic.w	r3, r3, #255	; 0xff
240009c4:	4319      	orrs	r1, r3
240009c6:	ea41 1000 	orr.w	r0, r1, r0, lsl #4
240009ca:	6290      	str	r0, [r2, #40]	; 0x28
240009cc:	4770      	bx	lr
240009ce:	bf00      	nop
240009d0:	58000400 	.word	0x58000400

240009d4 <HAL_DBGMCU_EnableDBGSleepMode>:
240009d4:	4a02      	ldr	r2, [pc, #8]	; (240009e0 <HAL_DBGMCU_EnableDBGSleepMode+0xc>)
240009d6:	6853      	ldr	r3, [r2, #4]
240009d8:	f043 0301 	orr.w	r3, r3, #1
240009dc:	6053      	str	r3, [r2, #4]
240009de:	4770      	bx	lr
240009e0:	5c001000 	.word	0x5c001000

240009e4 <HAL_DBGMCU_DisableDBGSleepMode>:
240009e4:	4a02      	ldr	r2, [pc, #8]	; (240009f0 <HAL_DBGMCU_DisableDBGSleepMode+0xc>)
240009e6:	6853      	ldr	r3, [r2, #4]
240009e8:	f023 0301 	bic.w	r3, r3, #1
240009ec:	6053      	str	r3, [r2, #4]
240009ee:	4770      	bx	lr
240009f0:	5c001000 	.word	0x5c001000

240009f4 <HAL_DBGMCU_EnableDBGStopMode>:
240009f4:	4a02      	ldr	r2, [pc, #8]	; (24000a00 <HAL_DBGMCU_EnableDBGStopMode+0xc>)
240009f6:	6853      	ldr	r3, [r2, #4]
240009f8:	f043 0302 	orr.w	r3, r3, #2
240009fc:	6053      	str	r3, [r2, #4]
240009fe:	4770      	bx	lr
24000a00:	5c001000 	.word	0x5c001000

24000a04 <HAL_DBGMCU_DisableDBGStopMode>:
24000a04:	4a02      	ldr	r2, [pc, #8]	; (24000a10 <HAL_DBGMCU_DisableDBGStopMode+0xc>)
24000a06:	6853      	ldr	r3, [r2, #4]
24000a08:	f023 0302 	bic.w	r3, r3, #2
24000a0c:	6053      	str	r3, [r2, #4]
24000a0e:	4770      	bx	lr
24000a10:	5c001000 	.word	0x5c001000

24000a14 <HAL_DBGMCU_EnableDBGStandbyMode>:
24000a14:	4a02      	ldr	r2, [pc, #8]	; (24000a20 <HAL_DBGMCU_EnableDBGStandbyMode+0xc>)
24000a16:	6853      	ldr	r3, [r2, #4]
24000a18:	f043 0304 	orr.w	r3, r3, #4
24000a1c:	6053      	str	r3, [r2, #4]
24000a1e:	4770      	bx	lr
24000a20:	5c001000 	.word	0x5c001000

24000a24 <HAL_DBGMCU_DisableDBGStandbyMode>:
24000a24:	4a02      	ldr	r2, [pc, #8]	; (24000a30 <HAL_DBGMCU_DisableDBGStandbyMode+0xc>)
24000a26:	6853      	ldr	r3, [r2, #4]
24000a28:	f023 0304 	bic.w	r3, r3, #4
24000a2c:	6053      	str	r3, [r2, #4]
24000a2e:	4770      	bx	lr
24000a30:	5c001000 	.word	0x5c001000

24000a34 <HAL_EnableDomain3DBGStopMode>:
24000a34:	4a02      	ldr	r2, [pc, #8]	; (24000a40 <HAL_EnableDomain3DBGStopMode+0xc>)
24000a36:	6853      	ldr	r3, [r2, #4]
24000a38:	f043 0380 	orr.w	r3, r3, #128	; 0x80
24000a3c:	6053      	str	r3, [r2, #4]
24000a3e:	4770      	bx	lr
24000a40:	5c001000 	.word	0x5c001000

24000a44 <HAL_DisableDomain3DBGStopMode>:
24000a44:	4a02      	ldr	r2, [pc, #8]	; (24000a50 <HAL_DisableDomain3DBGStopMode+0xc>)
24000a46:	6853      	ldr	r3, [r2, #4]
24000a48:	f023 0380 	bic.w	r3, r3, #128	; 0x80
24000a4c:	6053      	str	r3, [r2, #4]
24000a4e:	4770      	bx	lr
24000a50:	5c001000 	.word	0x5c001000

24000a54 <HAL_EnableDomain3DBGStandbyMode>:
24000a54:	4a02      	ldr	r2, [pc, #8]	; (24000a60 <HAL_EnableDomain3DBGStandbyMode+0xc>)
24000a56:	6853      	ldr	r3, [r2, #4]
24000a58:	f443 7380 	orr.w	r3, r3, #256	; 0x100
24000a5c:	6053      	str	r3, [r2, #4]
24000a5e:	4770      	bx	lr
24000a60:	5c001000 	.word	0x5c001000

24000a64 <HAL_DisableDomain3DBGStandbyMode>:
24000a64:	4a02      	ldr	r2, [pc, #8]	; (24000a70 <HAL_DisableDomain3DBGStandbyMode+0xc>)
24000a66:	6853      	ldr	r3, [r2, #4]
24000a68:	f423 7380 	bic.w	r3, r3, #256	; 0x100
24000a6c:	6053      	str	r3, [r2, #4]
24000a6e:	4770      	bx	lr
24000a70:	5c001000 	.word	0x5c001000

24000a74 <HAL_SetFMCMemorySwappingConfig>:
24000a74:	4a03      	ldr	r2, [pc, #12]	; (24000a84 <HAL_SetFMCMemorySwappingConfig+0x10>)
24000a76:	6813      	ldr	r3, [r2, #0]
24000a78:	f023 7340 	bic.w	r3, r3, #50331648	; 0x3000000
24000a7c:	4318      	orrs	r0, r3
24000a7e:	6010      	str	r0, [r2, #0]
24000a80:	4770      	bx	lr
24000a82:	bf00      	nop
24000a84:	52004000 	.word	0x52004000

24000a88 <HAL_GetFMCMemorySwappingConfig>:
24000a88:	4b02      	ldr	r3, [pc, #8]	; (24000a94 <HAL_GetFMCMemorySwappingConfig+0xc>)
24000a8a:	6818      	ldr	r0, [r3, #0]
24000a8c:	f000 7040 	and.w	r0, r0, #50331648	; 0x3000000
24000a90:	4770      	bx	lr
24000a92:	bf00      	nop
24000a94:	52004000 	.word	0x52004000

24000a98 <HAL_EXTI_EdgeConfig>:
24000a98:	f020 031f 	bic.w	r3, r0, #31
24000a9c:	f000 021f 	and.w	r2, r0, #31
24000aa0:	2001      	movs	r0, #1
24000aa2:	f103 43b0 	add.w	r3, r3, #1476395008	; 0x58000000
24000aa6:	4090      	lsls	r0, r2
24000aa8:	b510      	push	{r4, lr}
24000aaa:	685c      	ldr	r4, [r3, #4]
24000aac:	ea24 0400 	bic.w	r4, r4, r0
24000ab0:	605c      	str	r4, [r3, #4]
24000ab2:	02cc      	lsls	r4, r1, #11
24000ab4:	681a      	ldr	r2, [r3, #0]
24000ab6:	ea22 0200 	bic.w	r2, r2, r0
24000aba:	601a      	str	r2, [r3, #0]
24000abc:	d502      	bpl.n	24000ac4 <HAL_EXTI_EdgeConfig+0x2c>
24000abe:	681a      	ldr	r2, [r3, #0]
24000ac0:	4302      	orrs	r2, r0
24000ac2:	601a      	str	r2, [r3, #0]
24000ac4:	028a      	lsls	r2, r1, #10
24000ac6:	d502      	bpl.n	24000ace <HAL_EXTI_EdgeConfig+0x36>
24000ac8:	685a      	ldr	r2, [r3, #4]
24000aca:	4310      	orrs	r0, r2
24000acc:	6058      	str	r0, [r3, #4]
24000ace:	bd10      	pop	{r4, pc}

24000ad0 <HAL_EXTI_GenerateSWInterrupt>:
24000ad0:	f020 021f 	bic.w	r2, r0, #31
24000ad4:	2301      	movs	r3, #1
24000ad6:	f000 001f 	and.w	r0, r0, #31
24000ada:	f102 42b0 	add.w	r2, r2, #1476395008	; 0x58000000
24000ade:	fa03 f000 	lsl.w	r0, r3, r0
24000ae2:	6891      	ldr	r1, [r2, #8]
24000ae4:	4308      	orrs	r0, r1
24000ae6:	6090      	str	r0, [r2, #8]
24000ae8:	4770      	bx	lr

24000aea <HAL_EXTI_D1_ClearFlag>:
24000aea:	0943      	lsrs	r3, r0, #5
24000aec:	2201      	movs	r2, #1
24000aee:	f000 001f 	and.w	r0, r0, #31
24000af2:	011b      	lsls	r3, r3, #4
24000af4:	fa02 f000 	lsl.w	r0, r2, r0
24000af8:	f103 43b0 	add.w	r3, r3, #1476395008	; 0x58000000
24000afc:	f8c3 0088 	str.w	r0, [r3, #136]	; 0x88
24000b00:	4770      	bx	lr

24000b02 <HAL_EXTI_D1_EventInputConfig>:
24000b02:	b530      	push	{r4, r5, lr}
24000b04:	03cc      	lsls	r4, r1, #15
24000b06:	d50d      	bpl.n	24000b24 <HAL_EXTI_D1_EventInputConfig+0x22>
24000b08:	0943      	lsrs	r3, r0, #5
24000b0a:	f000 051f 	and.w	r5, r0, #31
24000b0e:	2401      	movs	r4, #1
24000b10:	f103 63b0 	add.w	r3, r3, #92274688	; 0x5800000
24000b14:	40ac      	lsls	r4, r5
24000b16:	3308      	adds	r3, #8
24000b18:	011b      	lsls	r3, r3, #4
24000b1a:	681d      	ldr	r5, [r3, #0]
24000b1c:	b9a2      	cbnz	r2, 24000b48 <HAL_EXTI_D1_EventInputConfig+0x46>
24000b1e:	ea25 0404 	bic.w	r4, r5, r4
24000b22:	601c      	str	r4, [r3, #0]
24000b24:	038b      	lsls	r3, r1, #14
24000b26:	d50e      	bpl.n	24000b46 <HAL_EXTI_D1_EventInputConfig+0x44>
24000b28:	f000 011f 	and.w	r1, r0, #31
24000b2c:	0940      	lsrs	r0, r0, #5
24000b2e:	2301      	movs	r3, #1
24000b30:	0100      	lsls	r0, r0, #4
24000b32:	408b      	lsls	r3, r1
24000b34:	f100 40b0 	add.w	r0, r0, #1476395008	; 0x58000000
24000b38:	b942      	cbnz	r2, 24000b4c <HAL_EXTI_D1_EventInputConfig+0x4a>
24000b3a:	f8d0 2084 	ldr.w	r2, [r0, #132]	; 0x84
24000b3e:	ea22 0303 	bic.w	r3, r2, r3
24000b42:	f8c0 3084 	str.w	r3, [r0, #132]	; 0x84
24000b46:	bd30      	pop	{r4, r5, pc}
24000b48:	432c      	orrs	r4, r5
24000b4a:	e7ea      	b.n	24000b22 <HAL_EXTI_D1_EventInputConfig+0x20>
24000b4c:	f8d0 2084 	ldr.w	r2, [r0, #132]	; 0x84
24000b50:	4313      	orrs	r3, r2
24000b52:	e7f6      	b.n	24000b42 <HAL_EXTI_D1_EventInputConfig+0x40>

24000b54 <HAL_EXTI_D3_EventInputConfig>:
24000b54:	b530      	push	{r4, r5, lr}
24000b56:	f020 031f 	bic.w	r3, r0, #31
24000b5a:	f000 051f 	and.w	r5, r0, #31
24000b5e:	2401      	movs	r4, #1
24000b60:	f103 43b0 	add.w	r3, r3, #1476395008	; 0x58000000
24000b64:	40ac      	lsls	r4, r5
24000b66:	b9a9      	cbnz	r1, 24000b94 <HAL_EXTI_D3_EventInputConfig+0x40>
24000b68:	68d9      	ldr	r1, [r3, #12]
24000b6a:	ea21 0404 	bic.w	r4, r1, r4
24000b6e:	06c1      	lsls	r1, r0, #27
24000b70:	ea4f 0040 	mov.w	r0, r0, lsl #1
24000b74:	60dc      	str	r4, [r3, #12]
24000b76:	f04f 0403 	mov.w	r4, #3
24000b7a:	bf54      	ite	pl
24000b7c:	3310      	addpl	r3, #16
24000b7e:	3314      	addmi	r3, #20
24000b80:	f000 001e 	and.w	r0, r0, #30
24000b84:	6819      	ldr	r1, [r3, #0]
24000b86:	4084      	lsls	r4, r0
24000b88:	4082      	lsls	r2, r0
24000b8a:	ea21 0104 	bic.w	r1, r1, r4
24000b8e:	430a      	orrs	r2, r1
24000b90:	601a      	str	r2, [r3, #0]
24000b92:	bd30      	pop	{r4, r5, pc}
24000b94:	68d9      	ldr	r1, [r3, #12]
24000b96:	430c      	orrs	r4, r1
24000b98:	e7e9      	b.n	24000b6e <HAL_EXTI_D3_EventInputConfig+0x1a>
	...

24000b9c <HAL_NVIC_SetPriorityGrouping>:
24000b9c:	4907      	ldr	r1, [pc, #28]	; (24000bbc <HAL_NVIC_SetPriorityGrouping+0x20>)
24000b9e:	0203      	lsls	r3, r0, #8
24000ba0:	68ca      	ldr	r2, [r1, #12]
24000ba2:	f403 63e0 	and.w	r3, r3, #1792	; 0x700
24000ba6:	f422 62e0 	bic.w	r2, r2, #1792	; 0x700
24000baa:	0412      	lsls	r2, r2, #16
24000bac:	0c12      	lsrs	r2, r2, #16
24000bae:	4313      	orrs	r3, r2
24000bb0:	f043 63bf 	orr.w	r3, r3, #100139008	; 0x5f80000
24000bb4:	f443 3300 	orr.w	r3, r3, #131072	; 0x20000
24000bb8:	60cb      	str	r3, [r1, #12]
24000bba:	4770      	bx	lr
24000bbc:	e000ed00 	.word	0xe000ed00

24000bc0 <HAL_NVIC_SetPriority>:
24000bc0:	4b16      	ldr	r3, [pc, #88]	; (24000c1c <HAL_NVIC_SetPriority+0x5c>)
24000bc2:	b530      	push	{r4, r5, lr}
24000bc4:	68dc      	ldr	r4, [r3, #12]
24000bc6:	f3c4 2402 	ubfx	r4, r4, #8, #3
24000bca:	f1c4 0507 	rsb	r5, r4, #7
24000bce:	1d23      	adds	r3, r4, #4
24000bd0:	2d04      	cmp	r5, #4
24000bd2:	bf28      	it	cs
24000bd4:	2504      	movcs	r5, #4
24000bd6:	2b06      	cmp	r3, #6
24000bd8:	f04f 33ff 	mov.w	r3, #4294967295
24000bdc:	bf8c      	ite	hi
24000bde:	3c03      	subhi	r4, #3
24000be0:	2400      	movls	r4, #0
24000be2:	fa03 f505 	lsl.w	r5, r3, r5
24000be6:	2800      	cmp	r0, #0
24000be8:	fa03 f304 	lsl.w	r3, r3, r4
24000bec:	ea21 0105 	bic.w	r1, r1, r5
24000bf0:	ea22 0203 	bic.w	r2, r2, r3
24000bf4:	fa01 f104 	lsl.w	r1, r1, r4
24000bf8:	ea41 0302 	orr.w	r3, r1, r2
24000bfc:	ea4f 1303 	mov.w	r3, r3, lsl #4
24000c00:	b2db      	uxtb	r3, r3
24000c02:	db06      	blt.n	24000c12 <HAL_NVIC_SetPriority+0x52>
24000c04:	f100 4060 	add.w	r0, r0, #3758096384	; 0xe0000000
24000c08:	f500 4061 	add.w	r0, r0, #57600	; 0xe100
24000c0c:	f880 3300 	strb.w	r3, [r0, #768]	; 0x300
24000c10:	bd30      	pop	{r4, r5, pc}
24000c12:	f000 000f 	and.w	r0, r0, #15
24000c16:	4a02      	ldr	r2, [pc, #8]	; (24000c20 <HAL_NVIC_SetPriority+0x60>)
24000c18:	5413      	strb	r3, [r2, r0]
24000c1a:	e7f9      	b.n	24000c10 <HAL_NVIC_SetPriority+0x50>
24000c1c:	e000ed00 	.word	0xe000ed00
24000c20:	e000ed14 	.word	0xe000ed14

24000c24 <HAL_NVIC_EnableIRQ>:
24000c24:	2800      	cmp	r0, #0
24000c26:	db08      	blt.n	24000c3a <HAL_NVIC_EnableIRQ+0x16>
24000c28:	0942      	lsrs	r2, r0, #5
24000c2a:	2301      	movs	r3, #1
24000c2c:	f000 001f 	and.w	r0, r0, #31
24000c30:	fa03 f000 	lsl.w	r0, r3, r0
24000c34:	4b01      	ldr	r3, [pc, #4]	; (24000c3c <HAL_NVIC_EnableIRQ+0x18>)
24000c36:	f843 0022 	str.w	r0, [r3, r2, lsl #2]
24000c3a:	4770      	bx	lr
24000c3c:	e000e100 	.word	0xe000e100

24000c40 <HAL_NVIC_DisableIRQ>:
24000c40:	2800      	cmp	r0, #0
24000c42:	db0d      	blt.n	24000c60 <HAL_NVIC_DisableIRQ+0x20>
24000c44:	0943      	lsrs	r3, r0, #5
24000c46:	2201      	movs	r2, #1
24000c48:	f000 001f 	and.w	r0, r0, #31
24000c4c:	3320      	adds	r3, #32
24000c4e:	fa02 f000 	lsl.w	r0, r2, r0
24000c52:	4a04      	ldr	r2, [pc, #16]	; (24000c64 <HAL_NVIC_DisableIRQ+0x24>)
24000c54:	f842 0023 	str.w	r0, [r2, r3, lsl #2]
24000c58:	f3bf 8f4f 	dsb	sy
24000c5c:	f3bf 8f6f 	isb	sy
24000c60:	4770      	bx	lr
24000c62:	bf00      	nop
24000c64:	e000e100 	.word	0xe000e100

24000c68 <HAL_NVIC_SystemReset>:
24000c68:	f3bf 8f4f 	dsb	sy
24000c6c:	4905      	ldr	r1, [pc, #20]	; (24000c84 <HAL_NVIC_SystemReset+0x1c>)
24000c6e:	4b06      	ldr	r3, [pc, #24]	; (24000c88 <HAL_NVIC_SystemReset+0x20>)
24000c70:	68ca      	ldr	r2, [r1, #12]
24000c72:	f402 62e0 	and.w	r2, r2, #1792	; 0x700
24000c76:	4313      	orrs	r3, r2
24000c78:	60cb      	str	r3, [r1, #12]
24000c7a:	f3bf 8f4f 	dsb	sy
24000c7e:	bf00      	nop
24000c80:	e7fd      	b.n	24000c7e <HAL_NVIC_SystemReset+0x16>
24000c82:	bf00      	nop
24000c84:	e000ed00 	.word	0xe000ed00
24000c88:	05fa0004 	.word	0x05fa0004

24000c8c <HAL_SYSTICK_Config>:
24000c8c:	3801      	subs	r0, #1
24000c8e:	f1b0 7f80 	cmp.w	r0, #16777216	; 0x1000000
24000c92:	d20b      	bcs.n	24000cac <HAL_SYSTICK_Config+0x20>
24000c94:	f04f 23e0 	mov.w	r3, #3758153728	; 0xe000e000
24000c98:	4a05      	ldr	r2, [pc, #20]	; (24000cb0 <HAL_SYSTICK_Config+0x24>)
24000c9a:	21f0      	movs	r1, #240	; 0xf0
24000c9c:	6158      	str	r0, [r3, #20]
24000c9e:	2000      	movs	r0, #0
24000ca0:	f882 1023 	strb.w	r1, [r2, #35]	; 0x23
24000ca4:	2207      	movs	r2, #7
24000ca6:	6198      	str	r0, [r3, #24]
24000ca8:	611a      	str	r2, [r3, #16]
24000caa:	4770      	bx	lr
24000cac:	2001      	movs	r0, #1
24000cae:	4770      	bx	lr
24000cb0:	e000ed00 	.word	0xe000ed00

24000cb4 <HAL_MPU_Disable>:
24000cb4:	f3bf 8f5f 	dmb	sy
24000cb8:	4b04      	ldr	r3, [pc, #16]	; (24000ccc <HAL_MPU_Disable+0x18>)
24000cba:	6a5a      	ldr	r2, [r3, #36]	; 0x24
24000cbc:	f422 3280 	bic.w	r2, r2, #65536	; 0x10000
24000cc0:	625a      	str	r2, [r3, #36]	; 0x24
24000cc2:	2200      	movs	r2, #0
24000cc4:	f8c3 2094 	str.w	r2, [r3, #148]	; 0x94
24000cc8:	4770      	bx	lr
24000cca:	bf00      	nop
24000ccc:	e000ed00 	.word	0xe000ed00

24000cd0 <HAL_MPU_Enable>:
24000cd0:	4b06      	ldr	r3, [pc, #24]	; (24000cec <HAL_MPU_Enable+0x1c>)
24000cd2:	f040 0001 	orr.w	r0, r0, #1
24000cd6:	f8c3 0094 	str.w	r0, [r3, #148]	; 0x94
24000cda:	6a5a      	ldr	r2, [r3, #36]	; 0x24
24000cdc:	f442 3280 	orr.w	r2, r2, #65536	; 0x10000
24000ce0:	625a      	str	r2, [r3, #36]	; 0x24
24000ce2:	f3bf 8f4f 	dsb	sy
24000ce6:	f3bf 8f6f 	isb	sy
24000cea:	4770      	bx	lr
24000cec:	e000ed00 	.word	0xe000ed00

24000cf0 <HAL_MPU_ConfigRegion>:
24000cf0:	7843      	ldrb	r3, [r0, #1]
24000cf2:	4a14      	ldr	r2, [pc, #80]	; (24000d44 <HAL_MPU_ConfigRegion+0x54>)
24000cf4:	b510      	push	{r4, lr}
24000cf6:	f8c2 3098 	str.w	r3, [r2, #152]	; 0x98
24000cfa:	7801      	ldrb	r1, [r0, #0]
24000cfc:	b1e9      	cbz	r1, 24000d3a <HAL_MPU_ConfigRegion+0x4a>
24000cfe:	6843      	ldr	r3, [r0, #4]
24000d00:	f8c2 309c 	str.w	r3, [r2, #156]	; 0x9c
24000d04:	7ac3      	ldrb	r3, [r0, #11]
24000d06:	7b04      	ldrb	r4, [r0, #12]
24000d08:	061b      	lsls	r3, r3, #24
24000d0a:	ea43 7304 	orr.w	r3, r3, r4, lsl #28
24000d0e:	430b      	orrs	r3, r1
24000d10:	7a81      	ldrb	r1, [r0, #10]
24000d12:	ea43 43c1 	orr.w	r3, r3, r1, lsl #19
24000d16:	7b41      	ldrb	r1, [r0, #13]
24000d18:	ea43 4381 	orr.w	r3, r3, r1, lsl #18
24000d1c:	7b81      	ldrb	r1, [r0, #14]
24000d1e:	ea43 4341 	orr.w	r3, r3, r1, lsl #17
24000d22:	7bc1      	ldrb	r1, [r0, #15]
24000d24:	ea43 4301 	orr.w	r3, r3, r1, lsl #16
24000d28:	7a41      	ldrb	r1, [r0, #9]
24000d2a:	ea43 2301 	orr.w	r3, r3, r1, lsl #8
24000d2e:	7a01      	ldrb	r1, [r0, #8]
24000d30:	ea43 0341 	orr.w	r3, r3, r1, lsl #1
24000d34:	f8c2 30a0 	str.w	r3, [r2, #160]	; 0xa0
24000d38:	bd10      	pop	{r4, pc}
24000d3a:	f8c2 109c 	str.w	r1, [r2, #156]	; 0x9c
24000d3e:	f8c2 10a0 	str.w	r1, [r2, #160]	; 0xa0
24000d42:	e7f9      	b.n	24000d38 <HAL_MPU_ConfigRegion+0x48>
24000d44:	e000ed00 	.word	0xe000ed00

24000d48 <HAL_NVIC_GetPriorityGrouping>:
24000d48:	4b02      	ldr	r3, [pc, #8]	; (24000d54 <HAL_NVIC_GetPriorityGrouping+0xc>)
24000d4a:	68d8      	ldr	r0, [r3, #12]
24000d4c:	f3c0 2002 	ubfx	r0, r0, #8, #3
24000d50:	4770      	bx	lr
24000d52:	bf00      	nop
24000d54:	e000ed00 	.word	0xe000ed00

24000d58 <HAL_NVIC_GetPriority>:
24000d58:	2800      	cmp	r0, #0
24000d5a:	b570      	push	{r4, r5, r6, lr}
24000d5c:	db21      	blt.n	24000da2 <HAL_NVIC_GetPriority+0x4a>
24000d5e:	f100 4060 	add.w	r0, r0, #3758096384	; 0xe0000000
24000d62:	f500 4061 	add.w	r0, r0, #57600	; 0xe100
24000d66:	f890 0300 	ldrb.w	r0, [r0, #768]	; 0x300
24000d6a:	f001 0107 	and.w	r1, r1, #7
24000d6e:	0900      	lsrs	r0, r0, #4
24000d70:	f1c1 0407 	rsb	r4, r1, #7
24000d74:	1d0d      	adds	r5, r1, #4
24000d76:	2c04      	cmp	r4, #4
24000d78:	bf28      	it	cs
24000d7a:	2404      	movcs	r4, #4
24000d7c:	2d06      	cmp	r5, #6
24000d7e:	f04f 35ff 	mov.w	r5, #4294967295
24000d82:	bf8c      	ite	hi
24000d84:	3903      	subhi	r1, #3
24000d86:	2100      	movls	r1, #0
24000d88:	fa05 f404 	lsl.w	r4, r5, r4
24000d8c:	fa20 f601 	lsr.w	r6, r0, r1
24000d90:	fa05 f101 	lsl.w	r1, r5, r1
24000d94:	ea26 0404 	bic.w	r4, r6, r4
24000d98:	ea20 0001 	bic.w	r0, r0, r1
24000d9c:	6014      	str	r4, [r2, #0]
24000d9e:	6018      	str	r0, [r3, #0]
24000da0:	bd70      	pop	{r4, r5, r6, pc}
24000da2:	f000 000f 	and.w	r0, r0, #15
24000da6:	4c01      	ldr	r4, [pc, #4]	; (24000dac <HAL_NVIC_GetPriority+0x54>)
24000da8:	5c20      	ldrb	r0, [r4, r0]
24000daa:	e7de      	b.n	24000d6a <HAL_NVIC_GetPriority+0x12>
24000dac:	e000ed14 	.word	0xe000ed14

24000db0 <HAL_NVIC_SetPendingIRQ>:
24000db0:	2800      	cmp	r0, #0
24000db2:	db09      	blt.n	24000dc8 <HAL_NVIC_SetPendingIRQ+0x18>
24000db4:	0943      	lsrs	r3, r0, #5
24000db6:	2201      	movs	r2, #1
24000db8:	f000 001f 	and.w	r0, r0, #31
24000dbc:	3340      	adds	r3, #64	; 0x40
24000dbe:	fa02 f000 	lsl.w	r0, r2, r0
24000dc2:	4a02      	ldr	r2, [pc, #8]	; (24000dcc <HAL_NVIC_SetPendingIRQ+0x1c>)
24000dc4:	f842 0023 	str.w	r0, [r2, r3, lsl #2]
24000dc8:	4770      	bx	lr
24000dca:	bf00      	nop
24000dcc:	e000e100 	.word	0xe000e100

24000dd0 <HAL_NVIC_GetPendingIRQ>:
24000dd0:	2800      	cmp	r0, #0
24000dd2:	db0b      	blt.n	24000dec <HAL_NVIC_GetPendingIRQ+0x1c>
24000dd4:	0943      	lsrs	r3, r0, #5
24000dd6:	4a06      	ldr	r2, [pc, #24]	; (24000df0 <HAL_NVIC_GetPendingIRQ+0x20>)
24000dd8:	f000 001f 	and.w	r0, r0, #31
24000ddc:	3340      	adds	r3, #64	; 0x40
24000dde:	f852 3023 	ldr.w	r3, [r2, r3, lsl #2]
24000de2:	fa23 f000 	lsr.w	r0, r3, r0
24000de6:	f000 0001 	and.w	r0, r0, #1
24000dea:	4770      	bx	lr
24000dec:	2000      	movs	r0, #0
24000dee:	4770      	bx	lr
24000df0:	e000e100 	.word	0xe000e100

24000df4 <HAL_NVIC_ClearPendingIRQ>:
24000df4:	2800      	cmp	r0, #0
24000df6:	db09      	blt.n	24000e0c <HAL_NVIC_ClearPendingIRQ+0x18>
24000df8:	0943      	lsrs	r3, r0, #5
24000dfa:	2201      	movs	r2, #1
24000dfc:	f000 001f 	and.w	r0, r0, #31
24000e00:	3360      	adds	r3, #96	; 0x60
24000e02:	fa02 f000 	lsl.w	r0, r2, r0
24000e06:	4a02      	ldr	r2, [pc, #8]	; (24000e10 <HAL_NVIC_ClearPendingIRQ+0x1c>)
24000e08:	f842 0023 	str.w	r0, [r2, r3, lsl #2]
24000e0c:	4770      	bx	lr
24000e0e:	bf00      	nop
24000e10:	e000e100 	.word	0xe000e100

24000e14 <HAL_NVIC_GetActive>:
24000e14:	2800      	cmp	r0, #0
24000e16:	db0b      	blt.n	24000e30 <HAL_NVIC_GetActive+0x1c>
24000e18:	0943      	lsrs	r3, r0, #5
24000e1a:	4a06      	ldr	r2, [pc, #24]	; (24000e34 <HAL_NVIC_GetActive+0x20>)
24000e1c:	f000 001f 	and.w	r0, r0, #31
24000e20:	3380      	adds	r3, #128	; 0x80
24000e22:	f852 3023 	ldr.w	r3, [r2, r3, lsl #2]
24000e26:	fa23 f000 	lsr.w	r0, r3, r0
24000e2a:	f000 0001 	and.w	r0, r0, #1
24000e2e:	4770      	bx	lr
24000e30:	2000      	movs	r0, #0
24000e32:	4770      	bx	lr
24000e34:	e000e100 	.word	0xe000e100

24000e38 <HAL_SYSTICK_CLKSourceConfig>:
24000e38:	f04f 23e0 	mov.w	r3, #3758153728	; 0xe000e000
24000e3c:	2804      	cmp	r0, #4
24000e3e:	691a      	ldr	r2, [r3, #16]
24000e40:	bf0c      	ite	eq
24000e42:	f042 0204 	orreq.w	r2, r2, #4
24000e46:	f022 0204 	bicne.w	r2, r2, #4
24000e4a:	611a      	str	r2, [r3, #16]
24000e4c:	4770      	bx	lr

24000e4e <HAL_SYSTICK_Callback>:
24000e4e:	4770      	bx	lr

24000e50 <HAL_SYSTICK_IRQHandler>:
24000e50:	b508      	push	{r3, lr}
24000e52:	f7ff fffc 	bl	24000e4e <HAL_SYSTICK_Callback>
24000e56:	bd08      	pop	{r3, pc}

24000e58 <HAL_GetCurrentCPUID>:
24000e58:	2003      	movs	r0, #3
24000e5a:	4770      	bx	lr

24000e5c <DMA_SetConfig>:
24000e5c:	b5f0      	push	{r4, r5, r6, r7, lr}
24000e5e:	f8df c17c 	ldr.w	ip, [pc, #380]	; 24000fdc <DMA_SetConfig+0x180>
24000e62:	6804      	ldr	r4, [r0, #0]
24000e64:	6d87      	ldr	r7, [r0, #88]	; 0x58
24000e66:	4564      	cmp	r4, ip
24000e68:	d045      	beq.n	24000ef6 <DMA_SetConfig+0x9a>
24000e6a:	4d59      	ldr	r5, [pc, #356]	; (24000fd0 <DMA_SetConfig+0x174>)
24000e6c:	42ac      	cmp	r4, r5
24000e6e:	d042      	beq.n	24000ef6 <DMA_SetConfig+0x9a>
24000e70:	3518      	adds	r5, #24
24000e72:	42ac      	cmp	r4, r5
24000e74:	d03f      	beq.n	24000ef6 <DMA_SetConfig+0x9a>
24000e76:	3518      	adds	r5, #24
24000e78:	42ac      	cmp	r4, r5
24000e7a:	d03c      	beq.n	24000ef6 <DMA_SetConfig+0x9a>
24000e7c:	3518      	adds	r5, #24
24000e7e:	42ac      	cmp	r4, r5
24000e80:	d039      	beq.n	24000ef6 <DMA_SetConfig+0x9a>
24000e82:	3518      	adds	r5, #24
24000e84:	42ac      	cmp	r4, r5
24000e86:	d036      	beq.n	24000ef6 <DMA_SetConfig+0x9a>
24000e88:	3518      	adds	r5, #24
24000e8a:	42ac      	cmp	r4, r5
24000e8c:	d033      	beq.n	24000ef6 <DMA_SetConfig+0x9a>
24000e8e:	3518      	adds	r5, #24
24000e90:	42ac      	cmp	r4, r5
24000e92:	d030      	beq.n	24000ef6 <DMA_SetConfig+0x9a>
24000e94:	f505 7556 	add.w	r5, r5, #856	; 0x358
24000e98:	42ac      	cmp	r4, r5
24000e9a:	d02c      	beq.n	24000ef6 <DMA_SetConfig+0x9a>
24000e9c:	3518      	adds	r5, #24
24000e9e:	42ac      	cmp	r4, r5
24000ea0:	d029      	beq.n	24000ef6 <DMA_SetConfig+0x9a>
24000ea2:	3518      	adds	r5, #24
24000ea4:	42ac      	cmp	r4, r5
24000ea6:	d026      	beq.n	24000ef6 <DMA_SetConfig+0x9a>
24000ea8:	3518      	adds	r5, #24
24000eaa:	42ac      	cmp	r4, r5
24000eac:	d023      	beq.n	24000ef6 <DMA_SetConfig+0x9a>
24000eae:	3518      	adds	r5, #24
24000eb0:	42ac      	cmp	r4, r5
24000eb2:	d020      	beq.n	24000ef6 <DMA_SetConfig+0x9a>
24000eb4:	3518      	adds	r5, #24
24000eb6:	42ac      	cmp	r4, r5
24000eb8:	d01d      	beq.n	24000ef6 <DMA_SetConfig+0x9a>
24000eba:	3518      	adds	r5, #24
24000ebc:	42ac      	cmp	r4, r5
24000ebe:	d01a      	beq.n	24000ef6 <DMA_SetConfig+0x9a>
24000ec0:	3518      	adds	r5, #24
24000ec2:	42ac      	cmp	r4, r5
24000ec4:	d017      	beq.n	24000ef6 <DMA_SetConfig+0x9a>
24000ec6:	4d43      	ldr	r5, [pc, #268]	; (24000fd4 <DMA_SetConfig+0x178>)
24000ec8:	42ac      	cmp	r4, r5
24000eca:	d014      	beq.n	24000ef6 <DMA_SetConfig+0x9a>
24000ecc:	3514      	adds	r5, #20
24000ece:	42ac      	cmp	r4, r5
24000ed0:	d011      	beq.n	24000ef6 <DMA_SetConfig+0x9a>
24000ed2:	3514      	adds	r5, #20
24000ed4:	42ac      	cmp	r4, r5
24000ed6:	d00e      	beq.n	24000ef6 <DMA_SetConfig+0x9a>
24000ed8:	3514      	adds	r5, #20
24000eda:	42ac      	cmp	r4, r5
24000edc:	d00b      	beq.n	24000ef6 <DMA_SetConfig+0x9a>
24000ede:	3514      	adds	r5, #20
24000ee0:	42ac      	cmp	r4, r5
24000ee2:	d008      	beq.n	24000ef6 <DMA_SetConfig+0x9a>
24000ee4:	3514      	adds	r5, #20
24000ee6:	42ac      	cmp	r4, r5
24000ee8:	d005      	beq.n	24000ef6 <DMA_SetConfig+0x9a>
24000eea:	3514      	adds	r5, #20
24000eec:	42ac      	cmp	r4, r5
24000eee:	d002      	beq.n	24000ef6 <DMA_SetConfig+0x9a>
24000ef0:	3514      	adds	r5, #20
24000ef2:	42ac      	cmp	r4, r5
24000ef4:	d167      	bne.n	24000fc6 <DMA_SetConfig+0x16a>
24000ef6:	e9d0 5619 	ldrd	r5, r6, [r0, #100]	; 0x64
24000efa:	606e      	str	r6, [r5, #4]
24000efc:	6ec5      	ldr	r5, [r0, #108]	; 0x6c
24000efe:	b115      	cbz	r5, 24000f06 <DMA_SetConfig+0xaa>
24000f00:	e9d0 561c 	ldrd	r5, r6, [r0, #112]	; 0x70
24000f04:	606e      	str	r6, [r5, #4]
24000f06:	4564      	cmp	r4, ip
24000f08:	d037      	beq.n	24000f7a <DMA_SetConfig+0x11e>
24000f0a:	4d31      	ldr	r5, [pc, #196]	; (24000fd0 <DMA_SetConfig+0x174>)
24000f0c:	42ac      	cmp	r4, r5
24000f0e:	d034      	beq.n	24000f7a <DMA_SetConfig+0x11e>
24000f10:	3518      	adds	r5, #24
24000f12:	42ac      	cmp	r4, r5
24000f14:	d031      	beq.n	24000f7a <DMA_SetConfig+0x11e>
24000f16:	3518      	adds	r5, #24
24000f18:	42ac      	cmp	r4, r5
24000f1a:	d02e      	beq.n	24000f7a <DMA_SetConfig+0x11e>
24000f1c:	3518      	adds	r5, #24
24000f1e:	42ac      	cmp	r4, r5
24000f20:	d02b      	beq.n	24000f7a <DMA_SetConfig+0x11e>
24000f22:	3518      	adds	r5, #24
24000f24:	42ac      	cmp	r4, r5
24000f26:	d028      	beq.n	24000f7a <DMA_SetConfig+0x11e>
24000f28:	3518      	adds	r5, #24
24000f2a:	42ac      	cmp	r4, r5
24000f2c:	d025      	beq.n	24000f7a <DMA_SetConfig+0x11e>
24000f2e:	3518      	adds	r5, #24
24000f30:	42ac      	cmp	r4, r5
24000f32:	d022      	beq.n	24000f7a <DMA_SetConfig+0x11e>
24000f34:	f505 7556 	add.w	r5, r5, #856	; 0x358
24000f38:	42ac      	cmp	r4, r5
24000f3a:	d01e      	beq.n	24000f7a <DMA_SetConfig+0x11e>
24000f3c:	3518      	adds	r5, #24
24000f3e:	42ac      	cmp	r4, r5
24000f40:	d01b      	beq.n	24000f7a <DMA_SetConfig+0x11e>
24000f42:	3518      	adds	r5, #24
24000f44:	42ac      	cmp	r4, r5
24000f46:	d018      	beq.n	24000f7a <DMA_SetConfig+0x11e>
24000f48:	3518      	adds	r5, #24
24000f4a:	42ac      	cmp	r4, r5
24000f4c:	d015      	beq.n	24000f7a <DMA_SetConfig+0x11e>
24000f4e:	3518      	adds	r5, #24
24000f50:	42ac      	cmp	r4, r5
24000f52:	d012      	beq.n	24000f7a <DMA_SetConfig+0x11e>
24000f54:	3518      	adds	r5, #24
24000f56:	42ac      	cmp	r4, r5
24000f58:	d00f      	beq.n	24000f7a <DMA_SetConfig+0x11e>
24000f5a:	3518      	adds	r5, #24
24000f5c:	42ac      	cmp	r4, r5
24000f5e:	d00c      	beq.n	24000f7a <DMA_SetConfig+0x11e>
24000f60:	3518      	adds	r5, #24
24000f62:	42ac      	cmp	r4, r5
24000f64:	d009      	beq.n	24000f7a <DMA_SetConfig+0x11e>
24000f66:	4d1b      	ldr	r5, [pc, #108]	; (24000fd4 <DMA_SetConfig+0x178>)
24000f68:	42ac      	cmp	r4, r5
24000f6a:	d117      	bne.n	24000f9c <DMA_SetConfig+0x140>
24000f6c:	6dc5      	ldr	r5, [r0, #92]	; 0x5c
24000f6e:	f005 061f 	and.w	r6, r5, #31
24000f72:	2501      	movs	r5, #1
24000f74:	40b5      	lsls	r5, r6
24000f76:	607d      	str	r5, [r7, #4]
24000f78:	e009      	b.n	24000f8e <DMA_SetConfig+0x132>
24000f7a:	6dc5      	ldr	r5, [r0, #92]	; 0x5c
24000f7c:	f005 061f 	and.w	r6, r5, #31
24000f80:	253f      	movs	r5, #63	; 0x3f
24000f82:	40b5      	lsls	r5, r6
24000f84:	60bd      	str	r5, [r7, #8]
24000f86:	6825      	ldr	r5, [r4, #0]
24000f88:	f425 2580 	bic.w	r5, r5, #262144	; 0x40000
24000f8c:	6025      	str	r5, [r4, #0]
24000f8e:	6063      	str	r3, [r4, #4]
24000f90:	6883      	ldr	r3, [r0, #8]
24000f92:	2b40      	cmp	r3, #64	; 0x40
24000f94:	d118      	bne.n	24000fc8 <DMA_SetConfig+0x16c>
24000f96:	60a2      	str	r2, [r4, #8]
24000f98:	60e1      	str	r1, [r4, #12]
24000f9a:	e014      	b.n	24000fc6 <DMA_SetConfig+0x16a>
24000f9c:	4d0e      	ldr	r5, [pc, #56]	; (24000fd8 <DMA_SetConfig+0x17c>)
24000f9e:	42ac      	cmp	r4, r5
24000fa0:	d0e4      	beq.n	24000f6c <DMA_SetConfig+0x110>
24000fa2:	3514      	adds	r5, #20
24000fa4:	42ac      	cmp	r4, r5
24000fa6:	d0e1      	beq.n	24000f6c <DMA_SetConfig+0x110>
24000fa8:	3514      	adds	r5, #20
24000faa:	42ac      	cmp	r4, r5
24000fac:	d0de      	beq.n	24000f6c <DMA_SetConfig+0x110>
24000fae:	3514      	adds	r5, #20
24000fb0:	42ac      	cmp	r4, r5
24000fb2:	d0db      	beq.n	24000f6c <DMA_SetConfig+0x110>
24000fb4:	3514      	adds	r5, #20
24000fb6:	42ac      	cmp	r4, r5
24000fb8:	d0d8      	beq.n	24000f6c <DMA_SetConfig+0x110>
24000fba:	3514      	adds	r5, #20
24000fbc:	42ac      	cmp	r4, r5
24000fbe:	d0d5      	beq.n	24000f6c <DMA_SetConfig+0x110>
24000fc0:	3514      	adds	r5, #20
24000fc2:	42ac      	cmp	r4, r5
24000fc4:	d0d2      	beq.n	24000f6c <DMA_SetConfig+0x110>
24000fc6:	bdf0      	pop	{r4, r5, r6, r7, pc}
24000fc8:	60a1      	str	r1, [r4, #8]
24000fca:	60e2      	str	r2, [r4, #12]
24000fcc:	e7fb      	b.n	24000fc6 <DMA_SetConfig+0x16a>
24000fce:	bf00      	nop
24000fd0:	40020028 	.word	0x40020028
24000fd4:	58025408 	.word	0x58025408
24000fd8:	5802541c 	.word	0x5802541c
24000fdc:	40020010 	.word	0x40020010

24000fe0 <DMA_CalcBaseAndBitshift>:
24000fe0:	6803      	ldr	r3, [r0, #0]
24000fe2:	4a24      	ldr	r2, [pc, #144]	; (24001074 <DMA_CalcBaseAndBitshift+0x94>)
24000fe4:	4293      	cmp	r3, r2
24000fe6:	b510      	push	{r4, lr}
24000fe8:	d032      	beq.n	24001050 <DMA_CalcBaseAndBitshift+0x70>
24000fea:	3218      	adds	r2, #24
24000fec:	4293      	cmp	r3, r2
24000fee:	d02f      	beq.n	24001050 <DMA_CalcBaseAndBitshift+0x70>
24000ff0:	3218      	adds	r2, #24
24000ff2:	4293      	cmp	r3, r2
24000ff4:	d02c      	beq.n	24001050 <DMA_CalcBaseAndBitshift+0x70>
24000ff6:	3218      	adds	r2, #24
24000ff8:	4293      	cmp	r3, r2
24000ffa:	d029      	beq.n	24001050 <DMA_CalcBaseAndBitshift+0x70>
24000ffc:	3218      	adds	r2, #24
24000ffe:	4293      	cmp	r3, r2
24001000:	d026      	beq.n	24001050 <DMA_CalcBaseAndBitshift+0x70>
24001002:	3218      	adds	r2, #24
24001004:	4293      	cmp	r3, r2
24001006:	d023      	beq.n	24001050 <DMA_CalcBaseAndBitshift+0x70>
24001008:	3218      	adds	r2, #24
2400100a:	4293      	cmp	r3, r2
2400100c:	d020      	beq.n	24001050 <DMA_CalcBaseAndBitshift+0x70>
2400100e:	3218      	adds	r2, #24
24001010:	4293      	cmp	r3, r2
24001012:	d01d      	beq.n	24001050 <DMA_CalcBaseAndBitshift+0x70>
24001014:	f502 7256 	add.w	r2, r2, #856	; 0x358
24001018:	4293      	cmp	r3, r2
2400101a:	d019      	beq.n	24001050 <DMA_CalcBaseAndBitshift+0x70>
2400101c:	3218      	adds	r2, #24
2400101e:	4293      	cmp	r3, r2
24001020:	d016      	beq.n	24001050 <DMA_CalcBaseAndBitshift+0x70>
24001022:	3218      	adds	r2, #24
24001024:	4293      	cmp	r3, r2
24001026:	d013      	beq.n	24001050 <DMA_CalcBaseAndBitshift+0x70>
24001028:	3218      	adds	r2, #24
2400102a:	4293      	cmp	r3, r2
2400102c:	d010      	beq.n	24001050 <DMA_CalcBaseAndBitshift+0x70>
2400102e:	3218      	adds	r2, #24
24001030:	4293      	cmp	r3, r2
24001032:	d00d      	beq.n	24001050 <DMA_CalcBaseAndBitshift+0x70>
24001034:	3218      	adds	r2, #24
24001036:	4293      	cmp	r3, r2
24001038:	d00a      	beq.n	24001050 <DMA_CalcBaseAndBitshift+0x70>
2400103a:	3218      	adds	r2, #24
2400103c:	4293      	cmp	r3, r2
2400103e:	d007      	beq.n	24001050 <DMA_CalcBaseAndBitshift+0x70>
24001040:	3218      	adds	r2, #24
24001042:	4293      	cmp	r3, r2
24001044:	d004      	beq.n	24001050 <DMA_CalcBaseAndBitshift+0x70>
24001046:	f023 03ff 	bic.w	r3, r3, #255	; 0xff
2400104a:	6583      	str	r3, [r0, #88]	; 0x58
2400104c:	6d80      	ldr	r0, [r0, #88]	; 0x58
2400104e:	bd10      	pop	{r4, pc}
24001050:	b2d9      	uxtb	r1, r3
24001052:	2218      	movs	r2, #24
24001054:	4c08      	ldr	r4, [pc, #32]	; (24001078 <DMA_CalcBaseAndBitshift+0x98>)
24001056:	f423 737f 	bic.w	r3, r3, #1020	; 0x3fc
2400105a:	3910      	subs	r1, #16
2400105c:	f023 0303 	bic.w	r3, r3, #3
24001060:	295f      	cmp	r1, #95	; 0x5f
24001062:	fbb1 f2f2 	udiv	r2, r1, r2
24001066:	f002 0207 	and.w	r2, r2, #7
2400106a:	bf88      	it	hi
2400106c:	3304      	addhi	r3, #4
2400106e:	5ca2      	ldrb	r2, [r4, r2]
24001070:	65c2      	str	r2, [r0, #92]	; 0x5c
24001072:	e7ea      	b.n	2400104a <DMA_CalcBaseAndBitshift+0x6a>
24001074:	40020010 	.word	0x40020010
24001078:	2400c228 	.word	0x2400c228

2400107c <DMA_CalcDMAMUXChannelBaseAndMask>:
2400107c:	6802      	ldr	r2, [r0, #0]
2400107e:	491f      	ldr	r1, [pc, #124]	; (240010fc <DMA_CalcDMAMUXChannelBaseAndMask+0x80>)
24001080:	b2d3      	uxtb	r3, r2
24001082:	428a      	cmp	r2, r1
24001084:	d024      	beq.n	240010d0 <DMA_CalcDMAMUXChannelBaseAndMask+0x54>
24001086:	3114      	adds	r1, #20
24001088:	428a      	cmp	r2, r1
2400108a:	d021      	beq.n	240010d0 <DMA_CalcDMAMUXChannelBaseAndMask+0x54>
2400108c:	3114      	adds	r1, #20
2400108e:	428a      	cmp	r2, r1
24001090:	d01e      	beq.n	240010d0 <DMA_CalcDMAMUXChannelBaseAndMask+0x54>
24001092:	3114      	adds	r1, #20
24001094:	428a      	cmp	r2, r1
24001096:	d01b      	beq.n	240010d0 <DMA_CalcDMAMUXChannelBaseAndMask+0x54>
24001098:	3114      	adds	r1, #20
2400109a:	428a      	cmp	r2, r1
2400109c:	d018      	beq.n	240010d0 <DMA_CalcDMAMUXChannelBaseAndMask+0x54>
2400109e:	3114      	adds	r1, #20
240010a0:	428a      	cmp	r2, r1
240010a2:	d015      	beq.n	240010d0 <DMA_CalcDMAMUXChannelBaseAndMask+0x54>
240010a4:	3114      	adds	r1, #20
240010a6:	428a      	cmp	r2, r1
240010a8:	d012      	beq.n	240010d0 <DMA_CalcDMAMUXChannelBaseAndMask+0x54>
240010aa:	3114      	adds	r1, #20
240010ac:	428a      	cmp	r2, r1
240010ae:	d00f      	beq.n	240010d0 <DMA_CalcDMAMUXChannelBaseAndMask+0x54>
240010b0:	2118      	movs	r1, #24
240010b2:	3b10      	subs	r3, #16
240010b4:	fbb3 f3f1 	udiv	r3, r3, r1
240010b8:	4911      	ldr	r1, [pc, #68]	; (24001100 <DMA_CalcDMAMUXChannelBaseAndMask+0x84>)
240010ba:	4411      	add	r1, r2
240010bc:	29a8      	cmp	r1, #168	; 0xa8
240010be:	d91a      	bls.n	240010f6 <DMA_CalcDMAMUXChannelBaseAndMask+0x7a>
240010c0:	f103 5280 	add.w	r2, r3, #268435456	; 0x10000000
240010c4:	f502 4202 	add.w	r2, r2, #33280	; 0x8200
240010c8:	0092      	lsls	r2, r2, #2
240010ca:	6602      	str	r2, [r0, #96]	; 0x60
240010cc:	4a0d      	ldr	r2, [pc, #52]	; (24001104 <DMA_CalcDMAMUXChannelBaseAndMask+0x88>)
240010ce:	e00a      	b.n	240010e6 <DMA_CalcDMAMUXChannelBaseAndMask+0x6a>
240010d0:	2214      	movs	r2, #20
240010d2:	3b08      	subs	r3, #8
240010d4:	fbb3 f3f2 	udiv	r3, r3, r2
240010d8:	f103 52b0 	add.w	r2, r3, #369098752	; 0x16000000
240010dc:	f502 4216 	add.w	r2, r2, #38400	; 0x9600
240010e0:	0092      	lsls	r2, r2, #2
240010e2:	6602      	str	r2, [r0, #96]	; 0x60
240010e4:	4a08      	ldr	r2, [pc, #32]	; (24001108 <DMA_CalcDMAMUXChannelBaseAndMask+0x8c>)
240010e6:	f003 031f 	and.w	r3, r3, #31
240010ea:	6642      	str	r2, [r0, #100]	; 0x64
240010ec:	2201      	movs	r2, #1
240010ee:	fa02 f303 	lsl.w	r3, r2, r3
240010f2:	6683      	str	r3, [r0, #104]	; 0x68
240010f4:	4770      	bx	lr
240010f6:	3308      	adds	r3, #8
240010f8:	e7e2      	b.n	240010c0 <DMA_CalcDMAMUXChannelBaseAndMask+0x44>
240010fa:	bf00      	nop
240010fc:	58025408 	.word	0x58025408
24001100:	bffdfbf0 	.word	0xbffdfbf0
24001104:	40020880 	.word	0x40020880
24001108:	58025880 	.word	0x58025880

2400110c <DMA_CalcDMAMUXRequestGenBaseAndMask>:
2400110c:	7902      	ldrb	r2, [r0, #4]
2400110e:	1e51      	subs	r1, r2, #1
24001110:	2907      	cmp	r1, #7
24001112:	b510      	push	{r4, lr}
24001114:	d821      	bhi.n	2400115a <DMA_CalcDMAMUXRequestGenBaseAndMask+0x4e>
24001116:	6803      	ldr	r3, [r0, #0]
24001118:	4c13      	ldr	r4, [pc, #76]	; (24001168 <DMA_CalcDMAMUXRequestGenBaseAndMask+0x5c>)
2400111a:	42a3      	cmp	r3, r4
2400111c:	d01e      	beq.n	2400115c <DMA_CalcDMAMUXRequestGenBaseAndMask+0x50>
2400111e:	3414      	adds	r4, #20
24001120:	42a3      	cmp	r3, r4
24001122:	d01b      	beq.n	2400115c <DMA_CalcDMAMUXRequestGenBaseAndMask+0x50>
24001124:	3414      	adds	r4, #20
24001126:	42a3      	cmp	r3, r4
24001128:	d018      	beq.n	2400115c <DMA_CalcDMAMUXRequestGenBaseAndMask+0x50>
2400112a:	3414      	adds	r4, #20
2400112c:	42a3      	cmp	r3, r4
2400112e:	d015      	beq.n	2400115c <DMA_CalcDMAMUXRequestGenBaseAndMask+0x50>
24001130:	3414      	adds	r4, #20
24001132:	42a3      	cmp	r3, r4
24001134:	d012      	beq.n	2400115c <DMA_CalcDMAMUXRequestGenBaseAndMask+0x50>
24001136:	3414      	adds	r4, #20
24001138:	42a3      	cmp	r3, r4
2400113a:	d00f      	beq.n	2400115c <DMA_CalcDMAMUXRequestGenBaseAndMask+0x50>
2400113c:	3414      	adds	r4, #20
2400113e:	42a3      	cmp	r3, r4
24001140:	d00c      	beq.n	2400115c <DMA_CalcDMAMUXRequestGenBaseAndMask+0x50>
24001142:	3414      	adds	r4, #20
24001144:	42a3      	cmp	r3, r4
24001146:	d009      	beq.n	2400115c <DMA_CalcDMAMUXRequestGenBaseAndMask+0x50>
24001148:	4b08      	ldr	r3, [pc, #32]	; (2400116c <DMA_CalcDMAMUXRequestGenBaseAndMask+0x60>)
2400114a:	4413      	add	r3, r2
2400114c:	009b      	lsls	r3, r3, #2
2400114e:	66c3      	str	r3, [r0, #108]	; 0x6c
24001150:	4b07      	ldr	r3, [pc, #28]	; (24001170 <DMA_CalcDMAMUXRequestGenBaseAndMask+0x64>)
24001152:	6703      	str	r3, [r0, #112]	; 0x70
24001154:	2301      	movs	r3, #1
24001156:	408b      	lsls	r3, r1
24001158:	6743      	str	r3, [r0, #116]	; 0x74
2400115a:	bd10      	pop	{r4, pc}
2400115c:	4b05      	ldr	r3, [pc, #20]	; (24001174 <DMA_CalcDMAMUXRequestGenBaseAndMask+0x68>)
2400115e:	4413      	add	r3, r2
24001160:	009b      	lsls	r3, r3, #2
24001162:	66c3      	str	r3, [r0, #108]	; 0x6c
24001164:	4b04      	ldr	r3, [pc, #16]	; (24001178 <DMA_CalcDMAMUXRequestGenBaseAndMask+0x6c>)
24001166:	e7f4      	b.n	24001152 <DMA_CalcDMAMUXRequestGenBaseAndMask+0x46>
24001168:	58025408 	.word	0x58025408
2400116c:	1000823f 	.word	0x1000823f
24001170:	40020940 	.word	0x40020940
24001174:	1600963f 	.word	0x1600963f
24001178:	58025940 	.word	0x58025940

2400117c <HAL_DMA_Init>:
2400117c:	b5f8      	push	{r3, r4, r5, r6, r7, lr}
2400117e:	4604      	mov	r4, r0
24001180:	f7ff fb10 	bl	240007a4 <HAL_GetTick>
24001184:	4606      	mov	r6, r0
24001186:	2c00      	cmp	r4, #0
24001188:	f000 80e6 	beq.w	24001358 <HAL_DMA_Init+0x1dc>
2400118c:	6823      	ldr	r3, [r4, #0]
2400118e:	4d84      	ldr	r5, [pc, #528]	; (240013a0 <HAL_DMA_Init+0x224>)
24001190:	42ab      	cmp	r3, r5
24001192:	d06a      	beq.n	2400126a <HAL_DMA_Init+0xee>
24001194:	4a83      	ldr	r2, [pc, #524]	; (240013a4 <HAL_DMA_Init+0x228>)
24001196:	4293      	cmp	r3, r2
24001198:	d067      	beq.n	2400126a <HAL_DMA_Init+0xee>
2400119a:	3218      	adds	r2, #24
2400119c:	4293      	cmp	r3, r2
2400119e:	d064      	beq.n	2400126a <HAL_DMA_Init+0xee>
240011a0:	3218      	adds	r2, #24
240011a2:	4293      	cmp	r3, r2
240011a4:	d061      	beq.n	2400126a <HAL_DMA_Init+0xee>
240011a6:	3218      	adds	r2, #24
240011a8:	4293      	cmp	r3, r2
240011aa:	d05e      	beq.n	2400126a <HAL_DMA_Init+0xee>
240011ac:	3218      	adds	r2, #24
240011ae:	4293      	cmp	r3, r2
240011b0:	d05b      	beq.n	2400126a <HAL_DMA_Init+0xee>
240011b2:	3218      	adds	r2, #24
240011b4:	4293      	cmp	r3, r2
240011b6:	d058      	beq.n	2400126a <HAL_DMA_Init+0xee>
240011b8:	3218      	adds	r2, #24
240011ba:	4293      	cmp	r3, r2
240011bc:	d055      	beq.n	2400126a <HAL_DMA_Init+0xee>
240011be:	f502 7256 	add.w	r2, r2, #856	; 0x358
240011c2:	4293      	cmp	r3, r2
240011c4:	d051      	beq.n	2400126a <HAL_DMA_Init+0xee>
240011c6:	3218      	adds	r2, #24
240011c8:	4293      	cmp	r3, r2
240011ca:	d04e      	beq.n	2400126a <HAL_DMA_Init+0xee>
240011cc:	3218      	adds	r2, #24
240011ce:	4293      	cmp	r3, r2
240011d0:	d04b      	beq.n	2400126a <HAL_DMA_Init+0xee>
240011d2:	3218      	adds	r2, #24
240011d4:	4293      	cmp	r3, r2
240011d6:	d048      	beq.n	2400126a <HAL_DMA_Init+0xee>
240011d8:	3218      	adds	r2, #24
240011da:	4293      	cmp	r3, r2
240011dc:	d045      	beq.n	2400126a <HAL_DMA_Init+0xee>
240011de:	3218      	adds	r2, #24
240011e0:	4293      	cmp	r3, r2
240011e2:	d042      	beq.n	2400126a <HAL_DMA_Init+0xee>
240011e4:	3218      	adds	r2, #24
240011e6:	4293      	cmp	r3, r2
240011e8:	d03f      	beq.n	2400126a <HAL_DMA_Init+0xee>
240011ea:	3218      	adds	r2, #24
240011ec:	4293      	cmp	r3, r2
240011ee:	d03c      	beq.n	2400126a <HAL_DMA_Init+0xee>
240011f0:	4a6d      	ldr	r2, [pc, #436]	; (240013a8 <HAL_DMA_Init+0x22c>)
240011f2:	4293      	cmp	r3, r2
240011f4:	f040 8159 	bne.w	240014aa <HAL_DMA_Init+0x32e>
240011f8:	2200      	movs	r2, #0
240011fa:	f884 2034 	strb.w	r2, [r4, #52]	; 0x34
240011fe:	2202      	movs	r2, #2
24001200:	f884 2035 	strb.w	r2, [r4, #53]	; 0x35
24001204:	68a2      	ldr	r2, [r4, #8]
24001206:	6819      	ldr	r1, [r3, #0]
24001208:	2a40      	cmp	r2, #64	; 0x40
2400120a:	f421 31ff 	bic.w	r1, r1, #130560	; 0x1fe00
2400120e:	f421 71f8 	bic.w	r1, r1, #496	; 0x1f0
24001212:	f000 8168 	beq.w	240014e6 <HAL_DMA_Init+0x36a>
24001216:	2a80      	cmp	r2, #128	; 0x80
24001218:	bf0c      	ite	eq
2400121a:	f44f 4080 	moveq.w	r0, #16384	; 0x4000
2400121e:	2000      	movne	r0, #0
24001220:	e9d4 6203 	ldrd	r6, r2, [r4, #12]
24001224:	08d2      	lsrs	r2, r2, #3
24001226:	ea42 02d6 	orr.w	r2, r2, r6, lsr #3
2400122a:	6966      	ldr	r6, [r4, #20]
2400122c:	ea42 02d6 	orr.w	r2, r2, r6, lsr #3
24001230:	69a6      	ldr	r6, [r4, #24]
24001232:	ea42 02d6 	orr.w	r2, r2, r6, lsr #3
24001236:	69e6      	ldr	r6, [r4, #28]
24001238:	ea42 02d6 	orr.w	r2, r2, r6, lsr #3
2400123c:	6a26      	ldr	r6, [r4, #32]
2400123e:	ea42 1216 	orr.w	r2, r2, r6, lsr #4
24001242:	430a      	orrs	r2, r1
24001244:	4302      	orrs	r2, r0
24001246:	4620      	mov	r0, r4
24001248:	601a      	str	r2, [r3, #0]
2400124a:	4a58      	ldr	r2, [pc, #352]	; (240013ac <HAL_DMA_Init+0x230>)
2400124c:	441a      	add	r2, r3
2400124e:	2314      	movs	r3, #20
24001250:	fbb2 f2f3 	udiv	r2, r2, r3
24001254:	0092      	lsls	r2, r2, #2
24001256:	65e2      	str	r2, [r4, #92]	; 0x5c
24001258:	f7ff fec2 	bl	24000fe0 <DMA_CalcBaseAndBitshift>
2400125c:	6de3      	ldr	r3, [r4, #92]	; 0x5c
2400125e:	f003 021f 	and.w	r2, r3, #31
24001262:	2301      	movs	r3, #1
24001264:	4093      	lsls	r3, r2
24001266:	6043      	str	r3, [r0, #4]
24001268:	e0b6      	b.n	240013d8 <HAL_DMA_Init+0x25c>
2400126a:	2200      	movs	r2, #0
2400126c:	42ab      	cmp	r3, r5
2400126e:	f884 2034 	strb.w	r2, [r4, #52]	; 0x34
24001272:	f04f 0202 	mov.w	r2, #2
24001276:	f884 2035 	strb.w	r2, [r4, #53]	; 0x35
2400127a:	d01e      	beq.n	240012ba <HAL_DMA_Init+0x13e>
2400127c:	4a49      	ldr	r2, [pc, #292]	; (240013a4 <HAL_DMA_Init+0x228>)
2400127e:	4293      	cmp	r3, r2
24001280:	d01b      	beq.n	240012ba <HAL_DMA_Init+0x13e>
24001282:	3218      	adds	r2, #24
24001284:	4293      	cmp	r3, r2
24001286:	d018      	beq.n	240012ba <HAL_DMA_Init+0x13e>
24001288:	3218      	adds	r2, #24
2400128a:	4293      	cmp	r3, r2
2400128c:	d015      	beq.n	240012ba <HAL_DMA_Init+0x13e>
2400128e:	3218      	adds	r2, #24
24001290:	4293      	cmp	r3, r2
24001292:	d012      	beq.n	240012ba <HAL_DMA_Init+0x13e>
24001294:	3218      	adds	r2, #24
24001296:	4293      	cmp	r3, r2
24001298:	d00f      	beq.n	240012ba <HAL_DMA_Init+0x13e>
2400129a:	3218      	adds	r2, #24
2400129c:	4293      	cmp	r3, r2
2400129e:	d00c      	beq.n	240012ba <HAL_DMA_Init+0x13e>
240012a0:	3218      	adds	r2, #24
240012a2:	4293      	cmp	r3, r2
240012a4:	d009      	beq.n	240012ba <HAL_DMA_Init+0x13e>
240012a6:	f502 7256 	add.w	r2, r2, #856	; 0x358
240012aa:	4293      	cmp	r3, r2
240012ac:	d005      	beq.n	240012ba <HAL_DMA_Init+0x13e>
240012ae:	3218      	adds	r2, #24
240012b0:	4293      	cmp	r3, r2
240012b2:	d002      	beq.n	240012ba <HAL_DMA_Init+0x13e>
240012b4:	3218      	adds	r2, #24
240012b6:	4293      	cmp	r3, r2
240012b8:	d0ff      	beq.n	240012ba <HAL_DMA_Init+0x13e>
240012ba:	681a      	ldr	r2, [r3, #0]
240012bc:	f022 0201 	bic.w	r2, r2, #1
240012c0:	601a      	str	r2, [r3, #0]
240012c2:	6821      	ldr	r1, [r4, #0]
240012c4:	680b      	ldr	r3, [r1, #0]
240012c6:	07db      	lsls	r3, r3, #31
240012c8:	d43c      	bmi.n	24001344 <HAL_DMA_Init+0x1c8>
240012ca:	680b      	ldr	r3, [r1, #0]
240012cc:	4e38      	ldr	r6, [pc, #224]	; (240013b0 <HAL_DMA_Init+0x234>)
240012ce:	69a0      	ldr	r0, [r4, #24]
240012d0:	401e      	ands	r6, r3
240012d2:	e9d4 2302 	ldrd	r2, r3, [r4, #8]
240012d6:	4313      	orrs	r3, r2
240012d8:	6922      	ldr	r2, [r4, #16]
240012da:	4313      	orrs	r3, r2
240012dc:	6962      	ldr	r2, [r4, #20]
240012de:	4313      	orrs	r3, r2
240012e0:	69e2      	ldr	r2, [r4, #28]
240012e2:	4303      	orrs	r3, r0
240012e4:	4313      	orrs	r3, r2
240012e6:	6a22      	ldr	r2, [r4, #32]
240012e8:	4313      	orrs	r3, r2
240012ea:	4333      	orrs	r3, r6
240012ec:	6a66      	ldr	r6, [r4, #36]	; 0x24
240012ee:	2e04      	cmp	r6, #4
240012f0:	bf02      	ittt	eq
240012f2:	e9d4 270b 	ldrdeq	r2, r7, [r4, #44]	; 0x2c
240012f6:	433a      	orreq	r2, r7
240012f8:	4313      	orreq	r3, r2
240012fa:	4a2e      	ldr	r2, [pc, #184]	; (240013b4 <HAL_DMA_Init+0x238>)
240012fc:	6812      	ldr	r2, [r2, #0]
240012fe:	0c12      	lsrs	r2, r2, #16
24001300:	0412      	lsls	r2, r2, #16
24001302:	f1b2 5f00 	cmp.w	r2, #536870912	; 0x20000000
24001306:	d307      	bcc.n	24001318 <HAL_DMA_Init+0x19c>
24001308:	6862      	ldr	r2, [r4, #4]
2400130a:	f1a2 0729 	sub.w	r7, r2, #41	; 0x29
2400130e:	2f1f      	cmp	r7, #31
24001310:	d924      	bls.n	2400135c <HAL_DMA_Init+0x1e0>
24001312:	3a4f      	subs	r2, #79	; 0x4f
24001314:	2a03      	cmp	r2, #3
24001316:	d925      	bls.n	24001364 <HAL_DMA_Init+0x1e8>
24001318:	600b      	str	r3, [r1, #0]
2400131a:	2e04      	cmp	r6, #4
2400131c:	694b      	ldr	r3, [r1, #20]
2400131e:	f023 0307 	bic.w	r3, r3, #7
24001322:	ea43 0306 	orr.w	r3, r3, r6
24001326:	d14d      	bne.n	240013c4 <HAL_DMA_Init+0x248>
24001328:	6aa2      	ldr	r2, [r4, #40]	; 0x28
2400132a:	6ae6      	ldr	r6, [r4, #44]	; 0x2c
2400132c:	4313      	orrs	r3, r2
2400132e:	2e00      	cmp	r6, #0
24001330:	d048      	beq.n	240013c4 <HAL_DMA_Init+0x248>
24001332:	b9d0      	cbnz	r0, 2400136a <HAL_DMA_Init+0x1ee>
24001334:	2a01      	cmp	r2, #1
24001336:	d029      	beq.n	2400138c <HAL_DMA_Init+0x210>
24001338:	f032 0202 	bics.w	r2, r2, #2
2400133c:	d142      	bne.n	240013c4 <HAL_DMA_Init+0x248>
2400133e:	01f2      	lsls	r2, r6, #7
24001340:	d540      	bpl.n	240013c4 <HAL_DMA_Init+0x248>
24001342:	e026      	b.n	24001392 <HAL_DMA_Init+0x216>
24001344:	f7ff fa2e 	bl	240007a4 <HAL_GetTick>
24001348:	1b80      	subs	r0, r0, r6
2400134a:	2805      	cmp	r0, #5
2400134c:	d9b9      	bls.n	240012c2 <HAL_DMA_Init+0x146>
2400134e:	2320      	movs	r3, #32
24001350:	6563      	str	r3, [r4, #84]	; 0x54
24001352:	2303      	movs	r3, #3
24001354:	f884 3035 	strb.w	r3, [r4, #53]	; 0x35
24001358:	2001      	movs	r0, #1
2400135a:	e01f      	b.n	2400139c <HAL_DMA_Init+0x220>
2400135c:	4a16      	ldr	r2, [pc, #88]	; (240013b8 <HAL_DMA_Init+0x23c>)
2400135e:	40fa      	lsrs	r2, r7
24001360:	07d7      	lsls	r7, r2, #31
24001362:	d5d9      	bpl.n	24001318 <HAL_DMA_Init+0x19c>
24001364:	f443 1380 	orr.w	r3, r3, #1048576	; 0x100000
24001368:	e7d6      	b.n	24001318 <HAL_DMA_Init+0x19c>
2400136a:	f5b0 5f00 	cmp.w	r0, #8192	; 0x2000
2400136e:	d125      	bne.n	240013bc <HAL_DMA_Init+0x240>
24001370:	2a03      	cmp	r2, #3
24001372:	d827      	bhi.n	240013c4 <HAL_DMA_Init+0x248>
24001374:	a001      	add	r0, pc, #4	; (adr r0, 2400137c <HAL_DMA_Init+0x200>)
24001376:	f850 f022 	ldr.w	pc, [r0, r2, lsl #2]
2400137a:	bf00      	nop
2400137c:	24001393 	.word	0x24001393
24001380:	2400133f 	.word	0x2400133f
24001384:	24001393 	.word	0x24001393
24001388:	2400138d 	.word	0x2400138d
2400138c:	f1b6 7fc0 	cmp.w	r6, #25165824	; 0x1800000
24001390:	d118      	bne.n	240013c4 <HAL_DMA_Init+0x248>
24001392:	2340      	movs	r3, #64	; 0x40
24001394:	2001      	movs	r0, #1
24001396:	6563      	str	r3, [r4, #84]	; 0x54
24001398:	f884 0035 	strb.w	r0, [r4, #53]	; 0x35
2400139c:	bdf8      	pop	{r3, r4, r5, r6, r7, pc}
2400139e:	bf00      	nop
240013a0:	40020010 	.word	0x40020010
240013a4:	40020028 	.word	0x40020028
240013a8:	58025408 	.word	0x58025408
240013ac:	a7fdabf8 	.word	0xa7fdabf8
240013b0:	fe10803f 	.word	0xfe10803f
240013b4:	5c001000 	.word	0x5c001000
240013b8:	c3c0003f 	.word	0xc3c0003f
240013bc:	2a02      	cmp	r2, #2
240013be:	d9e8      	bls.n	24001392 <HAL_DMA_Init+0x216>
240013c0:	2a03      	cmp	r2, #3
240013c2:	d0bc      	beq.n	2400133e <HAL_DMA_Init+0x1c2>
240013c4:	614b      	str	r3, [r1, #20]
240013c6:	4620      	mov	r0, r4
240013c8:	f7ff fe0a 	bl	24000fe0 <DMA_CalcBaseAndBitshift>
240013cc:	6de3      	ldr	r3, [r4, #92]	; 0x5c
240013ce:	f003 021f 	and.w	r2, r3, #31
240013d2:	233f      	movs	r3, #63	; 0x3f
240013d4:	4093      	lsls	r3, r2
240013d6:	6083      	str	r3, [r0, #8]
240013d8:	6823      	ldr	r3, [r4, #0]
240013da:	42ab      	cmp	r3, r5
240013dc:	d045      	beq.n	2400146a <HAL_DMA_Init+0x2ee>
240013de:	4a45      	ldr	r2, [pc, #276]	; (240014f4 <HAL_DMA_Init+0x378>)
240013e0:	4293      	cmp	r3, r2
240013e2:	d042      	beq.n	2400146a <HAL_DMA_Init+0x2ee>
240013e4:	3218      	adds	r2, #24
240013e6:	4293      	cmp	r3, r2
240013e8:	d03f      	beq.n	2400146a <HAL_DMA_Init+0x2ee>
240013ea:	3218      	adds	r2, #24
240013ec:	4293      	cmp	r3, r2
240013ee:	d03c      	beq.n	2400146a <HAL_DMA_Init+0x2ee>
240013f0:	3218      	adds	r2, #24
240013f2:	4293      	cmp	r3, r2
240013f4:	d039      	beq.n	2400146a <HAL_DMA_Init+0x2ee>
240013f6:	3218      	adds	r2, #24
240013f8:	4293      	cmp	r3, r2
240013fa:	d036      	beq.n	2400146a <HAL_DMA_Init+0x2ee>
240013fc:	3218      	adds	r2, #24
240013fe:	4293      	cmp	r3, r2
24001400:	d033      	beq.n	2400146a <HAL_DMA_Init+0x2ee>
24001402:	3218      	adds	r2, #24
24001404:	4293      	cmp	r3, r2
24001406:	d030      	beq.n	2400146a <HAL_DMA_Init+0x2ee>
24001408:	f502 7256 	add.w	r2, r2, #856	; 0x358
2400140c:	4293      	cmp	r3, r2
2400140e:	d02c      	beq.n	2400146a <HAL_DMA_Init+0x2ee>
24001410:	3218      	adds	r2, #24
24001412:	4293      	cmp	r3, r2
24001414:	d029      	beq.n	2400146a <HAL_DMA_Init+0x2ee>
24001416:	3218      	adds	r2, #24
24001418:	4293      	cmp	r3, r2
2400141a:	d026      	beq.n	2400146a <HAL_DMA_Init+0x2ee>
2400141c:	3218      	adds	r2, #24
2400141e:	4293      	cmp	r3, r2
24001420:	d023      	beq.n	2400146a <HAL_DMA_Init+0x2ee>
24001422:	3218      	adds	r2, #24
24001424:	4293      	cmp	r3, r2
24001426:	d020      	beq.n	2400146a <HAL_DMA_Init+0x2ee>
24001428:	3218      	adds	r2, #24
2400142a:	4293      	cmp	r3, r2
2400142c:	d01d      	beq.n	2400146a <HAL_DMA_Init+0x2ee>
2400142e:	3218      	adds	r2, #24
24001430:	4293      	cmp	r3, r2
24001432:	d01a      	beq.n	2400146a <HAL_DMA_Init+0x2ee>
24001434:	3218      	adds	r2, #24
24001436:	4293      	cmp	r3, r2
24001438:	d017      	beq.n	2400146a <HAL_DMA_Init+0x2ee>
2400143a:	4a2f      	ldr	r2, [pc, #188]	; (240014f8 <HAL_DMA_Init+0x37c>)
2400143c:	4293      	cmp	r3, r2
2400143e:	d014      	beq.n	2400146a <HAL_DMA_Init+0x2ee>
24001440:	3214      	adds	r2, #20
24001442:	4293      	cmp	r3, r2
24001444:	d011      	beq.n	2400146a <HAL_DMA_Init+0x2ee>
24001446:	3214      	adds	r2, #20
24001448:	4293      	cmp	r3, r2
2400144a:	d00e      	beq.n	2400146a <HAL_DMA_Init+0x2ee>
2400144c:	3214      	adds	r2, #20
2400144e:	4293      	cmp	r3, r2
24001450:	d00b      	beq.n	2400146a <HAL_DMA_Init+0x2ee>
24001452:	3214      	adds	r2, #20
24001454:	4293      	cmp	r3, r2
24001456:	d008      	beq.n	2400146a <HAL_DMA_Init+0x2ee>
24001458:	3214      	adds	r2, #20
2400145a:	4293      	cmp	r3, r2
2400145c:	d005      	beq.n	2400146a <HAL_DMA_Init+0x2ee>
2400145e:	3214      	adds	r2, #20
24001460:	4293      	cmp	r3, r2
24001462:	d002      	beq.n	2400146a <HAL_DMA_Init+0x2ee>
24001464:	3214      	adds	r2, #20
24001466:	4293      	cmp	r3, r2
24001468:	d119      	bne.n	2400149e <HAL_DMA_Init+0x322>
2400146a:	4620      	mov	r0, r4
2400146c:	2500      	movs	r5, #0
2400146e:	f7ff fe05 	bl	2400107c <DMA_CalcDMAMUXChannelBaseAndMask>
24001472:	68a3      	ldr	r3, [r4, #8]
24001474:	6e22      	ldr	r2, [r4, #96]	; 0x60
24001476:	2b80      	cmp	r3, #128	; 0x80
24001478:	bf04      	itt	eq
2400147a:	2300      	moveq	r3, #0
2400147c:	6063      	streq	r3, [r4, #4]
2400147e:	6863      	ldr	r3, [r4, #4]
24001480:	b2d9      	uxtb	r1, r3
24001482:	3b01      	subs	r3, #1
24001484:	6011      	str	r1, [r2, #0]
24001486:	2b07      	cmp	r3, #7
24001488:	e9d4 2119 	ldrd	r2, r1, [r4, #100]	; 0x64
2400148c:	6051      	str	r1, [r2, #4]
2400148e:	d82c      	bhi.n	240014ea <HAL_DMA_Init+0x36e>
24001490:	f7ff fe3c 	bl	2400110c <DMA_CalcDMAMUXRequestGenBaseAndMask>
24001494:	6ee3      	ldr	r3, [r4, #108]	; 0x6c
24001496:	601d      	str	r5, [r3, #0]
24001498:	e9d4 321c 	ldrd	r3, r2, [r4, #112]	; 0x70
2400149c:	605a      	str	r2, [r3, #4]
2400149e:	2000      	movs	r0, #0
240014a0:	2301      	movs	r3, #1
240014a2:	6560      	str	r0, [r4, #84]	; 0x54
240014a4:	f884 3035 	strb.w	r3, [r4, #53]	; 0x35
240014a8:	e778      	b.n	2400139c <HAL_DMA_Init+0x220>
240014aa:	4a14      	ldr	r2, [pc, #80]	; (240014fc <HAL_DMA_Init+0x380>)
240014ac:	4293      	cmp	r3, r2
240014ae:	f43f aea3 	beq.w	240011f8 <HAL_DMA_Init+0x7c>
240014b2:	3214      	adds	r2, #20
240014b4:	4293      	cmp	r3, r2
240014b6:	f43f ae9f 	beq.w	240011f8 <HAL_DMA_Init+0x7c>
240014ba:	3214      	adds	r2, #20
240014bc:	4293      	cmp	r3, r2
240014be:	f43f ae9b 	beq.w	240011f8 <HAL_DMA_Init+0x7c>
240014c2:	3214      	adds	r2, #20
240014c4:	4293      	cmp	r3, r2
240014c6:	f43f ae97 	beq.w	240011f8 <HAL_DMA_Init+0x7c>
240014ca:	3214      	adds	r2, #20
240014cc:	4293      	cmp	r3, r2
240014ce:	f43f ae93 	beq.w	240011f8 <HAL_DMA_Init+0x7c>
240014d2:	3214      	adds	r2, #20
240014d4:	4293      	cmp	r3, r2
240014d6:	f43f ae8f 	beq.w	240011f8 <HAL_DMA_Init+0x7c>
240014da:	3214      	adds	r2, #20
240014dc:	4293      	cmp	r3, r2
240014de:	f43f ae8b 	beq.w	240011f8 <HAL_DMA_Init+0x7c>
240014e2:	2340      	movs	r3, #64	; 0x40
240014e4:	e734      	b.n	24001350 <HAL_DMA_Init+0x1d4>
240014e6:	2010      	movs	r0, #16
240014e8:	e69a      	b.n	24001220 <HAL_DMA_Init+0xa4>
240014ea:	e9c4 551b 	strd	r5, r5, [r4, #108]	; 0x6c
240014ee:	6765      	str	r5, [r4, #116]	; 0x74
240014f0:	e7d5      	b.n	2400149e <HAL_DMA_Init+0x322>
240014f2:	bf00      	nop
240014f4:	40020028 	.word	0x40020028
240014f8:	58025408 	.word	0x58025408
240014fc:	5802541c 	.word	0x5802541c

24001500 <HAL_DMA_DeInit>:
24001500:	b538      	push	{r3, r4, r5, lr}
24001502:	4604      	mov	r4, r0
24001504:	b908      	cbnz	r0, 2400150a <HAL_DMA_DeInit+0xa>
24001506:	2001      	movs	r0, #1
24001508:	bd38      	pop	{r3, r4, r5, pc}
2400150a:	6803      	ldr	r3, [r0, #0]
2400150c:	4d93      	ldr	r5, [pc, #588]	; (2400175c <HAL_DMA_DeInit+0x25c>)
2400150e:	42ab      	cmp	r3, r5
24001510:	d02e      	beq.n	24001570 <HAL_DMA_DeInit+0x70>
24001512:	4a93      	ldr	r2, [pc, #588]	; (24001760 <HAL_DMA_DeInit+0x260>)
24001514:	4293      	cmp	r3, r2
24001516:	d02b      	beq.n	24001570 <HAL_DMA_DeInit+0x70>
24001518:	3218      	adds	r2, #24
2400151a:	4293      	cmp	r3, r2
2400151c:	d028      	beq.n	24001570 <HAL_DMA_DeInit+0x70>
2400151e:	3218      	adds	r2, #24
24001520:	4293      	cmp	r3, r2
24001522:	d025      	beq.n	24001570 <HAL_DMA_DeInit+0x70>
24001524:	3218      	adds	r2, #24
24001526:	4293      	cmp	r3, r2
24001528:	d022      	beq.n	24001570 <HAL_DMA_DeInit+0x70>
2400152a:	3218      	adds	r2, #24
2400152c:	4293      	cmp	r3, r2
2400152e:	d01f      	beq.n	24001570 <HAL_DMA_DeInit+0x70>
24001530:	3218      	adds	r2, #24
24001532:	4293      	cmp	r3, r2
24001534:	d01c      	beq.n	24001570 <HAL_DMA_DeInit+0x70>
24001536:	3218      	adds	r2, #24
24001538:	4293      	cmp	r3, r2
2400153a:	d019      	beq.n	24001570 <HAL_DMA_DeInit+0x70>
2400153c:	f502 7256 	add.w	r2, r2, #856	; 0x358
24001540:	4293      	cmp	r3, r2
24001542:	d015      	beq.n	24001570 <HAL_DMA_DeInit+0x70>
24001544:	3218      	adds	r2, #24
24001546:	4293      	cmp	r3, r2
24001548:	d012      	beq.n	24001570 <HAL_DMA_DeInit+0x70>
2400154a:	3218      	adds	r2, #24
2400154c:	4293      	cmp	r3, r2
2400154e:	d00f      	beq.n	24001570 <HAL_DMA_DeInit+0x70>
24001550:	3218      	adds	r2, #24
24001552:	4293      	cmp	r3, r2
24001554:	d00c      	beq.n	24001570 <HAL_DMA_DeInit+0x70>
24001556:	3218      	adds	r2, #24
24001558:	4293      	cmp	r3, r2
2400155a:	d009      	beq.n	24001570 <HAL_DMA_DeInit+0x70>
2400155c:	3218      	adds	r2, #24
2400155e:	4293      	cmp	r3, r2
24001560:	d006      	beq.n	24001570 <HAL_DMA_DeInit+0x70>
24001562:	3218      	adds	r2, #24
24001564:	4293      	cmp	r3, r2
24001566:	d003      	beq.n	24001570 <HAL_DMA_DeInit+0x70>
24001568:	3218      	adds	r2, #24
2400156a:	4293      	cmp	r3, r2
2400156c:	f040 8089 	bne.w	24001682 <HAL_DMA_DeInit+0x182>
24001570:	681a      	ldr	r2, [r3, #0]
24001572:	42ab      	cmp	r3, r5
24001574:	f022 0201 	bic.w	r2, r2, #1
24001578:	601a      	str	r2, [r3, #0]
2400157a:	f040 8099 	bne.w	240016b0 <HAL_DMA_DeInit+0x1b0>
2400157e:	2200      	movs	r2, #0
24001580:	4620      	mov	r0, r4
24001582:	601a      	str	r2, [r3, #0]
24001584:	605a      	str	r2, [r3, #4]
24001586:	609a      	str	r2, [r3, #8]
24001588:	60da      	str	r2, [r3, #12]
2400158a:	611a      	str	r2, [r3, #16]
2400158c:	2221      	movs	r2, #33	; 0x21
2400158e:	615a      	str	r2, [r3, #20]
24001590:	f7ff fd26 	bl	24000fe0 <DMA_CalcBaseAndBitshift>
24001594:	6de3      	ldr	r3, [r4, #92]	; 0x5c
24001596:	f003 021f 	and.w	r2, r3, #31
2400159a:	233f      	movs	r3, #63	; 0x3f
2400159c:	4093      	lsls	r3, r2
2400159e:	6083      	str	r3, [r0, #8]
240015a0:	6823      	ldr	r3, [r4, #0]
240015a2:	42ab      	cmp	r3, r5
240015a4:	d045      	beq.n	24001632 <HAL_DMA_DeInit+0x132>
240015a6:	4a6e      	ldr	r2, [pc, #440]	; (24001760 <HAL_DMA_DeInit+0x260>)
240015a8:	4293      	cmp	r3, r2
240015aa:	d042      	beq.n	24001632 <HAL_DMA_DeInit+0x132>
240015ac:	3218      	adds	r2, #24
240015ae:	4293      	cmp	r3, r2
240015b0:	d03f      	beq.n	24001632 <HAL_DMA_DeInit+0x132>
240015b2:	3218      	adds	r2, #24
240015b4:	4293      	cmp	r3, r2
240015b6:	d03c      	beq.n	24001632 <HAL_DMA_DeInit+0x132>
240015b8:	3218      	adds	r2, #24
240015ba:	4293      	cmp	r3, r2
240015bc:	d039      	beq.n	24001632 <HAL_DMA_DeInit+0x132>
240015be:	3218      	adds	r2, #24
240015c0:	4293      	cmp	r3, r2
240015c2:	d036      	beq.n	24001632 <HAL_DMA_DeInit+0x132>
240015c4:	3218      	adds	r2, #24
240015c6:	4293      	cmp	r3, r2
240015c8:	d033      	beq.n	24001632 <HAL_DMA_DeInit+0x132>
240015ca:	3218      	adds	r2, #24
240015cc:	4293      	cmp	r3, r2
240015ce:	d030      	beq.n	24001632 <HAL_DMA_DeInit+0x132>
240015d0:	f502 7256 	add.w	r2, r2, #856	; 0x358
240015d4:	4293      	cmp	r3, r2
240015d6:	d02c      	beq.n	24001632 <HAL_DMA_DeInit+0x132>
240015d8:	3218      	adds	r2, #24
240015da:	4293      	cmp	r3, r2
240015dc:	d029      	beq.n	24001632 <HAL_DMA_DeInit+0x132>
240015de:	3218      	adds	r2, #24
240015e0:	4293      	cmp	r3, r2
240015e2:	d026      	beq.n	24001632 <HAL_DMA_DeInit+0x132>
240015e4:	3218      	adds	r2, #24
240015e6:	4293      	cmp	r3, r2
240015e8:	d023      	beq.n	24001632 <HAL_DMA_DeInit+0x132>
240015ea:	3218      	adds	r2, #24
240015ec:	4293      	cmp	r3, r2
240015ee:	d020      	beq.n	24001632 <HAL_DMA_DeInit+0x132>
240015f0:	3218      	adds	r2, #24
240015f2:	4293      	cmp	r3, r2
240015f4:	d01d      	beq.n	24001632 <HAL_DMA_DeInit+0x132>
240015f6:	3218      	adds	r2, #24
240015f8:	4293      	cmp	r3, r2
240015fa:	d01a      	beq.n	24001632 <HAL_DMA_DeInit+0x132>
240015fc:	3218      	adds	r2, #24
240015fe:	4293      	cmp	r3, r2
24001600:	d017      	beq.n	24001632 <HAL_DMA_DeInit+0x132>
24001602:	4a58      	ldr	r2, [pc, #352]	; (24001764 <HAL_DMA_DeInit+0x264>)
24001604:	4293      	cmp	r3, r2
24001606:	d014      	beq.n	24001632 <HAL_DMA_DeInit+0x132>
24001608:	3214      	adds	r2, #20
2400160a:	4293      	cmp	r3, r2
2400160c:	d011      	beq.n	24001632 <HAL_DMA_DeInit+0x132>
2400160e:	3214      	adds	r2, #20
24001610:	4293      	cmp	r3, r2
24001612:	d00e      	beq.n	24001632 <HAL_DMA_DeInit+0x132>
24001614:	3214      	adds	r2, #20
24001616:	4293      	cmp	r3, r2
24001618:	d00b      	beq.n	24001632 <HAL_DMA_DeInit+0x132>
2400161a:	3214      	adds	r2, #20
2400161c:	4293      	cmp	r3, r2
2400161e:	d008      	beq.n	24001632 <HAL_DMA_DeInit+0x132>
24001620:	3214      	adds	r2, #20
24001622:	4293      	cmp	r3, r2
24001624:	d005      	beq.n	24001632 <HAL_DMA_DeInit+0x132>
24001626:	3214      	adds	r2, #20
24001628:	4293      	cmp	r3, r2
2400162a:	d002      	beq.n	24001632 <HAL_DMA_DeInit+0x132>
2400162c:	3214      	adds	r2, #20
2400162e:	4293      	cmp	r3, r2
24001630:	d11a      	bne.n	24001668 <HAL_DMA_DeInit+0x168>
24001632:	4620      	mov	r0, r4
24001634:	f7ff fd22 	bl	2400107c <DMA_CalcDMAMUXChannelBaseAndMask>
24001638:	6e23      	ldr	r3, [r4, #96]	; 0x60
2400163a:	b123      	cbz	r3, 24001646 <HAL_DMA_DeInit+0x146>
2400163c:	2200      	movs	r2, #0
2400163e:	601a      	str	r2, [r3, #0]
24001640:	e9d4 3219 	ldrd	r3, r2, [r4, #100]	; 0x64
24001644:	605a      	str	r2, [r3, #4]
24001646:	6863      	ldr	r3, [r4, #4]
24001648:	3b01      	subs	r3, #1
2400164a:	2b07      	cmp	r3, #7
2400164c:	d808      	bhi.n	24001660 <HAL_DMA_DeInit+0x160>
2400164e:	4620      	mov	r0, r4
24001650:	f7ff fd5c 	bl	2400110c <DMA_CalcDMAMUXRequestGenBaseAndMask>
24001654:	6ee3      	ldr	r3, [r4, #108]	; 0x6c
24001656:	2200      	movs	r2, #0
24001658:	601a      	str	r2, [r3, #0]
2400165a:	e9d4 321c 	ldrd	r3, r2, [r4, #112]	; 0x70
2400165e:	605a      	str	r2, [r3, #4]
24001660:	2300      	movs	r3, #0
24001662:	e9c4 331b 	strd	r3, r3, [r4, #108]	; 0x6c
24001666:	6763      	str	r3, [r4, #116]	; 0x74
24001668:	2000      	movs	r0, #0
2400166a:	6560      	str	r0, [r4, #84]	; 0x54
2400166c:	f884 0034 	strb.w	r0, [r4, #52]	; 0x34
24001670:	f884 0035 	strb.w	r0, [r4, #53]	; 0x35
24001674:	e9c4 000f 	strd	r0, r0, [r4, #60]	; 0x3c
24001678:	e9c4 0011 	strd	r0, r0, [r4, #68]	; 0x44
2400167c:	e9c4 0013 	strd	r0, r0, [r4, #76]	; 0x4c
24001680:	e742      	b.n	24001508 <HAL_DMA_DeInit+0x8>
24001682:	681a      	ldr	r2, [r3, #0]
24001684:	f022 0201 	bic.w	r2, r2, #1
24001688:	601a      	str	r2, [r3, #0]
2400168a:	4a36      	ldr	r2, [pc, #216]	; (24001764 <HAL_DMA_DeInit+0x264>)
2400168c:	4293      	cmp	r3, r2
2400168e:	d14d      	bne.n	2400172c <HAL_DMA_DeInit+0x22c>
24001690:	2200      	movs	r2, #0
24001692:	4620      	mov	r0, r4
24001694:	601a      	str	r2, [r3, #0]
24001696:	605a      	str	r2, [r3, #4]
24001698:	609a      	str	r2, [r3, #8]
2400169a:	60da      	str	r2, [r3, #12]
2400169c:	611a      	str	r2, [r3, #16]
2400169e:	f7ff fc9f 	bl	24000fe0 <DMA_CalcBaseAndBitshift>
240016a2:	6de3      	ldr	r3, [r4, #92]	; 0x5c
240016a4:	f003 021f 	and.w	r2, r3, #31
240016a8:	2301      	movs	r3, #1
240016aa:	4093      	lsls	r3, r2
240016ac:	6043      	str	r3, [r0, #4]
240016ae:	e777      	b.n	240015a0 <HAL_DMA_DeInit+0xa0>
240016b0:	4a2b      	ldr	r2, [pc, #172]	; (24001760 <HAL_DMA_DeInit+0x260>)
240016b2:	4293      	cmp	r3, r2
240016b4:	f43f af63 	beq.w	2400157e <HAL_DMA_DeInit+0x7e>
240016b8:	3218      	adds	r2, #24
240016ba:	4293      	cmp	r3, r2
240016bc:	f43f af5f 	beq.w	2400157e <HAL_DMA_DeInit+0x7e>
240016c0:	3218      	adds	r2, #24
240016c2:	4293      	cmp	r3, r2
240016c4:	f43f af5b 	beq.w	2400157e <HAL_DMA_DeInit+0x7e>
240016c8:	3218      	adds	r2, #24
240016ca:	4293      	cmp	r3, r2
240016cc:	f43f af57 	beq.w	2400157e <HAL_DMA_DeInit+0x7e>
240016d0:	3218      	adds	r2, #24
240016d2:	4293      	cmp	r3, r2
240016d4:	f43f af53 	beq.w	2400157e <HAL_DMA_DeInit+0x7e>
240016d8:	3218      	adds	r2, #24
240016da:	4293      	cmp	r3, r2
240016dc:	f43f af4f 	beq.w	2400157e <HAL_DMA_DeInit+0x7e>
240016e0:	3218      	adds	r2, #24
240016e2:	4293      	cmp	r3, r2
240016e4:	f43f af4b 	beq.w	2400157e <HAL_DMA_DeInit+0x7e>
240016e8:	f502 7256 	add.w	r2, r2, #856	; 0x358
240016ec:	4293      	cmp	r3, r2
240016ee:	f43f af46 	beq.w	2400157e <HAL_DMA_DeInit+0x7e>
240016f2:	3218      	adds	r2, #24
240016f4:	4293      	cmp	r3, r2
240016f6:	f43f af42 	beq.w	2400157e <HAL_DMA_DeInit+0x7e>
240016fa:	3218      	adds	r2, #24
240016fc:	4293      	cmp	r3, r2
240016fe:	f43f af3e 	beq.w	2400157e <HAL_DMA_DeInit+0x7e>
24001702:	3218      	adds	r2, #24
24001704:	4293      	cmp	r3, r2
24001706:	f43f af3a 	beq.w	2400157e <HAL_DMA_DeInit+0x7e>
2400170a:	3218      	adds	r2, #24
2400170c:	4293      	cmp	r3, r2
2400170e:	f43f af36 	beq.w	2400157e <HAL_DMA_DeInit+0x7e>
24001712:	3218      	adds	r2, #24
24001714:	4293      	cmp	r3, r2
24001716:	f43f af32 	beq.w	2400157e <HAL_DMA_DeInit+0x7e>
2400171a:	3218      	adds	r2, #24
2400171c:	4293      	cmp	r3, r2
2400171e:	f43f af2e 	beq.w	2400157e <HAL_DMA_DeInit+0x7e>
24001722:	3218      	adds	r2, #24
24001724:	4293      	cmp	r3, r2
24001726:	f43f af2a 	beq.w	2400157e <HAL_DMA_DeInit+0x7e>
2400172a:	e7ae      	b.n	2400168a <HAL_DMA_DeInit+0x18a>
2400172c:	4a0e      	ldr	r2, [pc, #56]	; (24001768 <HAL_DMA_DeInit+0x268>)
2400172e:	4293      	cmp	r3, r2
24001730:	d0ae      	beq.n	24001690 <HAL_DMA_DeInit+0x190>
24001732:	3214      	adds	r2, #20
24001734:	4293      	cmp	r3, r2
24001736:	d0ab      	beq.n	24001690 <HAL_DMA_DeInit+0x190>
24001738:	3214      	adds	r2, #20
2400173a:	4293      	cmp	r3, r2
2400173c:	d0a8      	beq.n	24001690 <HAL_DMA_DeInit+0x190>
2400173e:	3214      	adds	r2, #20
24001740:	4293      	cmp	r3, r2
24001742:	d0a5      	beq.n	24001690 <HAL_DMA_DeInit+0x190>
24001744:	3214      	adds	r2, #20
24001746:	4293      	cmp	r3, r2
24001748:	d0a2      	beq.n	24001690 <HAL_DMA_DeInit+0x190>
2400174a:	3214      	adds	r2, #20
2400174c:	4293      	cmp	r3, r2
2400174e:	d09f      	beq.n	24001690 <HAL_DMA_DeInit+0x190>
24001750:	3214      	adds	r2, #20
24001752:	4293      	cmp	r3, r2
24001754:	f47f aed7 	bne.w	24001506 <HAL_DMA_DeInit+0x6>
24001758:	e79a      	b.n	24001690 <HAL_DMA_DeInit+0x190>
2400175a:	bf00      	nop
2400175c:	40020010 	.word	0x40020010
24001760:	40020028 	.word	0x40020028
24001764:	58025408 	.word	0x58025408
24001768:	5802541c 	.word	0x5802541c

2400176c <HAL_DMA_Start>:
2400176c:	b570      	push	{r4, r5, r6, lr}
2400176e:	2800      	cmp	r0, #0
24001770:	d066      	beq.n	24001840 <HAL_DMA_Start+0xd4>
24001772:	f890 4034 	ldrb.w	r4, [r0, #52]	; 0x34
24001776:	2c01      	cmp	r4, #1
24001778:	d064      	beq.n	24001844 <HAL_DMA_Start+0xd8>
2400177a:	2401      	movs	r4, #1
2400177c:	f890 5035 	ldrb.w	r5, [r0, #53]	; 0x35
24001780:	42a5      	cmp	r5, r4
24001782:	f880 4034 	strb.w	r4, [r0, #52]	; 0x34
24001786:	f04f 0500 	mov.w	r5, #0
2400178a:	d154      	bne.n	24001836 <HAL_DMA_Start+0xca>
2400178c:	2402      	movs	r4, #2
2400178e:	4e2e      	ldr	r6, [pc, #184]	; (24001848 <HAL_DMA_Start+0xdc>)
24001790:	f880 4035 	strb.w	r4, [r0, #53]	; 0x35
24001794:	6804      	ldr	r4, [r0, #0]
24001796:	6545      	str	r5, [r0, #84]	; 0x54
24001798:	42b4      	cmp	r4, r6
2400179a:	d01e      	beq.n	240017da <HAL_DMA_Start+0x6e>
2400179c:	4d2b      	ldr	r5, [pc, #172]	; (2400184c <HAL_DMA_Start+0xe0>)
2400179e:	42ac      	cmp	r4, r5
240017a0:	d01b      	beq.n	240017da <HAL_DMA_Start+0x6e>
240017a2:	3518      	adds	r5, #24
240017a4:	42ac      	cmp	r4, r5
240017a6:	d018      	beq.n	240017da <HAL_DMA_Start+0x6e>
240017a8:	3518      	adds	r5, #24
240017aa:	42ac      	cmp	r4, r5
240017ac:	d015      	beq.n	240017da <HAL_DMA_Start+0x6e>
240017ae:	3518      	adds	r5, #24
240017b0:	42ac      	cmp	r4, r5
240017b2:	d012      	beq.n	240017da <HAL_DMA_Start+0x6e>
240017b4:	3518      	adds	r5, #24
240017b6:	42ac      	cmp	r4, r5
240017b8:	d00f      	beq.n	240017da <HAL_DMA_Start+0x6e>
240017ba:	3518      	adds	r5, #24
240017bc:	42ac      	cmp	r4, r5
240017be:	d00c      	beq.n	240017da <HAL_DMA_Start+0x6e>
240017c0:	3518      	adds	r5, #24
240017c2:	42ac      	cmp	r4, r5
240017c4:	d009      	beq.n	240017da <HAL_DMA_Start+0x6e>
240017c6:	f505 7556 	add.w	r5, r5, #856	; 0x358
240017ca:	42ac      	cmp	r4, r5
240017cc:	d005      	beq.n	240017da <HAL_DMA_Start+0x6e>
240017ce:	3518      	adds	r5, #24
240017d0:	42ac      	cmp	r4, r5
240017d2:	d002      	beq.n	240017da <HAL_DMA_Start+0x6e>
240017d4:	3518      	adds	r5, #24
240017d6:	42ac      	cmp	r4, r5
240017d8:	d0ff      	beq.n	240017da <HAL_DMA_Start+0x6e>
240017da:	6825      	ldr	r5, [r4, #0]
240017dc:	f025 0501 	bic.w	r5, r5, #1
240017e0:	6025      	str	r5, [r4, #0]
240017e2:	f7ff fb3b 	bl	24000e5c <DMA_SetConfig>
240017e6:	6803      	ldr	r3, [r0, #0]
240017e8:	42b3      	cmp	r3, r6
240017ea:	d01e      	beq.n	2400182a <HAL_DMA_Start+0xbe>
240017ec:	4a17      	ldr	r2, [pc, #92]	; (2400184c <HAL_DMA_Start+0xe0>)
240017ee:	4293      	cmp	r3, r2
240017f0:	d01b      	beq.n	2400182a <HAL_DMA_Start+0xbe>
240017f2:	3218      	adds	r2, #24
240017f4:	4293      	cmp	r3, r2
240017f6:	d018      	beq.n	2400182a <HAL_DMA_Start+0xbe>
240017f8:	3218      	adds	r2, #24
240017fa:	4293      	cmp	r3, r2
240017fc:	d015      	beq.n	2400182a <HAL_DMA_Start+0xbe>
240017fe:	3218      	adds	r2, #24
24001800:	4293      	cmp	r3, r2
24001802:	d012      	beq.n	2400182a <HAL_DMA_Start+0xbe>
24001804:	3218      	adds	r2, #24
24001806:	4293      	cmp	r3, r2
24001808:	d00f      	beq.n	2400182a <HAL_DMA_Start+0xbe>
2400180a:	3218      	adds	r2, #24
2400180c:	4293      	cmp	r3, r2
2400180e:	d00c      	beq.n	2400182a <HAL_DMA_Start+0xbe>
24001810:	3218      	adds	r2, #24
24001812:	4293      	cmp	r3, r2
24001814:	d009      	beq.n	2400182a <HAL_DMA_Start+0xbe>
24001816:	f502 7256 	add.w	r2, r2, #856	; 0x358
2400181a:	4293      	cmp	r3, r2
2400181c:	d005      	beq.n	2400182a <HAL_DMA_Start+0xbe>
2400181e:	3218      	adds	r2, #24
24001820:	4293      	cmp	r3, r2
24001822:	d002      	beq.n	2400182a <HAL_DMA_Start+0xbe>
24001824:	3218      	adds	r2, #24
24001826:	4293      	cmp	r3, r2
24001828:	d0ff      	beq.n	2400182a <HAL_DMA_Start+0xbe>
2400182a:	681a      	ldr	r2, [r3, #0]
2400182c:	2000      	movs	r0, #0
2400182e:	f042 0201 	orr.w	r2, r2, #1
24001832:	601a      	str	r2, [r3, #0]
24001834:	bd70      	pop	{r4, r5, r6, pc}
24001836:	f44f 6300 	mov.w	r3, #2048	; 0x800
2400183a:	f880 5034 	strb.w	r5, [r0, #52]	; 0x34
2400183e:	6543      	str	r3, [r0, #84]	; 0x54
24001840:	2001      	movs	r0, #1
24001842:	e7f7      	b.n	24001834 <HAL_DMA_Start+0xc8>
24001844:	2002      	movs	r0, #2
24001846:	e7f5      	b.n	24001834 <HAL_DMA_Start+0xc8>
24001848:	40020010 	.word	0x40020010
2400184c:	40020028 	.word	0x40020028

24001850 <HAL_DMA_Start_IT>:
24001850:	b570      	push	{r4, r5, r6, lr}
24001852:	2800      	cmp	r0, #0
24001854:	f000 810b 	beq.w	24001a6e <HAL_DMA_Start_IT+0x21e>
24001858:	f890 4034 	ldrb.w	r4, [r0, #52]	; 0x34
2400185c:	2c01      	cmp	r4, #1
2400185e:	f000 8108 	beq.w	24001a72 <HAL_DMA_Start_IT+0x222>
24001862:	2401      	movs	r4, #1
24001864:	f890 5035 	ldrb.w	r5, [r0, #53]	; 0x35
24001868:	42a5      	cmp	r5, r4
2400186a:	f880 4034 	strb.w	r4, [r0, #52]	; 0x34
2400186e:	f04f 0500 	mov.w	r5, #0
24001872:	f040 80f7 	bne.w	24001a64 <HAL_DMA_Start_IT+0x214>
24001876:	2402      	movs	r4, #2
24001878:	f880 4035 	strb.w	r4, [r0, #53]	; 0x35
2400187c:	6804      	ldr	r4, [r0, #0]
2400187e:	6545      	str	r5, [r0, #84]	; 0x54
24001880:	4d7d      	ldr	r5, [pc, #500]	; (24001a78 <HAL_DMA_Start_IT+0x228>)
24001882:	42ac      	cmp	r4, r5
24001884:	d01e      	beq.n	240018c4 <HAL_DMA_Start_IT+0x74>
24001886:	4e7d      	ldr	r6, [pc, #500]	; (24001a7c <HAL_DMA_Start_IT+0x22c>)
24001888:	42b4      	cmp	r4, r6
2400188a:	d01b      	beq.n	240018c4 <HAL_DMA_Start_IT+0x74>
2400188c:	3618      	adds	r6, #24
2400188e:	42b4      	cmp	r4, r6
24001890:	d018      	beq.n	240018c4 <HAL_DMA_Start_IT+0x74>
24001892:	3618      	adds	r6, #24
24001894:	42b4      	cmp	r4, r6
24001896:	d015      	beq.n	240018c4 <HAL_DMA_Start_IT+0x74>
24001898:	3618      	adds	r6, #24
2400189a:	42b4      	cmp	r4, r6
2400189c:	d012      	beq.n	240018c4 <HAL_DMA_Start_IT+0x74>
2400189e:	3618      	adds	r6, #24
240018a0:	42b4      	cmp	r4, r6
240018a2:	d00f      	beq.n	240018c4 <HAL_DMA_Start_IT+0x74>
240018a4:	3618      	adds	r6, #24
240018a6:	42b4      	cmp	r4, r6
240018a8:	d00c      	beq.n	240018c4 <HAL_DMA_Start_IT+0x74>
240018aa:	3618      	adds	r6, #24
240018ac:	42b4      	cmp	r4, r6
240018ae:	d009      	beq.n	240018c4 <HAL_DMA_Start_IT+0x74>
240018b0:	f506 7656 	add.w	r6, r6, #856	; 0x358
240018b4:	42b4      	cmp	r4, r6
240018b6:	d005      	beq.n	240018c4 <HAL_DMA_Start_IT+0x74>
240018b8:	3618      	adds	r6, #24
240018ba:	42b4      	cmp	r4, r6
240018bc:	d002      	beq.n	240018c4 <HAL_DMA_Start_IT+0x74>
240018be:	3618      	adds	r6, #24
240018c0:	42b4      	cmp	r4, r6
240018c2:	d0ff      	beq.n	240018c4 <HAL_DMA_Start_IT+0x74>
240018c4:	6826      	ldr	r6, [r4, #0]
240018c6:	f026 0601 	bic.w	r6, r6, #1
240018ca:	6026      	str	r6, [r4, #0]
240018cc:	f7ff fac6 	bl	24000e5c <DMA_SetConfig>
240018d0:	6803      	ldr	r3, [r0, #0]
240018d2:	6c01      	ldr	r1, [r0, #64]	; 0x40
240018d4:	42ab      	cmp	r3, r5
240018d6:	d053      	beq.n	24001980 <HAL_DMA_Start_IT+0x130>
240018d8:	4a68      	ldr	r2, [pc, #416]	; (24001a7c <HAL_DMA_Start_IT+0x22c>)
240018da:	4293      	cmp	r3, r2
240018dc:	d050      	beq.n	24001980 <HAL_DMA_Start_IT+0x130>
240018de:	3218      	adds	r2, #24
240018e0:	4293      	cmp	r3, r2
240018e2:	d04d      	beq.n	24001980 <HAL_DMA_Start_IT+0x130>
240018e4:	3218      	adds	r2, #24
240018e6:	4293      	cmp	r3, r2
240018e8:	d04a      	beq.n	24001980 <HAL_DMA_Start_IT+0x130>
240018ea:	3218      	adds	r2, #24
240018ec:	4293      	cmp	r3, r2
240018ee:	d047      	beq.n	24001980 <HAL_DMA_Start_IT+0x130>
240018f0:	3218      	adds	r2, #24
240018f2:	4293      	cmp	r3, r2
240018f4:	d044      	beq.n	24001980 <HAL_DMA_Start_IT+0x130>
240018f6:	3218      	adds	r2, #24
240018f8:	4293      	cmp	r3, r2
240018fa:	d041      	beq.n	24001980 <HAL_DMA_Start_IT+0x130>
240018fc:	3218      	adds	r2, #24
240018fe:	4293      	cmp	r3, r2
24001900:	d03e      	beq.n	24001980 <HAL_DMA_Start_IT+0x130>
24001902:	f502 7256 	add.w	r2, r2, #856	; 0x358
24001906:	4293      	cmp	r3, r2
24001908:	d03a      	beq.n	24001980 <HAL_DMA_Start_IT+0x130>
2400190a:	3218      	adds	r2, #24
2400190c:	4293      	cmp	r3, r2
2400190e:	d037      	beq.n	24001980 <HAL_DMA_Start_IT+0x130>
24001910:	3218      	adds	r2, #24
24001912:	4293      	cmp	r3, r2
24001914:	d034      	beq.n	24001980 <HAL_DMA_Start_IT+0x130>
24001916:	3218      	adds	r2, #24
24001918:	4293      	cmp	r3, r2
2400191a:	d031      	beq.n	24001980 <HAL_DMA_Start_IT+0x130>
2400191c:	3218      	adds	r2, #24
2400191e:	4293      	cmp	r3, r2
24001920:	d02e      	beq.n	24001980 <HAL_DMA_Start_IT+0x130>
24001922:	3218      	adds	r2, #24
24001924:	4293      	cmp	r3, r2
24001926:	d02b      	beq.n	24001980 <HAL_DMA_Start_IT+0x130>
24001928:	3218      	adds	r2, #24
2400192a:	4293      	cmp	r3, r2
2400192c:	d028      	beq.n	24001980 <HAL_DMA_Start_IT+0x130>
2400192e:	3218      	adds	r2, #24
24001930:	4293      	cmp	r3, r2
24001932:	d025      	beq.n	24001980 <HAL_DMA_Start_IT+0x130>
24001934:	681a      	ldr	r2, [r3, #0]
24001936:	f022 020e 	bic.w	r2, r2, #14
2400193a:	f042 020a 	orr.w	r2, r2, #10
2400193e:	601a      	str	r2, [r3, #0]
24001940:	2900      	cmp	r1, #0
24001942:	d156      	bne.n	240019f2 <HAL_DMA_Start_IT+0x1a2>
24001944:	4a4e      	ldr	r2, [pc, #312]	; (24001a80 <HAL_DMA_Start_IT+0x230>)
24001946:	4293      	cmp	r3, r2
24001948:	d027      	beq.n	2400199a <HAL_DMA_Start_IT+0x14a>
2400194a:	4a4e      	ldr	r2, [pc, #312]	; (24001a84 <HAL_DMA_Start_IT+0x234>)
2400194c:	4293      	cmp	r3, r2
2400194e:	d024      	beq.n	2400199a <HAL_DMA_Start_IT+0x14a>
24001950:	3214      	adds	r2, #20
24001952:	4293      	cmp	r3, r2
24001954:	d021      	beq.n	2400199a <HAL_DMA_Start_IT+0x14a>
24001956:	3214      	adds	r2, #20
24001958:	4293      	cmp	r3, r2
2400195a:	d01e      	beq.n	2400199a <HAL_DMA_Start_IT+0x14a>
2400195c:	3214      	adds	r2, #20
2400195e:	4293      	cmp	r3, r2
24001960:	d01b      	beq.n	2400199a <HAL_DMA_Start_IT+0x14a>
24001962:	3214      	adds	r2, #20
24001964:	4293      	cmp	r3, r2
24001966:	d018      	beq.n	2400199a <HAL_DMA_Start_IT+0x14a>
24001968:	3214      	adds	r2, #20
2400196a:	4293      	cmp	r3, r2
2400196c:	d015      	beq.n	2400199a <HAL_DMA_Start_IT+0x14a>
2400196e:	3214      	adds	r2, #20
24001970:	4293      	cmp	r3, r2
24001972:	d012      	beq.n	2400199a <HAL_DMA_Start_IT+0x14a>
24001974:	681a      	ldr	r2, [r3, #0]
24001976:	2000      	movs	r0, #0
24001978:	f042 0201 	orr.w	r2, r2, #1
2400197c:	601a      	str	r2, [r3, #0]
2400197e:	bd70      	pop	{r4, r5, r6, pc}
24001980:	681a      	ldr	r2, [r3, #0]
24001982:	f022 021e 	bic.w	r2, r2, #30
24001986:	f042 0216 	orr.w	r2, r2, #22
2400198a:	601a      	str	r2, [r3, #0]
2400198c:	b119      	cbz	r1, 24001996 <HAL_DMA_Start_IT+0x146>
2400198e:	681a      	ldr	r2, [r3, #0]
24001990:	f042 0208 	orr.w	r2, r2, #8
24001994:	601a      	str	r2, [r3, #0]
24001996:	42ab      	cmp	r3, r5
24001998:	d130      	bne.n	240019fc <HAL_DMA_Start_IT+0x1ac>
2400199a:	6e02      	ldr	r2, [r0, #96]	; 0x60
2400199c:	6811      	ldr	r1, [r2, #0]
2400199e:	03c9      	lsls	r1, r1, #15
240019a0:	d45b      	bmi.n	24001a5a <HAL_DMA_Start_IT+0x20a>
240019a2:	6ec2      	ldr	r2, [r0, #108]	; 0x6c
240019a4:	b11a      	cbz	r2, 240019ae <HAL_DMA_Start_IT+0x15e>
240019a6:	6811      	ldr	r1, [r2, #0]
240019a8:	f441 7180 	orr.w	r1, r1, #256	; 0x100
240019ac:	6011      	str	r1, [r2, #0]
240019ae:	42ab      	cmp	r3, r5
240019b0:	d0e0      	beq.n	24001974 <HAL_DMA_Start_IT+0x124>
240019b2:	4a32      	ldr	r2, [pc, #200]	; (24001a7c <HAL_DMA_Start_IT+0x22c>)
240019b4:	4293      	cmp	r3, r2
240019b6:	d0dd      	beq.n	24001974 <HAL_DMA_Start_IT+0x124>
240019b8:	3218      	adds	r2, #24
240019ba:	4293      	cmp	r3, r2
240019bc:	d0da      	beq.n	24001974 <HAL_DMA_Start_IT+0x124>
240019be:	3218      	adds	r2, #24
240019c0:	4293      	cmp	r3, r2
240019c2:	d0d7      	beq.n	24001974 <HAL_DMA_Start_IT+0x124>
240019c4:	3218      	adds	r2, #24
240019c6:	4293      	cmp	r3, r2
240019c8:	d0d4      	beq.n	24001974 <HAL_DMA_Start_IT+0x124>
240019ca:	3218      	adds	r2, #24
240019cc:	4293      	cmp	r3, r2
240019ce:	d0d1      	beq.n	24001974 <HAL_DMA_Start_IT+0x124>
240019d0:	3218      	adds	r2, #24
240019d2:	4293      	cmp	r3, r2
240019d4:	d0ce      	beq.n	24001974 <HAL_DMA_Start_IT+0x124>
240019d6:	3218      	adds	r2, #24
240019d8:	4293      	cmp	r3, r2
240019da:	d0cb      	beq.n	24001974 <HAL_DMA_Start_IT+0x124>
240019dc:	f502 7256 	add.w	r2, r2, #856	; 0x358
240019e0:	4293      	cmp	r3, r2
240019e2:	d0c7      	beq.n	24001974 <HAL_DMA_Start_IT+0x124>
240019e4:	3218      	adds	r2, #24
240019e6:	4293      	cmp	r3, r2
240019e8:	d0c4      	beq.n	24001974 <HAL_DMA_Start_IT+0x124>
240019ea:	3218      	adds	r2, #24
240019ec:	4293      	cmp	r3, r2
240019ee:	d0c1      	beq.n	24001974 <HAL_DMA_Start_IT+0x124>
240019f0:	e7c0      	b.n	24001974 <HAL_DMA_Start_IT+0x124>
240019f2:	681a      	ldr	r2, [r3, #0]
240019f4:	f042 0204 	orr.w	r2, r2, #4
240019f8:	601a      	str	r2, [r3, #0]
240019fa:	e7a3      	b.n	24001944 <HAL_DMA_Start_IT+0xf4>
240019fc:	4a1f      	ldr	r2, [pc, #124]	; (24001a7c <HAL_DMA_Start_IT+0x22c>)
240019fe:	4293      	cmp	r3, r2
24001a00:	d0cb      	beq.n	2400199a <HAL_DMA_Start_IT+0x14a>
24001a02:	3218      	adds	r2, #24
24001a04:	4293      	cmp	r3, r2
24001a06:	d0c8      	beq.n	2400199a <HAL_DMA_Start_IT+0x14a>
24001a08:	3218      	adds	r2, #24
24001a0a:	4293      	cmp	r3, r2
24001a0c:	d0c5      	beq.n	2400199a <HAL_DMA_Start_IT+0x14a>
24001a0e:	3218      	adds	r2, #24
24001a10:	4293      	cmp	r3, r2
24001a12:	d0c2      	beq.n	2400199a <HAL_DMA_Start_IT+0x14a>
24001a14:	3218      	adds	r2, #24
24001a16:	4293      	cmp	r3, r2
24001a18:	d0bf      	beq.n	2400199a <HAL_DMA_Start_IT+0x14a>
24001a1a:	3218      	adds	r2, #24
24001a1c:	4293      	cmp	r3, r2
24001a1e:	d0bc      	beq.n	2400199a <HAL_DMA_Start_IT+0x14a>
24001a20:	3218      	adds	r2, #24
24001a22:	4293      	cmp	r3, r2
24001a24:	d0b9      	beq.n	2400199a <HAL_DMA_Start_IT+0x14a>
24001a26:	f502 7256 	add.w	r2, r2, #856	; 0x358
24001a2a:	4293      	cmp	r3, r2
24001a2c:	d0b5      	beq.n	2400199a <HAL_DMA_Start_IT+0x14a>
24001a2e:	3218      	adds	r2, #24
24001a30:	4293      	cmp	r3, r2
24001a32:	d0b2      	beq.n	2400199a <HAL_DMA_Start_IT+0x14a>
24001a34:	3218      	adds	r2, #24
24001a36:	4293      	cmp	r3, r2
24001a38:	d0af      	beq.n	2400199a <HAL_DMA_Start_IT+0x14a>
24001a3a:	3218      	adds	r2, #24
24001a3c:	4293      	cmp	r3, r2
24001a3e:	d0ac      	beq.n	2400199a <HAL_DMA_Start_IT+0x14a>
24001a40:	3218      	adds	r2, #24
24001a42:	4293      	cmp	r3, r2
24001a44:	d0a9      	beq.n	2400199a <HAL_DMA_Start_IT+0x14a>
24001a46:	3218      	adds	r2, #24
24001a48:	4293      	cmp	r3, r2
24001a4a:	d0a6      	beq.n	2400199a <HAL_DMA_Start_IT+0x14a>
24001a4c:	3218      	adds	r2, #24
24001a4e:	4293      	cmp	r3, r2
24001a50:	d0a3      	beq.n	2400199a <HAL_DMA_Start_IT+0x14a>
24001a52:	3218      	adds	r2, #24
24001a54:	4293      	cmp	r3, r2
24001a56:	d0a0      	beq.n	2400199a <HAL_DMA_Start_IT+0x14a>
24001a58:	e774      	b.n	24001944 <HAL_DMA_Start_IT+0xf4>
24001a5a:	6811      	ldr	r1, [r2, #0]
24001a5c:	f441 7180 	orr.w	r1, r1, #256	; 0x100
24001a60:	6011      	str	r1, [r2, #0]
24001a62:	e79e      	b.n	240019a2 <HAL_DMA_Start_IT+0x152>
24001a64:	f44f 6300 	mov.w	r3, #2048	; 0x800
24001a68:	f880 5034 	strb.w	r5, [r0, #52]	; 0x34
24001a6c:	6543      	str	r3, [r0, #84]	; 0x54
24001a6e:	2001      	movs	r0, #1
24001a70:	e785      	b.n	2400197e <HAL_DMA_Start_IT+0x12e>
24001a72:	2002      	movs	r0, #2
24001a74:	e783      	b.n	2400197e <HAL_DMA_Start_IT+0x12e>
24001a76:	bf00      	nop
24001a78:	40020010 	.word	0x40020010
24001a7c:	40020028 	.word	0x40020028
24001a80:	58025408 	.word	0x58025408
24001a84:	5802541c 	.word	0x5802541c

24001a88 <HAL_DMA_Abort>:
24001a88:	b5f8      	push	{r3, r4, r5, r6, r7, lr}
24001a8a:	4605      	mov	r5, r0
24001a8c:	f7fe fe8a 	bl	240007a4 <HAL_GetTick>
24001a90:	4607      	mov	r7, r0
24001a92:	b145      	cbz	r5, 24001aa6 <HAL_DMA_Abort+0x1e>
24001a94:	f895 3035 	ldrb.w	r3, [r5, #53]	; 0x35
24001a98:	2b02      	cmp	r3, #2
24001a9a:	d006      	beq.n	24001aaa <HAL_DMA_Abort+0x22>
24001a9c:	2380      	movs	r3, #128	; 0x80
24001a9e:	656b      	str	r3, [r5, #84]	; 0x54
24001aa0:	2300      	movs	r3, #0
24001aa2:	f885 3034 	strb.w	r3, [r5, #52]	; 0x34
24001aa6:	2001      	movs	r0, #1
24001aa8:	e158      	b.n	24001d5c <HAL_DMA_Abort+0x2d4>
24001aaa:	682c      	ldr	r4, [r5, #0]
24001aac:	4eac      	ldr	r6, [pc, #688]	; (24001d60 <HAL_DMA_Abort+0x2d8>)
24001aae:	42b4      	cmp	r4, r6
24001ab0:	d04a      	beq.n	24001b48 <HAL_DMA_Abort+0xc0>
24001ab2:	4bac      	ldr	r3, [pc, #688]	; (24001d64 <HAL_DMA_Abort+0x2dc>)
24001ab4:	429c      	cmp	r4, r3
24001ab6:	d047      	beq.n	24001b48 <HAL_DMA_Abort+0xc0>
24001ab8:	3318      	adds	r3, #24
24001aba:	429c      	cmp	r4, r3
24001abc:	d044      	beq.n	24001b48 <HAL_DMA_Abort+0xc0>
24001abe:	3318      	adds	r3, #24
24001ac0:	429c      	cmp	r4, r3
24001ac2:	d041      	beq.n	24001b48 <HAL_DMA_Abort+0xc0>
24001ac4:	3318      	adds	r3, #24
24001ac6:	429c      	cmp	r4, r3
24001ac8:	d03e      	beq.n	24001b48 <HAL_DMA_Abort+0xc0>
24001aca:	3318      	adds	r3, #24
24001acc:	429c      	cmp	r4, r3
24001ace:	d03b      	beq.n	24001b48 <HAL_DMA_Abort+0xc0>
24001ad0:	3318      	adds	r3, #24
24001ad2:	429c      	cmp	r4, r3
24001ad4:	d038      	beq.n	24001b48 <HAL_DMA_Abort+0xc0>
24001ad6:	3318      	adds	r3, #24
24001ad8:	429c      	cmp	r4, r3
24001ada:	d035      	beq.n	24001b48 <HAL_DMA_Abort+0xc0>
24001adc:	f503 7356 	add.w	r3, r3, #856	; 0x358
24001ae0:	429c      	cmp	r4, r3
24001ae2:	d031      	beq.n	24001b48 <HAL_DMA_Abort+0xc0>
24001ae4:	3318      	adds	r3, #24
24001ae6:	429c      	cmp	r4, r3
24001ae8:	d02e      	beq.n	24001b48 <HAL_DMA_Abort+0xc0>
24001aea:	3318      	adds	r3, #24
24001aec:	429c      	cmp	r4, r3
24001aee:	d02b      	beq.n	24001b48 <HAL_DMA_Abort+0xc0>
24001af0:	3318      	adds	r3, #24
24001af2:	429c      	cmp	r4, r3
24001af4:	d028      	beq.n	24001b48 <HAL_DMA_Abort+0xc0>
24001af6:	3318      	adds	r3, #24
24001af8:	429c      	cmp	r4, r3
24001afa:	d025      	beq.n	24001b48 <HAL_DMA_Abort+0xc0>
24001afc:	3318      	adds	r3, #24
24001afe:	429c      	cmp	r4, r3
24001b00:	d022      	beq.n	24001b48 <HAL_DMA_Abort+0xc0>
24001b02:	3318      	adds	r3, #24
24001b04:	429c      	cmp	r4, r3
24001b06:	d01f      	beq.n	24001b48 <HAL_DMA_Abort+0xc0>
24001b08:	3318      	adds	r3, #24
24001b0a:	429c      	cmp	r4, r3
24001b0c:	d01c      	beq.n	24001b48 <HAL_DMA_Abort+0xc0>
24001b0e:	6823      	ldr	r3, [r4, #0]
24001b10:	f023 030e 	bic.w	r3, r3, #14
24001b14:	6023      	str	r3, [r4, #0]
24001b16:	4b94      	ldr	r3, [pc, #592]	; (24001d68 <HAL_DMA_Abort+0x2e0>)
24001b18:	429c      	cmp	r4, r3
24001b1a:	d01f      	beq.n	24001b5c <HAL_DMA_Abort+0xd4>
24001b1c:	3314      	adds	r3, #20
24001b1e:	429c      	cmp	r4, r3
24001b20:	d01c      	beq.n	24001b5c <HAL_DMA_Abort+0xd4>
24001b22:	3314      	adds	r3, #20
24001b24:	429c      	cmp	r4, r3
24001b26:	d019      	beq.n	24001b5c <HAL_DMA_Abort+0xd4>
24001b28:	3314      	adds	r3, #20
24001b2a:	429c      	cmp	r4, r3
24001b2c:	d016      	beq.n	24001b5c <HAL_DMA_Abort+0xd4>
24001b2e:	3314      	adds	r3, #20
24001b30:	429c      	cmp	r4, r3
24001b32:	d013      	beq.n	24001b5c <HAL_DMA_Abort+0xd4>
24001b34:	3314      	adds	r3, #20
24001b36:	429c      	cmp	r4, r3
24001b38:	d010      	beq.n	24001b5c <HAL_DMA_Abort+0xd4>
24001b3a:	3314      	adds	r3, #20
24001b3c:	429c      	cmp	r4, r3
24001b3e:	d00d      	beq.n	24001b5c <HAL_DMA_Abort+0xd4>
24001b40:	3314      	adds	r3, #20
24001b42:	429c      	cmp	r4, r3
24001b44:	d112      	bne.n	24001b6c <HAL_DMA_Abort+0xe4>
24001b46:	e009      	b.n	24001b5c <HAL_DMA_Abort+0xd4>
24001b48:	6823      	ldr	r3, [r4, #0]
24001b4a:	42b4      	cmp	r4, r6
24001b4c:	f023 031e 	bic.w	r3, r3, #30
24001b50:	6023      	str	r3, [r4, #0]
24001b52:	6963      	ldr	r3, [r4, #20]
24001b54:	f023 0380 	bic.w	r3, r3, #128	; 0x80
24001b58:	6163      	str	r3, [r4, #20]
24001b5a:	d178      	bne.n	24001c4e <HAL_DMA_Abort+0x1c6>
24001b5c:	6e2a      	ldr	r2, [r5, #96]	; 0x60
24001b5e:	42b4      	cmp	r4, r6
24001b60:	6813      	ldr	r3, [r2, #0]
24001b62:	f423 7380 	bic.w	r3, r3, #256	; 0x100
24001b66:	6013      	str	r3, [r2, #0]
24001b68:	f040 80ad 	bne.w	24001cc6 <HAL_DMA_Abort+0x23e>
24001b6c:	6823      	ldr	r3, [r4, #0]
24001b6e:	f023 0301 	bic.w	r3, r3, #1
24001b72:	6023      	str	r3, [r4, #0]
24001b74:	6823      	ldr	r3, [r4, #0]
24001b76:	07db      	lsls	r3, r3, #31
24001b78:	f100 80cf 	bmi.w	24001d1a <HAL_DMA_Abort+0x292>
24001b7c:	682b      	ldr	r3, [r5, #0]
24001b7e:	6dea      	ldr	r2, [r5, #92]	; 0x5c
24001b80:	42b3      	cmp	r3, r6
24001b82:	6da8      	ldr	r0, [r5, #88]	; 0x58
24001b84:	f002 021f 	and.w	r2, r2, #31
24001b88:	f000 80d6 	beq.w	24001d38 <HAL_DMA_Abort+0x2b0>
24001b8c:	4975      	ldr	r1, [pc, #468]	; (24001d64 <HAL_DMA_Abort+0x2dc>)
24001b8e:	428b      	cmp	r3, r1
24001b90:	f000 80d2 	beq.w	24001d38 <HAL_DMA_Abort+0x2b0>
24001b94:	3118      	adds	r1, #24
24001b96:	428b      	cmp	r3, r1
24001b98:	f000 80ce 	beq.w	24001d38 <HAL_DMA_Abort+0x2b0>
24001b9c:	3118      	adds	r1, #24
24001b9e:	428b      	cmp	r3, r1
24001ba0:	f000 80ca 	beq.w	24001d38 <HAL_DMA_Abort+0x2b0>
24001ba4:	3118      	adds	r1, #24
24001ba6:	428b      	cmp	r3, r1
24001ba8:	f000 80c6 	beq.w	24001d38 <HAL_DMA_Abort+0x2b0>
24001bac:	3118      	adds	r1, #24
24001bae:	428b      	cmp	r3, r1
24001bb0:	f000 80c2 	beq.w	24001d38 <HAL_DMA_Abort+0x2b0>
24001bb4:	3118      	adds	r1, #24
24001bb6:	428b      	cmp	r3, r1
24001bb8:	f000 80be 	beq.w	24001d38 <HAL_DMA_Abort+0x2b0>
24001bbc:	3118      	adds	r1, #24
24001bbe:	428b      	cmp	r3, r1
24001bc0:	f000 80ba 	beq.w	24001d38 <HAL_DMA_Abort+0x2b0>
24001bc4:	f501 7156 	add.w	r1, r1, #856	; 0x358
24001bc8:	428b      	cmp	r3, r1
24001bca:	f000 80b5 	beq.w	24001d38 <HAL_DMA_Abort+0x2b0>
24001bce:	3118      	adds	r1, #24
24001bd0:	428b      	cmp	r3, r1
24001bd2:	f000 80b1 	beq.w	24001d38 <HAL_DMA_Abort+0x2b0>
24001bd6:	3118      	adds	r1, #24
24001bd8:	428b      	cmp	r3, r1
24001bda:	f000 80ad 	beq.w	24001d38 <HAL_DMA_Abort+0x2b0>
24001bde:	3118      	adds	r1, #24
24001be0:	428b      	cmp	r3, r1
24001be2:	f000 80a9 	beq.w	24001d38 <HAL_DMA_Abort+0x2b0>
24001be6:	3118      	adds	r1, #24
24001be8:	428b      	cmp	r3, r1
24001bea:	f000 80a5 	beq.w	24001d38 <HAL_DMA_Abort+0x2b0>
24001bee:	3118      	adds	r1, #24
24001bf0:	428b      	cmp	r3, r1
24001bf2:	f000 80a1 	beq.w	24001d38 <HAL_DMA_Abort+0x2b0>
24001bf6:	3118      	adds	r1, #24
24001bf8:	428b      	cmp	r3, r1
24001bfa:	f000 809d 	beq.w	24001d38 <HAL_DMA_Abort+0x2b0>
24001bfe:	3118      	adds	r1, #24
24001c00:	428b      	cmp	r3, r1
24001c02:	f000 8099 	beq.w	24001d38 <HAL_DMA_Abort+0x2b0>
24001c06:	2101      	movs	r1, #1
24001c08:	fa01 f202 	lsl.w	r2, r1, r2
24001c0c:	6042      	str	r2, [r0, #4]
24001c0e:	4a56      	ldr	r2, [pc, #344]	; (24001d68 <HAL_DMA_Abort+0x2e0>)
24001c10:	4293      	cmp	r3, r2
24001c12:	f000 8097 	beq.w	24001d44 <HAL_DMA_Abort+0x2bc>
24001c16:	3214      	adds	r2, #20
24001c18:	4293      	cmp	r3, r2
24001c1a:	f000 8093 	beq.w	24001d44 <HAL_DMA_Abort+0x2bc>
24001c1e:	3214      	adds	r2, #20
24001c20:	4293      	cmp	r3, r2
24001c22:	f000 808f 	beq.w	24001d44 <HAL_DMA_Abort+0x2bc>
24001c26:	3214      	adds	r2, #20
24001c28:	4293      	cmp	r3, r2
24001c2a:	f000 808b 	beq.w	24001d44 <HAL_DMA_Abort+0x2bc>
24001c2e:	3214      	adds	r2, #20
24001c30:	4293      	cmp	r3, r2
24001c32:	f000 8087 	beq.w	24001d44 <HAL_DMA_Abort+0x2bc>
24001c36:	3214      	adds	r2, #20
24001c38:	4293      	cmp	r3, r2
24001c3a:	f000 8083 	beq.w	24001d44 <HAL_DMA_Abort+0x2bc>
24001c3e:	3214      	adds	r2, #20
24001c40:	4293      	cmp	r3, r2
24001c42:	d07f      	beq.n	24001d44 <HAL_DMA_Abort+0x2bc>
24001c44:	3214      	adds	r2, #20
24001c46:	4293      	cmp	r3, r2
24001c48:	f040 8082 	bne.w	24001d50 <HAL_DMA_Abort+0x2c8>
24001c4c:	e07a      	b.n	24001d44 <HAL_DMA_Abort+0x2bc>
24001c4e:	4b45      	ldr	r3, [pc, #276]	; (24001d64 <HAL_DMA_Abort+0x2dc>)
24001c50:	429c      	cmp	r4, r3
24001c52:	d083      	beq.n	24001b5c <HAL_DMA_Abort+0xd4>
24001c54:	3318      	adds	r3, #24
24001c56:	429c      	cmp	r4, r3
24001c58:	d080      	beq.n	24001b5c <HAL_DMA_Abort+0xd4>
24001c5a:	3318      	adds	r3, #24
24001c5c:	429c      	cmp	r4, r3
24001c5e:	f43f af7d 	beq.w	24001b5c <HAL_DMA_Abort+0xd4>
24001c62:	3318      	adds	r3, #24
24001c64:	429c      	cmp	r4, r3
24001c66:	f43f af79 	beq.w	24001b5c <HAL_DMA_Abort+0xd4>
24001c6a:	3318      	adds	r3, #24
24001c6c:	429c      	cmp	r4, r3
24001c6e:	f43f af75 	beq.w	24001b5c <HAL_DMA_Abort+0xd4>
24001c72:	3318      	adds	r3, #24
24001c74:	429c      	cmp	r4, r3
24001c76:	f43f af71 	beq.w	24001b5c <HAL_DMA_Abort+0xd4>
24001c7a:	3318      	adds	r3, #24
24001c7c:	429c      	cmp	r4, r3
24001c7e:	f43f af6d 	beq.w	24001b5c <HAL_DMA_Abort+0xd4>
24001c82:	f503 7356 	add.w	r3, r3, #856	; 0x358
24001c86:	429c      	cmp	r4, r3
24001c88:	f43f af68 	beq.w	24001b5c <HAL_DMA_Abort+0xd4>
24001c8c:	3318      	adds	r3, #24
24001c8e:	429c      	cmp	r4, r3
24001c90:	f43f af64 	beq.w	24001b5c <HAL_DMA_Abort+0xd4>
24001c94:	3318      	adds	r3, #24
24001c96:	429c      	cmp	r4, r3
24001c98:	f43f af60 	beq.w	24001b5c <HAL_DMA_Abort+0xd4>
24001c9c:	3318      	adds	r3, #24
24001c9e:	429c      	cmp	r4, r3
24001ca0:	f43f af5c 	beq.w	24001b5c <HAL_DMA_Abort+0xd4>
24001ca4:	3318      	adds	r3, #24
24001ca6:	429c      	cmp	r4, r3
24001ca8:	f43f af58 	beq.w	24001b5c <HAL_DMA_Abort+0xd4>
24001cac:	3318      	adds	r3, #24
24001cae:	429c      	cmp	r4, r3
24001cb0:	f43f af54 	beq.w	24001b5c <HAL_DMA_Abort+0xd4>
24001cb4:	3318      	adds	r3, #24
24001cb6:	429c      	cmp	r4, r3
24001cb8:	f43f af50 	beq.w	24001b5c <HAL_DMA_Abort+0xd4>
24001cbc:	3318      	adds	r3, #24
24001cbe:	429c      	cmp	r4, r3
24001cc0:	f43f af4c 	beq.w	24001b5c <HAL_DMA_Abort+0xd4>
24001cc4:	e727      	b.n	24001b16 <HAL_DMA_Abort+0x8e>
24001cc6:	4b27      	ldr	r3, [pc, #156]	; (24001d64 <HAL_DMA_Abort+0x2dc>)
24001cc8:	429c      	cmp	r4, r3
24001cca:	f43f af4f 	beq.w	24001b6c <HAL_DMA_Abort+0xe4>
24001cce:	3318      	adds	r3, #24
24001cd0:	429c      	cmp	r4, r3
24001cd2:	f43f af4b 	beq.w	24001b6c <HAL_DMA_Abort+0xe4>
24001cd6:	3318      	adds	r3, #24
24001cd8:	429c      	cmp	r4, r3
24001cda:	f43f af47 	beq.w	24001b6c <HAL_DMA_Abort+0xe4>
24001cde:	3318      	adds	r3, #24
24001ce0:	429c      	cmp	r4, r3
24001ce2:	f43f af43 	beq.w	24001b6c <HAL_DMA_Abort+0xe4>
24001ce6:	3318      	adds	r3, #24
24001ce8:	429c      	cmp	r4, r3
24001cea:	f43f af3f 	beq.w	24001b6c <HAL_DMA_Abort+0xe4>
24001cee:	3318      	adds	r3, #24
24001cf0:	429c      	cmp	r4, r3
24001cf2:	f43f af3b 	beq.w	24001b6c <HAL_DMA_Abort+0xe4>
24001cf6:	3318      	adds	r3, #24
24001cf8:	429c      	cmp	r4, r3
24001cfa:	f43f af37 	beq.w	24001b6c <HAL_DMA_Abort+0xe4>
24001cfe:	f503 7356 	add.w	r3, r3, #856	; 0x358
24001d02:	429c      	cmp	r4, r3
24001d04:	f43f af32 	beq.w	24001b6c <HAL_DMA_Abort+0xe4>
24001d08:	3318      	adds	r3, #24
24001d0a:	429c      	cmp	r4, r3
24001d0c:	f43f af2e 	beq.w	24001b6c <HAL_DMA_Abort+0xe4>
24001d10:	3318      	adds	r3, #24
24001d12:	429c      	cmp	r4, r3
24001d14:	f43f af2a 	beq.w	24001b6c <HAL_DMA_Abort+0xe4>
24001d18:	e728      	b.n	24001b6c <HAL_DMA_Abort+0xe4>
24001d1a:	f7fe fd43 	bl	240007a4 <HAL_GetTick>
24001d1e:	1bc0      	subs	r0, r0, r7
24001d20:	2805      	cmp	r0, #5
24001d22:	f67f af27 	bls.w	24001b74 <HAL_DMA_Abort+0xec>
24001d26:	2320      	movs	r3, #32
24001d28:	656b      	str	r3, [r5, #84]	; 0x54
24001d2a:	2300      	movs	r3, #0
24001d2c:	f885 3034 	strb.w	r3, [r5, #52]	; 0x34
24001d30:	2303      	movs	r3, #3
24001d32:	f885 3035 	strb.w	r3, [r5, #53]	; 0x35
24001d36:	e6b6      	b.n	24001aa6 <HAL_DMA_Abort+0x1e>
24001d38:	213f      	movs	r1, #63	; 0x3f
24001d3a:	42b3      	cmp	r3, r6
24001d3c:	fa01 f202 	lsl.w	r2, r1, r2
24001d40:	6082      	str	r2, [r0, #8]
24001d42:	d113      	bne.n	24001d6c <HAL_DMA_Abort+0x2e4>
24001d44:	e9d5 3219 	ldrd	r3, r2, [r5, #100]	; 0x64
24001d48:	605a      	str	r2, [r3, #4]
24001d4a:	6eeb      	ldr	r3, [r5, #108]	; 0x6c
24001d4c:	2b00      	cmp	r3, #0
24001d4e:	d13c      	bne.n	24001dca <HAL_DMA_Abort+0x342>
24001d50:	2000      	movs	r0, #0
24001d52:	2301      	movs	r3, #1
24001d54:	f885 0034 	strb.w	r0, [r5, #52]	; 0x34
24001d58:	f885 3035 	strb.w	r3, [r5, #53]	; 0x35
24001d5c:	bdf8      	pop	{r3, r4, r5, r6, r7, pc}
24001d5e:	bf00      	nop
24001d60:	40020010 	.word	0x40020010
24001d64:	40020028 	.word	0x40020028
24001d68:	58025408 	.word	0x58025408
24001d6c:	4a1b      	ldr	r2, [pc, #108]	; (24001ddc <HAL_DMA_Abort+0x354>)
24001d6e:	4293      	cmp	r3, r2
24001d70:	d0e8      	beq.n	24001d44 <HAL_DMA_Abort+0x2bc>
24001d72:	3218      	adds	r2, #24
24001d74:	4293      	cmp	r3, r2
24001d76:	d0e5      	beq.n	24001d44 <HAL_DMA_Abort+0x2bc>
24001d78:	3218      	adds	r2, #24
24001d7a:	4293      	cmp	r3, r2
24001d7c:	d0e2      	beq.n	24001d44 <HAL_DMA_Abort+0x2bc>
24001d7e:	3218      	adds	r2, #24
24001d80:	4293      	cmp	r3, r2
24001d82:	d0df      	beq.n	24001d44 <HAL_DMA_Abort+0x2bc>
24001d84:	3218      	adds	r2, #24
24001d86:	4293      	cmp	r3, r2
24001d88:	d0dc      	beq.n	24001d44 <HAL_DMA_Abort+0x2bc>
24001d8a:	3218      	adds	r2, #24
24001d8c:	4293      	cmp	r3, r2
24001d8e:	d0d9      	beq.n	24001d44 <HAL_DMA_Abort+0x2bc>
24001d90:	3218      	adds	r2, #24
24001d92:	4293      	cmp	r3, r2
24001d94:	d0d6      	beq.n	24001d44 <HAL_DMA_Abort+0x2bc>
24001d96:	f502 7256 	add.w	r2, r2, #856	; 0x358
24001d9a:	4293      	cmp	r3, r2
24001d9c:	d0d2      	beq.n	24001d44 <HAL_DMA_Abort+0x2bc>
24001d9e:	3218      	adds	r2, #24
24001da0:	4293      	cmp	r3, r2
24001da2:	d0cf      	beq.n	24001d44 <HAL_DMA_Abort+0x2bc>
24001da4:	3218      	adds	r2, #24
24001da6:	4293      	cmp	r3, r2
24001da8:	d0cc      	beq.n	24001d44 <HAL_DMA_Abort+0x2bc>
24001daa:	3218      	adds	r2, #24
24001dac:	4293      	cmp	r3, r2
24001dae:	d0c9      	beq.n	24001d44 <HAL_DMA_Abort+0x2bc>
24001db0:	3218      	adds	r2, #24
24001db2:	4293      	cmp	r3, r2
24001db4:	d0c6      	beq.n	24001d44 <HAL_DMA_Abort+0x2bc>
24001db6:	3218      	adds	r2, #24
24001db8:	4293      	cmp	r3, r2
24001dba:	d0c3      	beq.n	24001d44 <HAL_DMA_Abort+0x2bc>
24001dbc:	3218      	adds	r2, #24
24001dbe:	4293      	cmp	r3, r2
24001dc0:	d0c0      	beq.n	24001d44 <HAL_DMA_Abort+0x2bc>
24001dc2:	3218      	adds	r2, #24
24001dc4:	4293      	cmp	r3, r2
24001dc6:	d0bd      	beq.n	24001d44 <HAL_DMA_Abort+0x2bc>
24001dc8:	e721      	b.n	24001c0e <HAL_DMA_Abort+0x186>
24001dca:	681a      	ldr	r2, [r3, #0]
24001dcc:	f422 7280 	bic.w	r2, r2, #256	; 0x100
24001dd0:	601a      	str	r2, [r3, #0]
24001dd2:	e9d5 321c 	ldrd	r3, r2, [r5, #112]	; 0x70
24001dd6:	605a      	str	r2, [r3, #4]
24001dd8:	e7ba      	b.n	24001d50 <HAL_DMA_Abort+0x2c8>
24001dda:	bf00      	nop
24001ddc:	40020028 	.word	0x40020028

24001de0 <HAL_DMA_Abort_IT>:
24001de0:	b510      	push	{r4, lr}
24001de2:	b128      	cbz	r0, 24001df0 <HAL_DMA_Abort_IT+0x10>
24001de4:	f890 3035 	ldrb.w	r3, [r0, #53]	; 0x35
24001de8:	2b02      	cmp	r3, #2
24001dea:	d003      	beq.n	24001df4 <HAL_DMA_Abort_IT+0x14>
24001dec:	2380      	movs	r3, #128	; 0x80
24001dee:	6543      	str	r3, [r0, #84]	; 0x54
24001df0:	2001      	movs	r0, #1
24001df2:	e07f      	b.n	24001ef4 <HAL_DMA_Abort_IT+0x114>
24001df4:	6803      	ldr	r3, [r0, #0]
24001df6:	4a50      	ldr	r2, [pc, #320]	; (24001f38 <HAL_DMA_Abort_IT+0x158>)
24001df8:	4293      	cmp	r3, r2
24001dfa:	d052      	beq.n	24001ea2 <HAL_DMA_Abort_IT+0xc2>
24001dfc:	494f      	ldr	r1, [pc, #316]	; (24001f3c <HAL_DMA_Abort_IT+0x15c>)
24001dfe:	428b      	cmp	r3, r1
24001e00:	d04f      	beq.n	24001ea2 <HAL_DMA_Abort_IT+0xc2>
24001e02:	3118      	adds	r1, #24
24001e04:	428b      	cmp	r3, r1
24001e06:	d04c      	beq.n	24001ea2 <HAL_DMA_Abort_IT+0xc2>
24001e08:	3118      	adds	r1, #24
24001e0a:	428b      	cmp	r3, r1
24001e0c:	d049      	beq.n	24001ea2 <HAL_DMA_Abort_IT+0xc2>
24001e0e:	3118      	adds	r1, #24
24001e10:	428b      	cmp	r3, r1
24001e12:	d046      	beq.n	24001ea2 <HAL_DMA_Abort_IT+0xc2>
24001e14:	3118      	adds	r1, #24
24001e16:	428b      	cmp	r3, r1
24001e18:	d043      	beq.n	24001ea2 <HAL_DMA_Abort_IT+0xc2>
24001e1a:	3118      	adds	r1, #24
24001e1c:	428b      	cmp	r3, r1
24001e1e:	d040      	beq.n	24001ea2 <HAL_DMA_Abort_IT+0xc2>
24001e20:	3118      	adds	r1, #24
24001e22:	428b      	cmp	r3, r1
24001e24:	d03d      	beq.n	24001ea2 <HAL_DMA_Abort_IT+0xc2>
24001e26:	f501 7156 	add.w	r1, r1, #856	; 0x358
24001e2a:	428b      	cmp	r3, r1
24001e2c:	d039      	beq.n	24001ea2 <HAL_DMA_Abort_IT+0xc2>
24001e2e:	3118      	adds	r1, #24
24001e30:	428b      	cmp	r3, r1
24001e32:	d036      	beq.n	24001ea2 <HAL_DMA_Abort_IT+0xc2>
24001e34:	3118      	adds	r1, #24
24001e36:	428b      	cmp	r3, r1
24001e38:	d033      	beq.n	24001ea2 <HAL_DMA_Abort_IT+0xc2>
24001e3a:	3118      	adds	r1, #24
24001e3c:	428b      	cmp	r3, r1
24001e3e:	d030      	beq.n	24001ea2 <HAL_DMA_Abort_IT+0xc2>
24001e40:	3118      	adds	r1, #24
24001e42:	428b      	cmp	r3, r1
24001e44:	d02d      	beq.n	24001ea2 <HAL_DMA_Abort_IT+0xc2>
24001e46:	3118      	adds	r1, #24
24001e48:	428b      	cmp	r3, r1
24001e4a:	d02a      	beq.n	24001ea2 <HAL_DMA_Abort_IT+0xc2>
24001e4c:	3118      	adds	r1, #24
24001e4e:	428b      	cmp	r3, r1
24001e50:	d027      	beq.n	24001ea2 <HAL_DMA_Abort_IT+0xc2>
24001e52:	3118      	adds	r1, #24
24001e54:	428b      	cmp	r3, r1
24001e56:	d024      	beq.n	24001ea2 <HAL_DMA_Abort_IT+0xc2>
24001e58:	681a      	ldr	r2, [r3, #0]
24001e5a:	f022 020e 	bic.w	r2, r2, #14
24001e5e:	601a      	str	r2, [r3, #0]
24001e60:	681a      	ldr	r2, [r3, #0]
24001e62:	f022 0201 	bic.w	r2, r2, #1
24001e66:	601a      	str	r2, [r3, #0]
24001e68:	4a35      	ldr	r2, [pc, #212]	; (24001f40 <HAL_DMA_Abort_IT+0x160>)
24001e6a:	4293      	cmp	r3, r2
24001e6c:	d143      	bne.n	24001ef6 <HAL_DMA_Abort_IT+0x116>
24001e6e:	6e02      	ldr	r2, [r0, #96]	; 0x60
24001e70:	6813      	ldr	r3, [r2, #0]
24001e72:	f423 7380 	bic.w	r3, r3, #256	; 0x100
24001e76:	6013      	str	r3, [r2, #0]
24001e78:	e9d0 1316 	ldrd	r1, r3, [r0, #88]	; 0x58
24001e7c:	f003 021f 	and.w	r2, r3, #31
24001e80:	2301      	movs	r3, #1
24001e82:	4093      	lsls	r3, r2
24001e84:	604b      	str	r3, [r1, #4]
24001e86:	e9d0 3219 	ldrd	r3, r2, [r0, #100]	; 0x64
24001e8a:	605a      	str	r2, [r3, #4]
24001e8c:	6ec3      	ldr	r3, [r0, #108]	; 0x6c
24001e8e:	2b00      	cmp	r3, #0
24001e90:	d046      	beq.n	24001f20 <HAL_DMA_Abort_IT+0x140>
24001e92:	681a      	ldr	r2, [r3, #0]
24001e94:	f422 7280 	bic.w	r2, r2, #256	; 0x100
24001e98:	601a      	str	r2, [r3, #0]
24001e9a:	e9d0 321c 	ldrd	r3, r2, [r0, #112]	; 0x70
24001e9e:	605a      	str	r2, [r3, #4]
24001ea0:	e03e      	b.n	24001f20 <HAL_DMA_Abort_IT+0x140>
24001ea2:	2104      	movs	r1, #4
24001ea4:	4293      	cmp	r3, r2
24001ea6:	f880 1035 	strb.w	r1, [r0, #53]	; 0x35
24001eaa:	d01e      	beq.n	24001eea <HAL_DMA_Abort_IT+0x10a>
24001eac:	4a23      	ldr	r2, [pc, #140]	; (24001f3c <HAL_DMA_Abort_IT+0x15c>)
24001eae:	4293      	cmp	r3, r2
24001eb0:	d01b      	beq.n	24001eea <HAL_DMA_Abort_IT+0x10a>
24001eb2:	3218      	adds	r2, #24
24001eb4:	4293      	cmp	r3, r2
24001eb6:	d018      	beq.n	24001eea <HAL_DMA_Abort_IT+0x10a>
24001eb8:	3218      	adds	r2, #24
24001eba:	4293      	cmp	r3, r2
24001ebc:	d015      	beq.n	24001eea <HAL_DMA_Abort_IT+0x10a>
24001ebe:	3218      	adds	r2, #24
24001ec0:	4293      	cmp	r3, r2
24001ec2:	d012      	beq.n	24001eea <HAL_DMA_Abort_IT+0x10a>
24001ec4:	3218      	adds	r2, #24
24001ec6:	4293      	cmp	r3, r2
24001ec8:	d00f      	beq.n	24001eea <HAL_DMA_Abort_IT+0x10a>
24001eca:	3218      	adds	r2, #24
24001ecc:	4293      	cmp	r3, r2
24001ece:	d00c      	beq.n	24001eea <HAL_DMA_Abort_IT+0x10a>
24001ed0:	3218      	adds	r2, #24
24001ed2:	4293      	cmp	r3, r2
24001ed4:	d009      	beq.n	24001eea <HAL_DMA_Abort_IT+0x10a>
24001ed6:	f502 7256 	add.w	r2, r2, #856	; 0x358
24001eda:	4293      	cmp	r3, r2
24001edc:	d005      	beq.n	24001eea <HAL_DMA_Abort_IT+0x10a>
24001ede:	3218      	adds	r2, #24
24001ee0:	4293      	cmp	r3, r2
24001ee2:	d002      	beq.n	24001eea <HAL_DMA_Abort_IT+0x10a>
24001ee4:	3218      	adds	r2, #24
24001ee6:	4293      	cmp	r3, r2
24001ee8:	d0ff      	beq.n	24001eea <HAL_DMA_Abort_IT+0x10a>
24001eea:	681a      	ldr	r2, [r3, #0]
24001eec:	f022 0201 	bic.w	r2, r2, #1
24001ef0:	601a      	str	r2, [r3, #0]
24001ef2:	2000      	movs	r0, #0
24001ef4:	bd10      	pop	{r4, pc}
24001ef6:	4a13      	ldr	r2, [pc, #76]	; (24001f44 <HAL_DMA_Abort_IT+0x164>)
24001ef8:	4293      	cmp	r3, r2
24001efa:	d0b8      	beq.n	24001e6e <HAL_DMA_Abort_IT+0x8e>
24001efc:	3214      	adds	r2, #20
24001efe:	4293      	cmp	r3, r2
24001f00:	d0b5      	beq.n	24001e6e <HAL_DMA_Abort_IT+0x8e>
24001f02:	3214      	adds	r2, #20
24001f04:	4293      	cmp	r3, r2
24001f06:	d0b2      	beq.n	24001e6e <HAL_DMA_Abort_IT+0x8e>
24001f08:	3214      	adds	r2, #20
24001f0a:	4293      	cmp	r3, r2
24001f0c:	d0af      	beq.n	24001e6e <HAL_DMA_Abort_IT+0x8e>
24001f0e:	3214      	adds	r2, #20
24001f10:	4293      	cmp	r3, r2
24001f12:	d0ac      	beq.n	24001e6e <HAL_DMA_Abort_IT+0x8e>
24001f14:	3214      	adds	r2, #20
24001f16:	4293      	cmp	r3, r2
24001f18:	d0a9      	beq.n	24001e6e <HAL_DMA_Abort_IT+0x8e>
24001f1a:	3214      	adds	r2, #20
24001f1c:	4293      	cmp	r3, r2
24001f1e:	d0a6      	beq.n	24001e6e <HAL_DMA_Abort_IT+0x8e>
24001f20:	2301      	movs	r3, #1
24001f22:	2400      	movs	r4, #0
24001f24:	f880 3035 	strb.w	r3, [r0, #53]	; 0x35
24001f28:	6d03      	ldr	r3, [r0, #80]	; 0x50
24001f2a:	f880 4034 	strb.w	r4, [r0, #52]	; 0x34
24001f2e:	b10b      	cbz	r3, 24001f34 <HAL_DMA_Abort_IT+0x154>
24001f30:	4798      	blx	r3
24001f32:	e7de      	b.n	24001ef2 <HAL_DMA_Abort_IT+0x112>
24001f34:	4618      	mov	r0, r3
24001f36:	e7dd      	b.n	24001ef4 <HAL_DMA_Abort_IT+0x114>
24001f38:	40020010 	.word	0x40020010
24001f3c:	40020028 	.word	0x40020028
24001f40:	58025408 	.word	0x58025408
24001f44:	5802541c 	.word	0x5802541c

24001f48 <HAL_DMA_PollForTransfer>:
24001f48:	e92d 4ff8 	stmdb	sp!, {r3, r4, r5, r6, r7, r8, r9, sl, fp, lr}
24001f4c:	4604      	mov	r4, r0
24001f4e:	460d      	mov	r5, r1
24001f50:	4692      	mov	sl, r2
24001f52:	f7fe fc27 	bl	240007a4 <HAL_GetTick>
24001f56:	4683      	mov	fp, r0
24001f58:	b144      	cbz	r4, 24001f6c <HAL_DMA_PollForTransfer+0x24>
24001f5a:	f894 3035 	ldrb.w	r3, [r4, #53]	; 0x35
24001f5e:	2b02      	cmp	r3, #2
24001f60:	d006      	beq.n	24001f70 <HAL_DMA_PollForTransfer+0x28>
24001f62:	2380      	movs	r3, #128	; 0x80
24001f64:	6563      	str	r3, [r4, #84]	; 0x54
24001f66:	2300      	movs	r3, #0
24001f68:	f884 3034 	strb.w	r3, [r4, #52]	; 0x34
24001f6c:	2501      	movs	r5, #1
24001f6e:	e0df      	b.n	24002130 <HAL_DMA_PollForTransfer+0x1e8>
24001f70:	6823      	ldr	r3, [r4, #0]
24001f72:	f8df 91f8 	ldr.w	r9, [pc, #504]	; 2400216c <HAL_DMA_PollForTransfer+0x224>
24001f76:	454b      	cmp	r3, r9
24001f78:	d034      	beq.n	24001fe4 <HAL_DMA_PollForTransfer+0x9c>
24001f7a:	4a79      	ldr	r2, [pc, #484]	; (24002160 <HAL_DMA_PollForTransfer+0x218>)
24001f7c:	4293      	cmp	r3, r2
24001f7e:	d031      	beq.n	24001fe4 <HAL_DMA_PollForTransfer+0x9c>
24001f80:	3218      	adds	r2, #24
24001f82:	4293      	cmp	r3, r2
24001f84:	d02e      	beq.n	24001fe4 <HAL_DMA_PollForTransfer+0x9c>
24001f86:	3218      	adds	r2, #24
24001f88:	4293      	cmp	r3, r2
24001f8a:	d02b      	beq.n	24001fe4 <HAL_DMA_PollForTransfer+0x9c>
24001f8c:	3218      	adds	r2, #24
24001f8e:	4293      	cmp	r3, r2
24001f90:	d028      	beq.n	24001fe4 <HAL_DMA_PollForTransfer+0x9c>
24001f92:	3218      	adds	r2, #24
24001f94:	4293      	cmp	r3, r2
24001f96:	d025      	beq.n	24001fe4 <HAL_DMA_PollForTransfer+0x9c>
24001f98:	3218      	adds	r2, #24
24001f9a:	4293      	cmp	r3, r2
24001f9c:	d022      	beq.n	24001fe4 <HAL_DMA_PollForTransfer+0x9c>
24001f9e:	3218      	adds	r2, #24
24001fa0:	4293      	cmp	r3, r2
24001fa2:	d01f      	beq.n	24001fe4 <HAL_DMA_PollForTransfer+0x9c>
24001fa4:	f502 7256 	add.w	r2, r2, #856	; 0x358
24001fa8:	4293      	cmp	r3, r2
24001faa:	d01b      	beq.n	24001fe4 <HAL_DMA_PollForTransfer+0x9c>
24001fac:	3218      	adds	r2, #24
24001fae:	4293      	cmp	r3, r2
24001fb0:	d018      	beq.n	24001fe4 <HAL_DMA_PollForTransfer+0x9c>
24001fb2:	3218      	adds	r2, #24
24001fb4:	4293      	cmp	r3, r2
24001fb6:	d015      	beq.n	24001fe4 <HAL_DMA_PollForTransfer+0x9c>
24001fb8:	3218      	adds	r2, #24
24001fba:	4293      	cmp	r3, r2
24001fbc:	d012      	beq.n	24001fe4 <HAL_DMA_PollForTransfer+0x9c>
24001fbe:	3218      	adds	r2, #24
24001fc0:	4293      	cmp	r3, r2
24001fc2:	d00f      	beq.n	24001fe4 <HAL_DMA_PollForTransfer+0x9c>
24001fc4:	3218      	adds	r2, #24
24001fc6:	4293      	cmp	r3, r2
24001fc8:	d00c      	beq.n	24001fe4 <HAL_DMA_PollForTransfer+0x9c>
24001fca:	3218      	adds	r2, #24
24001fcc:	4293      	cmp	r3, r2
24001fce:	d009      	beq.n	24001fe4 <HAL_DMA_PollForTransfer+0x9c>
24001fd0:	3218      	adds	r2, #24
24001fd2:	4293      	cmp	r3, r2
24001fd4:	d006      	beq.n	24001fe4 <HAL_DMA_PollForTransfer+0x9c>
24001fd6:	681b      	ldr	r3, [r3, #0]
24001fd8:	069a      	lsls	r2, r3, #26
24001fda:	d516      	bpl.n	2400200a <HAL_DMA_PollForTransfer+0xc2>
24001fdc:	f44f 7380 	mov.w	r3, #256	; 0x100
24001fe0:	6563      	str	r3, [r4, #84]	; 0x54
24001fe2:	e7c3      	b.n	24001f6c <HAL_DMA_PollForTransfer+0x24>
24001fe4:	681b      	ldr	r3, [r3, #0]
24001fe6:	05db      	lsls	r3, r3, #23
24001fe8:	d4f8      	bmi.n	24001fdc <HAL_DMA_PollForTransfer+0x94>
24001fea:	6de6      	ldr	r6, [r4, #92]	; 0x5c
24001fec:	f006 061f 	and.w	r6, r6, #31
24001ff0:	b94d      	cbnz	r5, 24002006 <HAL_DMA_PollForTransfer+0xbe>
24001ff2:	2320      	movs	r3, #32
24001ff4:	6da7      	ldr	r7, [r4, #88]	; 0x58
24001ff6:	fa03 f606 	lsl.w	r6, r3, r6
24001ffa:	f107 0808 	add.w	r8, r7, #8
24001ffe:	4b58      	ldr	r3, [pc, #352]	; (24002160 <HAL_DMA_PollForTransfer+0x218>)
24002000:	4a58      	ldr	r2, [pc, #352]	; (24002164 <HAL_DMA_PollForTransfer+0x21c>)
24002002:	4959      	ldr	r1, [pc, #356]	; (24002168 <HAL_DMA_PollForTransfer+0x220>)
24002004:	e12d      	b.n	24002262 <HAL_DMA_PollForTransfer+0x31a>
24002006:	2310      	movs	r3, #16
24002008:	e7f4      	b.n	24001ff4 <HAL_DMA_PollForTransfer+0xac>
2400200a:	6de6      	ldr	r6, [r4, #92]	; 0x5c
2400200c:	f006 061f 	and.w	r6, r6, #31
24002010:	b935      	cbnz	r5, 24002020 <HAL_DMA_PollForTransfer+0xd8>
24002012:	2302      	movs	r3, #2
24002014:	6da7      	ldr	r7, [r4, #88]	; 0x58
24002016:	fa03 f606 	lsl.w	r6, r3, r6
2400201a:	f107 0804 	add.w	r8, r7, #4
2400201e:	e7ee      	b.n	24001ffe <HAL_DMA_PollForTransfer+0xb6>
24002020:	2304      	movs	r3, #4
24002022:	e7f7      	b.n	24002014 <HAL_DMA_PollForTransfer+0xcc>
24002024:	45cc      	cmp	ip, r9
24002026:	d044      	beq.n	240020b2 <HAL_DMA_PollForTransfer+0x16a>
24002028:	459c      	cmp	ip, r3
2400202a:	d042      	beq.n	240020b2 <HAL_DMA_PollForTransfer+0x16a>
2400202c:	4594      	cmp	ip, r2
2400202e:	d040      	beq.n	240020b2 <HAL_DMA_PollForTransfer+0x16a>
24002030:	458c      	cmp	ip, r1
24002032:	d03e      	beq.n	240020b2 <HAL_DMA_PollForTransfer+0x16a>
24002034:	f8df e138 	ldr.w	lr, [pc, #312]	; 24002170 <HAL_DMA_PollForTransfer+0x228>
24002038:	45f4      	cmp	ip, lr
2400203a:	d03a      	beq.n	240020b2 <HAL_DMA_PollForTransfer+0x16a>
2400203c:	f10e 0e18 	add.w	lr, lr, #24
24002040:	45f4      	cmp	ip, lr
24002042:	d036      	beq.n	240020b2 <HAL_DMA_PollForTransfer+0x16a>
24002044:	f10e 0e18 	add.w	lr, lr, #24
24002048:	45f4      	cmp	ip, lr
2400204a:	d032      	beq.n	240020b2 <HAL_DMA_PollForTransfer+0x16a>
2400204c:	f10e 0e18 	add.w	lr, lr, #24
24002050:	45f4      	cmp	ip, lr
24002052:	d02e      	beq.n	240020b2 <HAL_DMA_PollForTransfer+0x16a>
24002054:	f50e 7e56 	add.w	lr, lr, #856	; 0x358
24002058:	45f4      	cmp	ip, lr
2400205a:	d02a      	beq.n	240020b2 <HAL_DMA_PollForTransfer+0x16a>
2400205c:	f10e 0e18 	add.w	lr, lr, #24
24002060:	45f4      	cmp	ip, lr
24002062:	d026      	beq.n	240020b2 <HAL_DMA_PollForTransfer+0x16a>
24002064:	f10e 0e18 	add.w	lr, lr, #24
24002068:	45f4      	cmp	ip, lr
2400206a:	d022      	beq.n	240020b2 <HAL_DMA_PollForTransfer+0x16a>
2400206c:	f10e 0e18 	add.w	lr, lr, #24
24002070:	45f4      	cmp	ip, lr
24002072:	d01e      	beq.n	240020b2 <HAL_DMA_PollForTransfer+0x16a>
24002074:	f10e 0e18 	add.w	lr, lr, #24
24002078:	45f4      	cmp	ip, lr
2400207a:	d01a      	beq.n	240020b2 <HAL_DMA_PollForTransfer+0x16a>
2400207c:	f10e 0e18 	add.w	lr, lr, #24
24002080:	45f4      	cmp	ip, lr
24002082:	d016      	beq.n	240020b2 <HAL_DMA_PollForTransfer+0x16a>
24002084:	f10e 0e18 	add.w	lr, lr, #24
24002088:	45f4      	cmp	ip, lr
2400208a:	d012      	beq.n	240020b2 <HAL_DMA_PollForTransfer+0x16a>
2400208c:	f10e 0e18 	add.w	lr, lr, #24
24002090:	45f4      	cmp	ip, lr
24002092:	d00e      	beq.n	240020b2 <HAL_DMA_PollForTransfer+0x16a>
24002094:	f04f 0c08 	mov.w	ip, #8
24002098:	f8d7 e000 	ldr.w	lr, [r7]
2400209c:	fa0c fc00 	lsl.w	ip, ip, r0
240020a0:	ea1c 0f0e 	tst.w	ip, lr
240020a4:	d047      	beq.n	24002136 <HAL_DMA_PollForTransfer+0x1ee>
240020a6:	2501      	movs	r5, #1
240020a8:	fa05 f000 	lsl.w	r0, r5, r0
240020ac:	6038      	str	r0, [r7, #0]
240020ae:	6565      	str	r5, [r4, #84]	; 0x54
240020b0:	e039      	b.n	24002126 <HAL_DMA_PollForTransfer+0x1de>
240020b2:	f8d7 c000 	ldr.w	ip, [r7]
240020b6:	fa2c fc00 	lsr.w	ip, ip, r0
240020ba:	f01c 0f01 	tst.w	ip, #1
240020be:	d00b      	beq.n	240020d8 <HAL_DMA_PollForTransfer+0x190>
240020c0:	f8d4 c054 	ldr.w	ip, [r4, #84]	; 0x54
240020c4:	f04c 0c02 	orr.w	ip, ip, #2
240020c8:	f8c4 c054 	str.w	ip, [r4, #84]	; 0x54
240020cc:	f04f 0c01 	mov.w	ip, #1
240020d0:	fa0c f000 	lsl.w	r0, ip, r0
240020d4:	f8c8 0000 	str.w	r0, [r8]
240020d8:	6de0      	ldr	r0, [r4, #92]	; 0x5c
240020da:	f04f 0e04 	mov.w	lr, #4
240020de:	f8d7 c000 	ldr.w	ip, [r7]
240020e2:	f000 001f 	and.w	r0, r0, #31
240020e6:	fa0e f000 	lsl.w	r0, lr, r0
240020ea:	ea1c 0f00 	tst.w	ip, r0
240020ee:	d007      	beq.n	24002100 <HAL_DMA_PollForTransfer+0x1b8>
240020f0:	f8d4 c054 	ldr.w	ip, [r4, #84]	; 0x54
240020f4:	ea4c 0c0e 	orr.w	ip, ip, lr
240020f8:	f8c4 c054 	str.w	ip, [r4, #84]	; 0x54
240020fc:	f8c8 0000 	str.w	r0, [r8]
24002100:	6de0      	ldr	r0, [r4, #92]	; 0x5c
24002102:	f04f 0e08 	mov.w	lr, #8
24002106:	f8d7 c000 	ldr.w	ip, [r7]
2400210a:	f000 001f 	and.w	r0, r0, #31
2400210e:	fa0e f000 	lsl.w	r0, lr, r0
24002112:	ea1c 0f00 	tst.w	ip, r0
24002116:	d00e      	beq.n	24002136 <HAL_DMA_PollForTransfer+0x1ee>
24002118:	6d63      	ldr	r3, [r4, #84]	; 0x54
2400211a:	2501      	movs	r5, #1
2400211c:	f043 0301 	orr.w	r3, r3, #1
24002120:	6563      	str	r3, [r4, #84]	; 0x54
24002122:	f8c8 0000 	str.w	r0, [r8]
24002126:	2300      	movs	r3, #0
24002128:	f884 5035 	strb.w	r5, [r4, #53]	; 0x35
2400212c:	f884 3034 	strb.w	r3, [r4, #52]	; 0x34
24002130:	4628      	mov	r0, r5
24002132:	e8bd 8ff8 	ldmia.w	sp!, {r3, r4, r5, r6, r7, r8, r9, sl, fp, pc}
24002136:	f1ba 3fff 	cmp.w	sl, #4294967295
2400213a:	d01b      	beq.n	24002174 <HAL_DMA_PollForTransfer+0x22c>
2400213c:	f7fe fb32 	bl	240007a4 <HAL_GetTick>
24002140:	eba0 000b 	sub.w	r0, r0, fp
24002144:	4550      	cmp	r0, sl
24002146:	d805      	bhi.n	24002154 <HAL_DMA_PollForTransfer+0x20c>
24002148:	4b05      	ldr	r3, [pc, #20]	; (24002160 <HAL_DMA_PollForTransfer+0x218>)
2400214a:	4a06      	ldr	r2, [pc, #24]	; (24002164 <HAL_DMA_PollForTransfer+0x21c>)
2400214c:	4906      	ldr	r1, [pc, #24]	; (24002168 <HAL_DMA_PollForTransfer+0x220>)
2400214e:	f1ba 0f00 	cmp.w	sl, #0
24002152:	d10f      	bne.n	24002174 <HAL_DMA_PollForTransfer+0x22c>
24002154:	2320      	movs	r3, #32
24002156:	4620      	mov	r0, r4
24002158:	6563      	str	r3, [r4, #84]	; 0x54
2400215a:	f7ff fc95 	bl	24001a88 <HAL_DMA_Abort>
2400215e:	e705      	b.n	24001f6c <HAL_DMA_PollForTransfer+0x24>
24002160:	40020028 	.word	0x40020028
24002164:	40020040 	.word	0x40020040
24002168:	40020058 	.word	0x40020058
2400216c:	40020010 	.word	0x40020010
24002170:	40020070 	.word	0x40020070
24002174:	6820      	ldr	r0, [r4, #0]
24002176:	4548      	cmp	r0, r9
24002178:	d055      	beq.n	24002226 <HAL_DMA_PollForTransfer+0x2de>
2400217a:	4298      	cmp	r0, r3
2400217c:	d053      	beq.n	24002226 <HAL_DMA_PollForTransfer+0x2de>
2400217e:	4290      	cmp	r0, r2
24002180:	d051      	beq.n	24002226 <HAL_DMA_PollForTransfer+0x2de>
24002182:	4288      	cmp	r0, r1
24002184:	d04f      	beq.n	24002226 <HAL_DMA_PollForTransfer+0x2de>
24002186:	f8df c1e4 	ldr.w	ip, [pc, #484]	; 2400236c <HAL_DMA_PollForTransfer+0x424>
2400218a:	4560      	cmp	r0, ip
2400218c:	d04b      	beq.n	24002226 <HAL_DMA_PollForTransfer+0x2de>
2400218e:	f10c 0c18 	add.w	ip, ip, #24
24002192:	4560      	cmp	r0, ip
24002194:	d047      	beq.n	24002226 <HAL_DMA_PollForTransfer+0x2de>
24002196:	f10c 0c18 	add.w	ip, ip, #24
2400219a:	4560      	cmp	r0, ip
2400219c:	d043      	beq.n	24002226 <HAL_DMA_PollForTransfer+0x2de>
2400219e:	f10c 0c18 	add.w	ip, ip, #24
240021a2:	4560      	cmp	r0, ip
240021a4:	d03f      	beq.n	24002226 <HAL_DMA_PollForTransfer+0x2de>
240021a6:	f50c 7c56 	add.w	ip, ip, #856	; 0x358
240021aa:	4560      	cmp	r0, ip
240021ac:	d03b      	beq.n	24002226 <HAL_DMA_PollForTransfer+0x2de>
240021ae:	f10c 0c18 	add.w	ip, ip, #24
240021b2:	4560      	cmp	r0, ip
240021b4:	d037      	beq.n	24002226 <HAL_DMA_PollForTransfer+0x2de>
240021b6:	f10c 0c18 	add.w	ip, ip, #24
240021ba:	4560      	cmp	r0, ip
240021bc:	d033      	beq.n	24002226 <HAL_DMA_PollForTransfer+0x2de>
240021be:	f10c 0c18 	add.w	ip, ip, #24
240021c2:	4560      	cmp	r0, ip
240021c4:	d02f      	beq.n	24002226 <HAL_DMA_PollForTransfer+0x2de>
240021c6:	f10c 0c18 	add.w	ip, ip, #24
240021ca:	4560      	cmp	r0, ip
240021cc:	d02b      	beq.n	24002226 <HAL_DMA_PollForTransfer+0x2de>
240021ce:	f10c 0c18 	add.w	ip, ip, #24
240021d2:	4560      	cmp	r0, ip
240021d4:	d027      	beq.n	24002226 <HAL_DMA_PollForTransfer+0x2de>
240021d6:	f10c 0c18 	add.w	ip, ip, #24
240021da:	4560      	cmp	r0, ip
240021dc:	d023      	beq.n	24002226 <HAL_DMA_PollForTransfer+0x2de>
240021de:	f10c 0c18 	add.w	ip, ip, #24
240021e2:	4560      	cmp	r0, ip
240021e4:	d01f      	beq.n	24002226 <HAL_DMA_PollForTransfer+0x2de>
240021e6:	f8df c188 	ldr.w	ip, [pc, #392]	; 24002370 <HAL_DMA_PollForTransfer+0x428>
240021ea:	4560      	cmp	r0, ip
240021ec:	d01b      	beq.n	24002226 <HAL_DMA_PollForTransfer+0x2de>
240021ee:	f10c 0c14 	add.w	ip, ip, #20
240021f2:	4560      	cmp	r0, ip
240021f4:	d017      	beq.n	24002226 <HAL_DMA_PollForTransfer+0x2de>
240021f6:	f10c 0c14 	add.w	ip, ip, #20
240021fa:	4560      	cmp	r0, ip
240021fc:	d013      	beq.n	24002226 <HAL_DMA_PollForTransfer+0x2de>
240021fe:	f10c 0c14 	add.w	ip, ip, #20
24002202:	4560      	cmp	r0, ip
24002204:	d00f      	beq.n	24002226 <HAL_DMA_PollForTransfer+0x2de>
24002206:	f10c 0c14 	add.w	ip, ip, #20
2400220a:	4560      	cmp	r0, ip
2400220c:	d00b      	beq.n	24002226 <HAL_DMA_PollForTransfer+0x2de>
2400220e:	f10c 0c14 	add.w	ip, ip, #20
24002212:	4560      	cmp	r0, ip
24002214:	d007      	beq.n	24002226 <HAL_DMA_PollForTransfer+0x2de>
24002216:	f10c 0c14 	add.w	ip, ip, #20
2400221a:	4560      	cmp	r0, ip
2400221c:	d003      	beq.n	24002226 <HAL_DMA_PollForTransfer+0x2de>
2400221e:	f10c 0c14 	add.w	ip, ip, #20
24002222:	4560      	cmp	r0, ip
24002224:	d11d      	bne.n	24002262 <HAL_DMA_PollForTransfer+0x31a>
24002226:	6ee0      	ldr	r0, [r4, #108]	; 0x6c
24002228:	b168      	cbz	r0, 24002246 <HAL_DMA_PollForTransfer+0x2fe>
2400222a:	6f20      	ldr	r0, [r4, #112]	; 0x70
2400222c:	f8d4 c074 	ldr.w	ip, [r4, #116]	; 0x74
24002230:	f8d0 e000 	ldr.w	lr, [r0]
24002234:	ea1e 0f0c 	tst.w	lr, ip
24002238:	d005      	beq.n	24002246 <HAL_DMA_PollForTransfer+0x2fe>
2400223a:	f8c0 c004 	str.w	ip, [r0, #4]
2400223e:	6d60      	ldr	r0, [r4, #84]	; 0x54
24002240:	f440 6080 	orr.w	r0, r0, #1024	; 0x400
24002244:	6560      	str	r0, [r4, #84]	; 0x54
24002246:	6e60      	ldr	r0, [r4, #100]	; 0x64
24002248:	f8d4 c068 	ldr.w	ip, [r4, #104]	; 0x68
2400224c:	f8d0 e000 	ldr.w	lr, [r0]
24002250:	ea1e 0f0c 	tst.w	lr, ip
24002254:	d005      	beq.n	24002262 <HAL_DMA_PollForTransfer+0x31a>
24002256:	f8c0 c004 	str.w	ip, [r0, #4]
2400225a:	6d60      	ldr	r0, [r4, #84]	; 0x54
2400225c:	f440 7000 	orr.w	r0, r0, #512	; 0x200
24002260:	6560      	str	r0, [r4, #84]	; 0x54
24002262:	f8d7 e000 	ldr.w	lr, [r7]
24002266:	6de0      	ldr	r0, [r4, #92]	; 0x5c
24002268:	ea1e 0f06 	tst.w	lr, r6
2400226c:	f8d4 c000 	ldr.w	ip, [r4]
24002270:	f000 001f 	and.w	r0, r0, #31
24002274:	f43f aed6 	beq.w	24002024 <HAL_DMA_PollForTransfer+0xdc>
24002278:	bbed      	cbnz	r5, 240022f6 <HAL_DMA_PollForTransfer+0x3ae>
2400227a:	45cc      	cmp	ip, r9
2400227c:	d039      	beq.n	240022f2 <HAL_DMA_PollForTransfer+0x3aa>
2400227e:	4b3a      	ldr	r3, [pc, #232]	; (24002368 <HAL_DMA_PollForTransfer+0x420>)
24002280:	459c      	cmp	ip, r3
24002282:	d036      	beq.n	240022f2 <HAL_DMA_PollForTransfer+0x3aa>
24002284:	3318      	adds	r3, #24
24002286:	459c      	cmp	ip, r3
24002288:	d033      	beq.n	240022f2 <HAL_DMA_PollForTransfer+0x3aa>
2400228a:	3318      	adds	r3, #24
2400228c:	459c      	cmp	ip, r3
2400228e:	d030      	beq.n	240022f2 <HAL_DMA_PollForTransfer+0x3aa>
24002290:	3318      	adds	r3, #24
24002292:	459c      	cmp	ip, r3
24002294:	d02d      	beq.n	240022f2 <HAL_DMA_PollForTransfer+0x3aa>
24002296:	3318      	adds	r3, #24
24002298:	459c      	cmp	ip, r3
2400229a:	d02a      	beq.n	240022f2 <HAL_DMA_PollForTransfer+0x3aa>
2400229c:	3318      	adds	r3, #24
2400229e:	459c      	cmp	ip, r3
240022a0:	d027      	beq.n	240022f2 <HAL_DMA_PollForTransfer+0x3aa>
240022a2:	3318      	adds	r3, #24
240022a4:	459c      	cmp	ip, r3
240022a6:	d024      	beq.n	240022f2 <HAL_DMA_PollForTransfer+0x3aa>
240022a8:	f503 7356 	add.w	r3, r3, #856	; 0x358
240022ac:	459c      	cmp	ip, r3
240022ae:	d020      	beq.n	240022f2 <HAL_DMA_PollForTransfer+0x3aa>
240022b0:	3318      	adds	r3, #24
240022b2:	459c      	cmp	ip, r3
240022b4:	d01d      	beq.n	240022f2 <HAL_DMA_PollForTransfer+0x3aa>
240022b6:	3318      	adds	r3, #24
240022b8:	459c      	cmp	ip, r3
240022ba:	d01a      	beq.n	240022f2 <HAL_DMA_PollForTransfer+0x3aa>
240022bc:	3318      	adds	r3, #24
240022be:	459c      	cmp	ip, r3
240022c0:	d017      	beq.n	240022f2 <HAL_DMA_PollForTransfer+0x3aa>
240022c2:	3318      	adds	r3, #24
240022c4:	459c      	cmp	ip, r3
240022c6:	d014      	beq.n	240022f2 <HAL_DMA_PollForTransfer+0x3aa>
240022c8:	3318      	adds	r3, #24
240022ca:	459c      	cmp	ip, r3
240022cc:	d011      	beq.n	240022f2 <HAL_DMA_PollForTransfer+0x3aa>
240022ce:	3318      	adds	r3, #24
240022d0:	459c      	cmp	ip, r3
240022d2:	d00e      	beq.n	240022f2 <HAL_DMA_PollForTransfer+0x3aa>
240022d4:	3318      	adds	r3, #24
240022d6:	459c      	cmp	ip, r3
240022d8:	d00b      	beq.n	240022f2 <HAL_DMA_PollForTransfer+0x3aa>
240022da:	2302      	movs	r3, #2
240022dc:	fa03 f000 	lsl.w	r0, r3, r0
240022e0:	2300      	movs	r3, #0
240022e2:	f8c8 0000 	str.w	r0, [r8]
240022e6:	f884 3034 	strb.w	r3, [r4, #52]	; 0x34
240022ea:	2301      	movs	r3, #1
240022ec:	f884 3035 	strb.w	r3, [r4, #53]	; 0x35
240022f0:	e71e      	b.n	24002130 <HAL_DMA_PollForTransfer+0x1e8>
240022f2:	2330      	movs	r3, #48	; 0x30
240022f4:	e7f2      	b.n	240022dc <HAL_DMA_PollForTransfer+0x394>
240022f6:	45cc      	cmp	ip, r9
240022f8:	d034      	beq.n	24002364 <HAL_DMA_PollForTransfer+0x41c>
240022fa:	4b1b      	ldr	r3, [pc, #108]	; (24002368 <HAL_DMA_PollForTransfer+0x420>)
240022fc:	459c      	cmp	ip, r3
240022fe:	d031      	beq.n	24002364 <HAL_DMA_PollForTransfer+0x41c>
24002300:	3318      	adds	r3, #24
24002302:	459c      	cmp	ip, r3
24002304:	d02e      	beq.n	24002364 <HAL_DMA_PollForTransfer+0x41c>
24002306:	3318      	adds	r3, #24
24002308:	459c      	cmp	ip, r3
2400230a:	d02b      	beq.n	24002364 <HAL_DMA_PollForTransfer+0x41c>
2400230c:	3318      	adds	r3, #24
2400230e:	459c      	cmp	ip, r3
24002310:	d028      	beq.n	24002364 <HAL_DMA_PollForTransfer+0x41c>
24002312:	3318      	adds	r3, #24
24002314:	459c      	cmp	ip, r3
24002316:	d025      	beq.n	24002364 <HAL_DMA_PollForTransfer+0x41c>
24002318:	3318      	adds	r3, #24
2400231a:	459c      	cmp	ip, r3
2400231c:	d022      	beq.n	24002364 <HAL_DMA_PollForTransfer+0x41c>
2400231e:	3318      	adds	r3, #24
24002320:	459c      	cmp	ip, r3
24002322:	d01f      	beq.n	24002364 <HAL_DMA_PollForTransfer+0x41c>
24002324:	f503 7356 	add.w	r3, r3, #856	; 0x358
24002328:	459c      	cmp	ip, r3
2400232a:	d01b      	beq.n	24002364 <HAL_DMA_PollForTransfer+0x41c>
2400232c:	3318      	adds	r3, #24
2400232e:	459c      	cmp	ip, r3
24002330:	d018      	beq.n	24002364 <HAL_DMA_PollForTransfer+0x41c>
24002332:	3318      	adds	r3, #24
24002334:	459c      	cmp	ip, r3
24002336:	d015      	beq.n	24002364 <HAL_DMA_PollForTransfer+0x41c>
24002338:	3318      	adds	r3, #24
2400233a:	459c      	cmp	ip, r3
2400233c:	d012      	beq.n	24002364 <HAL_DMA_PollForTransfer+0x41c>
2400233e:	3318      	adds	r3, #24
24002340:	459c      	cmp	ip, r3
24002342:	d00f      	beq.n	24002364 <HAL_DMA_PollForTransfer+0x41c>
24002344:	3318      	adds	r3, #24
24002346:	459c      	cmp	ip, r3
24002348:	d00c      	beq.n	24002364 <HAL_DMA_PollForTransfer+0x41c>
2400234a:	3318      	adds	r3, #24
2400234c:	459c      	cmp	ip, r3
2400234e:	d009      	beq.n	24002364 <HAL_DMA_PollForTransfer+0x41c>
24002350:	3318      	adds	r3, #24
24002352:	459c      	cmp	ip, r3
24002354:	d006      	beq.n	24002364 <HAL_DMA_PollForTransfer+0x41c>
24002356:	2304      	movs	r3, #4
24002358:	fa03 f000 	lsl.w	r0, r3, r0
2400235c:	2500      	movs	r5, #0
2400235e:	f8c8 0000 	str.w	r0, [r8]
24002362:	e6e5      	b.n	24002130 <HAL_DMA_PollForTransfer+0x1e8>
24002364:	2310      	movs	r3, #16
24002366:	e7f7      	b.n	24002358 <HAL_DMA_PollForTransfer+0x410>
24002368:	40020028 	.word	0x40020028
2400236c:	40020070 	.word	0x40020070
24002370:	58025408 	.word	0x58025408

24002374 <HAL_DMA_IRQHandler>:
24002374:	2300      	movs	r3, #0
24002376:	e92d 41f3 	stmdb	sp!, {r0, r1, r4, r5, r6, r7, r8, lr}
2400237a:	9301      	str	r3, [sp, #4]
2400237c:	4604      	mov	r4, r0
2400237e:	4b29      	ldr	r3, [pc, #164]	; (24002424 <HAL_DMA_IRQHandler+0xb0>)
24002380:	4e29      	ldr	r6, [pc, #164]	; (24002428 <HAL_DMA_IRQHandler+0xb4>)
24002382:	681f      	ldr	r7, [r3, #0]
24002384:	6803      	ldr	r3, [r0, #0]
24002386:	6d85      	ldr	r5, [r0, #88]	; 0x58
24002388:	42b3      	cmp	r3, r6
2400238a:	f8d5 8000 	ldr.w	r8, [r5]
2400238e:	f8d5 c000 	ldr.w	ip, [r5]
24002392:	d04f      	beq.n	24002434 <HAL_DMA_IRQHandler+0xc0>
24002394:	4a25      	ldr	r2, [pc, #148]	; (2400242c <HAL_DMA_IRQHandler+0xb8>)
24002396:	4293      	cmp	r3, r2
24002398:	d04c      	beq.n	24002434 <HAL_DMA_IRQHandler+0xc0>
2400239a:	3218      	adds	r2, #24
2400239c:	4293      	cmp	r3, r2
2400239e:	d049      	beq.n	24002434 <HAL_DMA_IRQHandler+0xc0>
240023a0:	3218      	adds	r2, #24
240023a2:	4293      	cmp	r3, r2
240023a4:	d046      	beq.n	24002434 <HAL_DMA_IRQHandler+0xc0>
240023a6:	3218      	adds	r2, #24
240023a8:	4293      	cmp	r3, r2
240023aa:	d043      	beq.n	24002434 <HAL_DMA_IRQHandler+0xc0>
240023ac:	3218      	adds	r2, #24
240023ae:	4293      	cmp	r3, r2
240023b0:	d040      	beq.n	24002434 <HAL_DMA_IRQHandler+0xc0>
240023b2:	3218      	adds	r2, #24
240023b4:	4293      	cmp	r3, r2
240023b6:	d03d      	beq.n	24002434 <HAL_DMA_IRQHandler+0xc0>
240023b8:	3218      	adds	r2, #24
240023ba:	4293      	cmp	r3, r2
240023bc:	d03a      	beq.n	24002434 <HAL_DMA_IRQHandler+0xc0>
240023be:	f502 7256 	add.w	r2, r2, #856	; 0x358
240023c2:	4293      	cmp	r3, r2
240023c4:	d036      	beq.n	24002434 <HAL_DMA_IRQHandler+0xc0>
240023c6:	3218      	adds	r2, #24
240023c8:	4293      	cmp	r3, r2
240023ca:	d033      	beq.n	24002434 <HAL_DMA_IRQHandler+0xc0>
240023cc:	3218      	adds	r2, #24
240023ce:	4293      	cmp	r3, r2
240023d0:	d030      	beq.n	24002434 <HAL_DMA_IRQHandler+0xc0>
240023d2:	3218      	adds	r2, #24
240023d4:	4293      	cmp	r3, r2
240023d6:	d02d      	beq.n	24002434 <HAL_DMA_IRQHandler+0xc0>
240023d8:	3218      	adds	r2, #24
240023da:	4293      	cmp	r3, r2
240023dc:	d02a      	beq.n	24002434 <HAL_DMA_IRQHandler+0xc0>
240023de:	3218      	adds	r2, #24
240023e0:	4293      	cmp	r3, r2
240023e2:	d027      	beq.n	24002434 <HAL_DMA_IRQHandler+0xc0>
240023e4:	3218      	adds	r2, #24
240023e6:	4293      	cmp	r3, r2
240023e8:	d024      	beq.n	24002434 <HAL_DMA_IRQHandler+0xc0>
240023ea:	3218      	adds	r2, #24
240023ec:	4293      	cmp	r3, r2
240023ee:	d021      	beq.n	24002434 <HAL_DMA_IRQHandler+0xc0>
240023f0:	4a0f      	ldr	r2, [pc, #60]	; (24002430 <HAL_DMA_IRQHandler+0xbc>)
240023f2:	4293      	cmp	r3, r2
240023f4:	f040 820c 	bne.w	24002810 <HAL_DMA_IRQHandler+0x49c>
240023f8:	6de1      	ldr	r1, [r4, #92]	; 0x5c
240023fa:	2004      	movs	r0, #4
240023fc:	681a      	ldr	r2, [r3, #0]
240023fe:	f001 011f 	and.w	r1, r1, #31
24002402:	4088      	lsls	r0, r1
24002404:	ea10 0f0c 	tst.w	r0, ip
24002408:	f000 8229 	beq.w	2400285e <HAL_DMA_IRQHandler+0x4ea>
2400240c:	0756      	lsls	r6, r2, #29
2400240e:	f140 8226 	bpl.w	2400285e <HAL_DMA_IRQHandler+0x4ea>
24002412:	0411      	lsls	r1, r2, #16
24002414:	6068      	str	r0, [r5, #4]
24002416:	f140 821a 	bpl.w	2400284e <HAL_DMA_IRQHandler+0x4da>
2400241a:	03d3      	lsls	r3, r2, #15
2400241c:	f100 821d 	bmi.w	2400285a <HAL_DMA_IRQHandler+0x4e6>
24002420:	6ca3      	ldr	r3, [r4, #72]	; 0x48
24002422:	e180      	b.n	24002726 <HAL_DMA_IRQHandler+0x3b2>
24002424:	240004b8 	.word	0x240004b8
24002428:	40020010 	.word	0x40020010
2400242c:	40020028 	.word	0x40020028
24002430:	58025408 	.word	0x58025408
24002434:	6de2      	ldr	r2, [r4, #92]	; 0x5c
24002436:	2008      	movs	r0, #8
24002438:	f002 021f 	and.w	r2, r2, #31
2400243c:	4090      	lsls	r0, r2
2400243e:	ea10 0f08 	tst.w	r0, r8
24002442:	d03d      	beq.n	240024c0 <HAL_DMA_IRQHandler+0x14c>
24002444:	42b3      	cmp	r3, r6
24002446:	d02e      	beq.n	240024a6 <HAL_DMA_IRQHandler+0x132>
24002448:	4985      	ldr	r1, [pc, #532]	; (24002660 <HAL_DMA_IRQHandler+0x2ec>)
2400244a:	428b      	cmp	r3, r1
2400244c:	d02b      	beq.n	240024a6 <HAL_DMA_IRQHandler+0x132>
2400244e:	3118      	adds	r1, #24
24002450:	428b      	cmp	r3, r1
24002452:	d028      	beq.n	240024a6 <HAL_DMA_IRQHandler+0x132>
24002454:	3118      	adds	r1, #24
24002456:	428b      	cmp	r3, r1
24002458:	d025      	beq.n	240024a6 <HAL_DMA_IRQHandler+0x132>
2400245a:	3118      	adds	r1, #24
2400245c:	428b      	cmp	r3, r1
2400245e:	d022      	beq.n	240024a6 <HAL_DMA_IRQHandler+0x132>
24002460:	3118      	adds	r1, #24
24002462:	428b      	cmp	r3, r1
24002464:	d01f      	beq.n	240024a6 <HAL_DMA_IRQHandler+0x132>
24002466:	3118      	adds	r1, #24
24002468:	428b      	cmp	r3, r1
2400246a:	d01c      	beq.n	240024a6 <HAL_DMA_IRQHandler+0x132>
2400246c:	3118      	adds	r1, #24
2400246e:	428b      	cmp	r3, r1
24002470:	d019      	beq.n	240024a6 <HAL_DMA_IRQHandler+0x132>
24002472:	f501 7156 	add.w	r1, r1, #856	; 0x358
24002476:	428b      	cmp	r3, r1
24002478:	d015      	beq.n	240024a6 <HAL_DMA_IRQHandler+0x132>
2400247a:	3118      	adds	r1, #24
2400247c:	428b      	cmp	r3, r1
2400247e:	d012      	beq.n	240024a6 <HAL_DMA_IRQHandler+0x132>
24002480:	3118      	adds	r1, #24
24002482:	428b      	cmp	r3, r1
24002484:	d00f      	beq.n	240024a6 <HAL_DMA_IRQHandler+0x132>
24002486:	3118      	adds	r1, #24
24002488:	428b      	cmp	r3, r1
2400248a:	d00c      	beq.n	240024a6 <HAL_DMA_IRQHandler+0x132>
2400248c:	3118      	adds	r1, #24
2400248e:	428b      	cmp	r3, r1
24002490:	d009      	beq.n	240024a6 <HAL_DMA_IRQHandler+0x132>
24002492:	3118      	adds	r1, #24
24002494:	428b      	cmp	r3, r1
24002496:	d006      	beq.n	240024a6 <HAL_DMA_IRQHandler+0x132>
24002498:	3118      	adds	r1, #24
2400249a:	428b      	cmp	r3, r1
2400249c:	d003      	beq.n	240024a6 <HAL_DMA_IRQHandler+0x132>
2400249e:	3118      	adds	r1, #24
240024a0:	428b      	cmp	r3, r1
240024a2:	f040 80c2 	bne.w	2400262a <HAL_DMA_IRQHandler+0x2b6>
240024a6:	6819      	ldr	r1, [r3, #0]
240024a8:	f3c1 0180 	ubfx	r1, r1, #2, #1
240024ac:	b141      	cbz	r1, 240024c0 <HAL_DMA_IRQHandler+0x14c>
240024ae:	6819      	ldr	r1, [r3, #0]
240024b0:	f021 0104 	bic.w	r1, r1, #4
240024b4:	6019      	str	r1, [r3, #0]
240024b6:	60a8      	str	r0, [r5, #8]
240024b8:	6d61      	ldr	r1, [r4, #84]	; 0x54
240024ba:	f041 0101 	orr.w	r1, r1, #1
240024be:	6561      	str	r1, [r4, #84]	; 0x54
240024c0:	fa28 f102 	lsr.w	r1, r8, r2
240024c4:	07c8      	lsls	r0, r1, #31
240024c6:	d534      	bpl.n	24002532 <HAL_DMA_IRQHandler+0x1be>
240024c8:	42b3      	cmp	r3, r6
240024ca:	d02e      	beq.n	2400252a <HAL_DMA_IRQHandler+0x1b6>
240024cc:	4964      	ldr	r1, [pc, #400]	; (24002660 <HAL_DMA_IRQHandler+0x2ec>)
240024ce:	428b      	cmp	r3, r1
240024d0:	d02b      	beq.n	2400252a <HAL_DMA_IRQHandler+0x1b6>
240024d2:	3118      	adds	r1, #24
240024d4:	428b      	cmp	r3, r1
240024d6:	d028      	beq.n	2400252a <HAL_DMA_IRQHandler+0x1b6>
240024d8:	3118      	adds	r1, #24
240024da:	428b      	cmp	r3, r1
240024dc:	d025      	beq.n	2400252a <HAL_DMA_IRQHandler+0x1b6>
240024de:	3118      	adds	r1, #24
240024e0:	428b      	cmp	r3, r1
240024e2:	d022      	beq.n	2400252a <HAL_DMA_IRQHandler+0x1b6>
240024e4:	3118      	adds	r1, #24
240024e6:	428b      	cmp	r3, r1
240024e8:	d01f      	beq.n	2400252a <HAL_DMA_IRQHandler+0x1b6>
240024ea:	3118      	adds	r1, #24
240024ec:	428b      	cmp	r3, r1
240024ee:	d01c      	beq.n	2400252a <HAL_DMA_IRQHandler+0x1b6>
240024f0:	3118      	adds	r1, #24
240024f2:	428b      	cmp	r3, r1
240024f4:	d019      	beq.n	2400252a <HAL_DMA_IRQHandler+0x1b6>
240024f6:	f501 7156 	add.w	r1, r1, #856	; 0x358
240024fa:	428b      	cmp	r3, r1
240024fc:	d015      	beq.n	2400252a <HAL_DMA_IRQHandler+0x1b6>
240024fe:	3118      	adds	r1, #24
24002500:	428b      	cmp	r3, r1
24002502:	d012      	beq.n	2400252a <HAL_DMA_IRQHandler+0x1b6>
24002504:	3118      	adds	r1, #24
24002506:	428b      	cmp	r3, r1
24002508:	d00f      	beq.n	2400252a <HAL_DMA_IRQHandler+0x1b6>
2400250a:	3118      	adds	r1, #24
2400250c:	428b      	cmp	r3, r1
2400250e:	d00c      	beq.n	2400252a <HAL_DMA_IRQHandler+0x1b6>
24002510:	3118      	adds	r1, #24
24002512:	428b      	cmp	r3, r1
24002514:	d009      	beq.n	2400252a <HAL_DMA_IRQHandler+0x1b6>
24002516:	3118      	adds	r1, #24
24002518:	428b      	cmp	r3, r1
2400251a:	d006      	beq.n	2400252a <HAL_DMA_IRQHandler+0x1b6>
2400251c:	3118      	adds	r1, #24
2400251e:	428b      	cmp	r3, r1
24002520:	d003      	beq.n	2400252a <HAL_DMA_IRQHandler+0x1b6>
24002522:	3118      	adds	r1, #24
24002524:	428b      	cmp	r3, r1
24002526:	f040 8084 	bne.w	24002632 <HAL_DMA_IRQHandler+0x2be>
2400252a:	6959      	ldr	r1, [r3, #20]
2400252c:	0609      	lsls	r1, r1, #24
2400252e:	f100 8082 	bmi.w	24002636 <HAL_DMA_IRQHandler+0x2c2>
24002532:	2104      	movs	r1, #4
24002534:	4091      	lsls	r1, r2
24002536:	ea11 0f08 	tst.w	r1, r8
2400253a:	d032      	beq.n	240025a2 <HAL_DMA_IRQHandler+0x22e>
2400253c:	42b3      	cmp	r3, r6
2400253e:	d02d      	beq.n	2400259c <HAL_DMA_IRQHandler+0x228>
24002540:	4847      	ldr	r0, [pc, #284]	; (24002660 <HAL_DMA_IRQHandler+0x2ec>)
24002542:	4283      	cmp	r3, r0
24002544:	d02a      	beq.n	2400259c <HAL_DMA_IRQHandler+0x228>
24002546:	3018      	adds	r0, #24
24002548:	4283      	cmp	r3, r0
2400254a:	d027      	beq.n	2400259c <HAL_DMA_IRQHandler+0x228>
2400254c:	3018      	adds	r0, #24
2400254e:	4283      	cmp	r3, r0
24002550:	d024      	beq.n	2400259c <HAL_DMA_IRQHandler+0x228>
24002552:	3018      	adds	r0, #24
24002554:	4283      	cmp	r3, r0
24002556:	d021      	beq.n	2400259c <HAL_DMA_IRQHandler+0x228>
24002558:	3018      	adds	r0, #24
2400255a:	4283      	cmp	r3, r0
2400255c:	d01e      	beq.n	2400259c <HAL_DMA_IRQHandler+0x228>
2400255e:	3018      	adds	r0, #24
24002560:	4283      	cmp	r3, r0
24002562:	d01b      	beq.n	2400259c <HAL_DMA_IRQHandler+0x228>
24002564:	3018      	adds	r0, #24
24002566:	4283      	cmp	r3, r0
24002568:	d018      	beq.n	2400259c <HAL_DMA_IRQHandler+0x228>
2400256a:	f500 7056 	add.w	r0, r0, #856	; 0x358
2400256e:	4283      	cmp	r3, r0
24002570:	d014      	beq.n	2400259c <HAL_DMA_IRQHandler+0x228>
24002572:	3018      	adds	r0, #24
24002574:	4283      	cmp	r3, r0
24002576:	d011      	beq.n	2400259c <HAL_DMA_IRQHandler+0x228>
24002578:	3018      	adds	r0, #24
2400257a:	4283      	cmp	r3, r0
2400257c:	d00e      	beq.n	2400259c <HAL_DMA_IRQHandler+0x228>
2400257e:	3018      	adds	r0, #24
24002580:	4283      	cmp	r3, r0
24002582:	d00b      	beq.n	2400259c <HAL_DMA_IRQHandler+0x228>
24002584:	3018      	adds	r0, #24
24002586:	4283      	cmp	r3, r0
24002588:	d008      	beq.n	2400259c <HAL_DMA_IRQHandler+0x228>
2400258a:	3018      	adds	r0, #24
2400258c:	4283      	cmp	r3, r0
2400258e:	d005      	beq.n	2400259c <HAL_DMA_IRQHandler+0x228>
24002590:	3018      	adds	r0, #24
24002592:	4283      	cmp	r3, r0
24002594:	d002      	beq.n	2400259c <HAL_DMA_IRQHandler+0x228>
24002596:	3018      	adds	r0, #24
24002598:	4283      	cmp	r3, r0
2400259a:	d154      	bne.n	24002646 <HAL_DMA_IRQHandler+0x2d2>
2400259c:	6818      	ldr	r0, [r3, #0]
2400259e:	0780      	lsls	r0, r0, #30
240025a0:	d453      	bmi.n	2400264a <HAL_DMA_IRQHandler+0x2d6>
240025a2:	2110      	movs	r1, #16
240025a4:	fa01 f202 	lsl.w	r2, r1, r2
240025a8:	ea12 0f08 	tst.w	r2, r8
240025ac:	d05e      	beq.n	2400266c <HAL_DMA_IRQHandler+0x2f8>
240025ae:	42b3      	cmp	r3, r6
240025b0:	d02d      	beq.n	2400260e <HAL_DMA_IRQHandler+0x29a>
240025b2:	492b      	ldr	r1, [pc, #172]	; (24002660 <HAL_DMA_IRQHandler+0x2ec>)
240025b4:	428b      	cmp	r3, r1
240025b6:	d02a      	beq.n	2400260e <HAL_DMA_IRQHandler+0x29a>
240025b8:	3118      	adds	r1, #24
240025ba:	428b      	cmp	r3, r1
240025bc:	d027      	beq.n	2400260e <HAL_DMA_IRQHandler+0x29a>
240025be:	3118      	adds	r1, #24
240025c0:	428b      	cmp	r3, r1
240025c2:	d024      	beq.n	2400260e <HAL_DMA_IRQHandler+0x29a>
240025c4:	3118      	adds	r1, #24
240025c6:	428b      	cmp	r3, r1
240025c8:	d021      	beq.n	2400260e <HAL_DMA_IRQHandler+0x29a>
240025ca:	3118      	adds	r1, #24
240025cc:	428b      	cmp	r3, r1
240025ce:	d01e      	beq.n	2400260e <HAL_DMA_IRQHandler+0x29a>
240025d0:	3118      	adds	r1, #24
240025d2:	428b      	cmp	r3, r1
240025d4:	d01b      	beq.n	2400260e <HAL_DMA_IRQHandler+0x29a>
240025d6:	3118      	adds	r1, #24
240025d8:	428b      	cmp	r3, r1
240025da:	d018      	beq.n	2400260e <HAL_DMA_IRQHandler+0x29a>
240025dc:	f501 7156 	add.w	r1, r1, #856	; 0x358
240025e0:	428b      	cmp	r3, r1
240025e2:	d014      	beq.n	2400260e <HAL_DMA_IRQHandler+0x29a>
240025e4:	3118      	adds	r1, #24
240025e6:	428b      	cmp	r3, r1
240025e8:	d011      	beq.n	2400260e <HAL_DMA_IRQHandler+0x29a>
240025ea:	3118      	adds	r1, #24
240025ec:	428b      	cmp	r3, r1
240025ee:	d00e      	beq.n	2400260e <HAL_DMA_IRQHandler+0x29a>
240025f0:	3118      	adds	r1, #24
240025f2:	428b      	cmp	r3, r1
240025f4:	d00b      	beq.n	2400260e <HAL_DMA_IRQHandler+0x29a>
240025f6:	3118      	adds	r1, #24
240025f8:	428b      	cmp	r3, r1
240025fa:	d008      	beq.n	2400260e <HAL_DMA_IRQHandler+0x29a>
240025fc:	3118      	adds	r1, #24
240025fe:	428b      	cmp	r3, r1
24002600:	d005      	beq.n	2400260e <HAL_DMA_IRQHandler+0x29a>
24002602:	3118      	adds	r1, #24
24002604:	428b      	cmp	r3, r1
24002606:	d002      	beq.n	2400260e <HAL_DMA_IRQHandler+0x29a>
24002608:	3118      	adds	r1, #24
2400260a:	428b      	cmp	r3, r1
2400260c:	d123      	bne.n	24002656 <HAL_DMA_IRQHandler+0x2e2>
2400260e:	6819      	ldr	r1, [r3, #0]
24002610:	f011 0f08 	tst.w	r1, #8
24002614:	d02a      	beq.n	2400266c <HAL_DMA_IRQHandler+0x2f8>
24002616:	60aa      	str	r2, [r5, #8]
24002618:	681a      	ldr	r2, [r3, #0]
2400261a:	0350      	lsls	r0, r2, #13
2400261c:	f140 808b 	bpl.w	24002736 <HAL_DMA_IRQHandler+0x3c2>
24002620:	681b      	ldr	r3, [r3, #0]
24002622:	0319      	lsls	r1, r3, #12
24002624:	d41e      	bmi.n	24002664 <HAL_DMA_IRQHandler+0x2f0>
24002626:	6c23      	ldr	r3, [r4, #64]	; 0x40
24002628:	e01d      	b.n	24002666 <HAL_DMA_IRQHandler+0x2f2>
2400262a:	6819      	ldr	r1, [r3, #0]
2400262c:	f3c1 01c0 	ubfx	r1, r1, #3, #1
24002630:	e73c      	b.n	240024ac <HAL_DMA_IRQHandler+0x138>
24002632:	6819      	ldr	r1, [r3, #0]
24002634:	e77d      	b.n	24002532 <HAL_DMA_IRQHandler+0x1be>
24002636:	2101      	movs	r1, #1
24002638:	4091      	lsls	r1, r2
2400263a:	60a9      	str	r1, [r5, #8]
2400263c:	6d61      	ldr	r1, [r4, #84]	; 0x54
2400263e:	f041 0102 	orr.w	r1, r1, #2
24002642:	6561      	str	r1, [r4, #84]	; 0x54
24002644:	e775      	b.n	24002532 <HAL_DMA_IRQHandler+0x1be>
24002646:	6819      	ldr	r1, [r3, #0]
24002648:	e7ab      	b.n	240025a2 <HAL_DMA_IRQHandler+0x22e>
2400264a:	60a9      	str	r1, [r5, #8]
2400264c:	6d61      	ldr	r1, [r4, #84]	; 0x54
2400264e:	f041 0104 	orr.w	r1, r1, #4
24002652:	6561      	str	r1, [r4, #84]	; 0x54
24002654:	e7a5      	b.n	240025a2 <HAL_DMA_IRQHandler+0x22e>
24002656:	6819      	ldr	r1, [r3, #0]
24002658:	f011 0f04 	tst.w	r1, #4
2400265c:	e7da      	b.n	24002614 <HAL_DMA_IRQHandler+0x2a0>
2400265e:	bf00      	nop
24002660:	40020028 	.word	0x40020028
24002664:	6ca3      	ldr	r3, [r4, #72]	; 0x48
24002666:	b10b      	cbz	r3, 2400266c <HAL_DMA_IRQHandler+0x2f8>
24002668:	4620      	mov	r0, r4
2400266a:	4798      	blx	r3
2400266c:	6de2      	ldr	r2, [r4, #92]	; 0x5c
2400266e:	2120      	movs	r1, #32
24002670:	f002 021f 	and.w	r2, r2, #31
24002674:	4091      	lsls	r1, r2
24002676:	ea11 0f08 	tst.w	r1, r8
2400267a:	d073      	beq.n	24002764 <HAL_DMA_IRQHandler+0x3f0>
2400267c:	6823      	ldr	r3, [r4, #0]
2400267e:	42b3      	cmp	r3, r6
24002680:	d02d      	beq.n	240026de <HAL_DMA_IRQHandler+0x36a>
24002682:	488f      	ldr	r0, [pc, #572]	; (240028c0 <HAL_DMA_IRQHandler+0x54c>)
24002684:	4283      	cmp	r3, r0
24002686:	d02a      	beq.n	240026de <HAL_DMA_IRQHandler+0x36a>
24002688:	3018      	adds	r0, #24
2400268a:	4283      	cmp	r3, r0
2400268c:	d027      	beq.n	240026de <HAL_DMA_IRQHandler+0x36a>
2400268e:	3018      	adds	r0, #24
24002690:	4283      	cmp	r3, r0
24002692:	d024      	beq.n	240026de <HAL_DMA_IRQHandler+0x36a>
24002694:	3018      	adds	r0, #24
24002696:	4283      	cmp	r3, r0
24002698:	d021      	beq.n	240026de <HAL_DMA_IRQHandler+0x36a>
2400269a:	3018      	adds	r0, #24
2400269c:	4283      	cmp	r3, r0
2400269e:	d01e      	beq.n	240026de <HAL_DMA_IRQHandler+0x36a>
240026a0:	3018      	adds	r0, #24
240026a2:	4283      	cmp	r3, r0
240026a4:	d01b      	beq.n	240026de <HAL_DMA_IRQHandler+0x36a>
240026a6:	3018      	adds	r0, #24
240026a8:	4283      	cmp	r3, r0
240026aa:	d018      	beq.n	240026de <HAL_DMA_IRQHandler+0x36a>
240026ac:	f500 7056 	add.w	r0, r0, #856	; 0x358
240026b0:	4283      	cmp	r3, r0
240026b2:	d014      	beq.n	240026de <HAL_DMA_IRQHandler+0x36a>
240026b4:	3018      	adds	r0, #24
240026b6:	4283      	cmp	r3, r0
240026b8:	d011      	beq.n	240026de <HAL_DMA_IRQHandler+0x36a>
240026ba:	3018      	adds	r0, #24
240026bc:	4283      	cmp	r3, r0
240026be:	d00e      	beq.n	240026de <HAL_DMA_IRQHandler+0x36a>
240026c0:	3018      	adds	r0, #24
240026c2:	4283      	cmp	r3, r0
240026c4:	d00b      	beq.n	240026de <HAL_DMA_IRQHandler+0x36a>
240026c6:	3018      	adds	r0, #24
240026c8:	4283      	cmp	r3, r0
240026ca:	d008      	beq.n	240026de <HAL_DMA_IRQHandler+0x36a>
240026cc:	3018      	adds	r0, #24
240026ce:	4283      	cmp	r3, r0
240026d0:	d005      	beq.n	240026de <HAL_DMA_IRQHandler+0x36a>
240026d2:	3018      	adds	r0, #24
240026d4:	4283      	cmp	r3, r0
240026d6:	d002      	beq.n	240026de <HAL_DMA_IRQHandler+0x36a>
240026d8:	3018      	adds	r0, #24
240026da:	4283      	cmp	r3, r0
240026dc:	d134      	bne.n	24002748 <HAL_DMA_IRQHandler+0x3d4>
240026de:	6818      	ldr	r0, [r3, #0]
240026e0:	f010 0f10 	tst.w	r0, #16
240026e4:	d03e      	beq.n	24002764 <HAL_DMA_IRQHandler+0x3f0>
240026e6:	60a9      	str	r1, [r5, #8]
240026e8:	f894 1035 	ldrb.w	r1, [r4, #53]	; 0x35
240026ec:	2904      	cmp	r1, #4
240026ee:	d12f      	bne.n	24002750 <HAL_DMA_IRQHandler+0x3dc>
240026f0:	6819      	ldr	r1, [r3, #0]
240026f2:	f021 0116 	bic.w	r1, r1, #22
240026f6:	6019      	str	r1, [r3, #0]
240026f8:	6959      	ldr	r1, [r3, #20]
240026fa:	f021 0180 	bic.w	r1, r1, #128	; 0x80
240026fe:	6159      	str	r1, [r3, #20]
24002700:	6c21      	ldr	r1, [r4, #64]	; 0x40
24002702:	b909      	cbnz	r1, 24002708 <HAL_DMA_IRQHandler+0x394>
24002704:	6ca1      	ldr	r1, [r4, #72]	; 0x48
24002706:	b119      	cbz	r1, 24002710 <HAL_DMA_IRQHandler+0x39c>
24002708:	6819      	ldr	r1, [r3, #0]
2400270a:	f021 0108 	bic.w	r1, r1, #8
2400270e:	6019      	str	r1, [r3, #0]
24002710:	233f      	movs	r3, #63	; 0x3f
24002712:	fa03 f202 	lsl.w	r2, r3, r2
24002716:	2300      	movs	r3, #0
24002718:	60aa      	str	r2, [r5, #8]
2400271a:	f884 3034 	strb.w	r3, [r4, #52]	; 0x34
2400271e:	2301      	movs	r3, #1
24002720:	f884 3035 	strb.w	r3, [r4, #53]	; 0x35
24002724:	6d23      	ldr	r3, [r4, #80]	; 0x50
24002726:	2b00      	cmp	r3, #0
24002728:	f000 808e 	beq.w	24002848 <HAL_DMA_IRQHandler+0x4d4>
2400272c:	4620      	mov	r0, r4
2400272e:	b002      	add	sp, #8
24002730:	e8bd 41f0 	ldmia.w	sp!, {r4, r5, r6, r7, r8, lr}
24002734:	4718      	bx	r3
24002736:	681a      	ldr	r2, [r3, #0]
24002738:	05d2      	lsls	r2, r2, #23
2400273a:	f53f af74 	bmi.w	24002626 <HAL_DMA_IRQHandler+0x2b2>
2400273e:	681a      	ldr	r2, [r3, #0]
24002740:	f022 0208 	bic.w	r2, r2, #8
24002744:	601a      	str	r2, [r3, #0]
24002746:	e76e      	b.n	24002626 <HAL_DMA_IRQHandler+0x2b2>
24002748:	6818      	ldr	r0, [r3, #0]
2400274a:	f010 0f02 	tst.w	r0, #2
2400274e:	e7c9      	b.n	240026e4 <HAL_DMA_IRQHandler+0x370>
24002750:	681a      	ldr	r2, [r3, #0]
24002752:	0355      	lsls	r5, r2, #13
24002754:	d54d      	bpl.n	240027f2 <HAL_DMA_IRQHandler+0x47e>
24002756:	681b      	ldr	r3, [r3, #0]
24002758:	0318      	lsls	r0, r3, #12
2400275a:	d457      	bmi.n	2400280c <HAL_DMA_IRQHandler+0x498>
2400275c:	6c63      	ldr	r3, [r4, #68]	; 0x44
2400275e:	b10b      	cbz	r3, 24002764 <HAL_DMA_IRQHandler+0x3f0>
24002760:	4620      	mov	r0, r4
24002762:	4798      	blx	r3
24002764:	6d63      	ldr	r3, [r4, #84]	; 0x54
24002766:	2b00      	cmp	r3, #0
24002768:	d06e      	beq.n	24002848 <HAL_DMA_IRQHandler+0x4d4>
2400276a:	6d63      	ldr	r3, [r4, #84]	; 0x54
2400276c:	07d9      	lsls	r1, r3, #31
2400276e:	d53e      	bpl.n	240027ee <HAL_DMA_IRQHandler+0x47a>
24002770:	2304      	movs	r3, #4
24002772:	f884 3035 	strb.w	r3, [r4, #53]	; 0x35
24002776:	6823      	ldr	r3, [r4, #0]
24002778:	42b3      	cmp	r3, r6
2400277a:	d01e      	beq.n	240027ba <HAL_DMA_IRQHandler+0x446>
2400277c:	4a50      	ldr	r2, [pc, #320]	; (240028c0 <HAL_DMA_IRQHandler+0x54c>)
2400277e:	4293      	cmp	r3, r2
24002780:	d01b      	beq.n	240027ba <HAL_DMA_IRQHandler+0x446>
24002782:	3218      	adds	r2, #24
24002784:	4293      	cmp	r3, r2
24002786:	d018      	beq.n	240027ba <HAL_DMA_IRQHandler+0x446>
24002788:	3218      	adds	r2, #24
2400278a:	4293      	cmp	r3, r2
2400278c:	d015      	beq.n	240027ba <HAL_DMA_IRQHandler+0x446>
2400278e:	3218      	adds	r2, #24
24002790:	4293      	cmp	r3, r2
24002792:	d012      	beq.n	240027ba <HAL_DMA_IRQHandler+0x446>
24002794:	3218      	adds	r2, #24
24002796:	4293      	cmp	r3, r2
24002798:	d00f      	beq.n	240027ba <HAL_DMA_IRQHandler+0x446>
2400279a:	3218      	adds	r2, #24
2400279c:	4293      	cmp	r3, r2
2400279e:	d00c      	beq.n	240027ba <HAL_DMA_IRQHandler+0x446>
240027a0:	3218      	adds	r2, #24
240027a2:	4293      	cmp	r3, r2
240027a4:	d009      	beq.n	240027ba <HAL_DMA_IRQHandler+0x446>
240027a6:	f502 7256 	add.w	r2, r2, #856	; 0x358
240027aa:	4293      	cmp	r3, r2
240027ac:	d005      	beq.n	240027ba <HAL_DMA_IRQHandler+0x446>
240027ae:	3218      	adds	r2, #24
240027b0:	4293      	cmp	r3, r2
240027b2:	d002      	beq.n	240027ba <HAL_DMA_IRQHandler+0x446>
240027b4:	3218      	adds	r2, #24
240027b6:	4293      	cmp	r3, r2
240027b8:	d0ff      	beq.n	240027ba <HAL_DMA_IRQHandler+0x446>
240027ba:	681a      	ldr	r2, [r3, #0]
240027bc:	f022 0201 	bic.w	r2, r2, #1
240027c0:	601a      	str	r2, [r3, #0]
240027c2:	f44f 5216 	mov.w	r2, #9600	; 0x2580
240027c6:	fbb7 f7f2 	udiv	r7, r7, r2
240027ca:	9a01      	ldr	r2, [sp, #4]
240027cc:	3201      	adds	r2, #1
240027ce:	42ba      	cmp	r2, r7
240027d0:	9201      	str	r2, [sp, #4]
240027d2:	d802      	bhi.n	240027da <HAL_DMA_IRQHandler+0x466>
240027d4:	681a      	ldr	r2, [r3, #0]
240027d6:	07d2      	lsls	r2, r2, #31
240027d8:	d4f7      	bmi.n	240027ca <HAL_DMA_IRQHandler+0x456>
240027da:	2200      	movs	r2, #0
240027dc:	f884 2034 	strb.w	r2, [r4, #52]	; 0x34
240027e0:	681b      	ldr	r3, [r3, #0]
240027e2:	07df      	lsls	r7, r3, #31
240027e4:	bf4c      	ite	mi
240027e6:	2303      	movmi	r3, #3
240027e8:	2301      	movpl	r3, #1
240027ea:	f884 3035 	strb.w	r3, [r4, #53]	; 0x35
240027ee:	6ce3      	ldr	r3, [r4, #76]	; 0x4c
240027f0:	e799      	b.n	24002726 <HAL_DMA_IRQHandler+0x3b2>
240027f2:	681a      	ldr	r2, [r3, #0]
240027f4:	f412 7280 	ands.w	r2, r2, #256	; 0x100
240027f8:	d108      	bne.n	2400280c <HAL_DMA_IRQHandler+0x498>
240027fa:	6819      	ldr	r1, [r3, #0]
240027fc:	f021 0110 	bic.w	r1, r1, #16
24002800:	6019      	str	r1, [r3, #0]
24002802:	2301      	movs	r3, #1
24002804:	f884 2034 	strb.w	r2, [r4, #52]	; 0x34
24002808:	f884 3035 	strb.w	r3, [r4, #53]	; 0x35
2400280c:	6be3      	ldr	r3, [r4, #60]	; 0x3c
2400280e:	e7a6      	b.n	2400275e <HAL_DMA_IRQHandler+0x3ea>
24002810:	4a2c      	ldr	r2, [pc, #176]	; (240028c4 <HAL_DMA_IRQHandler+0x550>)
24002812:	4293      	cmp	r3, r2
24002814:	f43f adf0 	beq.w	240023f8 <HAL_DMA_IRQHandler+0x84>
24002818:	3214      	adds	r2, #20
2400281a:	4293      	cmp	r3, r2
2400281c:	f43f adec 	beq.w	240023f8 <HAL_DMA_IRQHandler+0x84>
24002820:	3214      	adds	r2, #20
24002822:	4293      	cmp	r3, r2
24002824:	f43f ade8 	beq.w	240023f8 <HAL_DMA_IRQHandler+0x84>
24002828:	3214      	adds	r2, #20
2400282a:	4293      	cmp	r3, r2
2400282c:	f43f ade4 	beq.w	240023f8 <HAL_DMA_IRQHandler+0x84>
24002830:	3214      	adds	r2, #20
24002832:	4293      	cmp	r3, r2
24002834:	f43f ade0 	beq.w	240023f8 <HAL_DMA_IRQHandler+0x84>
24002838:	3214      	adds	r2, #20
2400283a:	4293      	cmp	r3, r2
2400283c:	f43f addc 	beq.w	240023f8 <HAL_DMA_IRQHandler+0x84>
24002840:	3214      	adds	r2, #20
24002842:	4293      	cmp	r3, r2
24002844:	f43f add8 	beq.w	240023f8 <HAL_DMA_IRQHandler+0x84>
24002848:	b002      	add	sp, #8
2400284a:	e8bd 81f0 	ldmia.w	sp!, {r4, r5, r6, r7, r8, pc}
2400284e:	0697      	lsls	r7, r2, #26
24002850:	d403      	bmi.n	2400285a <HAL_DMA_IRQHandler+0x4e6>
24002852:	681a      	ldr	r2, [r3, #0]
24002854:	f022 0204 	bic.w	r2, r2, #4
24002858:	601a      	str	r2, [r3, #0]
2400285a:	6c23      	ldr	r3, [r4, #64]	; 0x40
2400285c:	e763      	b.n	24002726 <HAL_DMA_IRQHandler+0x3b2>
2400285e:	2002      	movs	r0, #2
24002860:	4088      	lsls	r0, r1
24002862:	ea10 0f0c 	tst.w	r0, ip
24002866:	d016      	beq.n	24002896 <HAL_DMA_IRQHandler+0x522>
24002868:	0796      	lsls	r6, r2, #30
2400286a:	d514      	bpl.n	24002896 <HAL_DMA_IRQHandler+0x522>
2400286c:	6068      	str	r0, [r5, #4]
2400286e:	0410      	lsls	r0, r2, #16
24002870:	d503      	bpl.n	2400287a <HAL_DMA_IRQHandler+0x506>
24002872:	03d1      	lsls	r1, r2, #15
24002874:	d40d      	bmi.n	24002892 <HAL_DMA_IRQHandler+0x51e>
24002876:	6c63      	ldr	r3, [r4, #68]	; 0x44
24002878:	e755      	b.n	24002726 <HAL_DMA_IRQHandler+0x3b2>
2400287a:	f012 0220 	ands.w	r2, r2, #32
2400287e:	d108      	bne.n	24002892 <HAL_DMA_IRQHandler+0x51e>
24002880:	6819      	ldr	r1, [r3, #0]
24002882:	f021 010a 	bic.w	r1, r1, #10
24002886:	6019      	str	r1, [r3, #0]
24002888:	2301      	movs	r3, #1
2400288a:	f884 2034 	strb.w	r2, [r4, #52]	; 0x34
2400288e:	f884 3035 	strb.w	r3, [r4, #53]	; 0x35
24002892:	6be3      	ldr	r3, [r4, #60]	; 0x3c
24002894:	e747      	b.n	24002726 <HAL_DMA_IRQHandler+0x3b2>
24002896:	2008      	movs	r0, #8
24002898:	4088      	lsls	r0, r1
2400289a:	ea10 0f0c 	tst.w	r0, ip
2400289e:	d0d3      	beq.n	24002848 <HAL_DMA_IRQHandler+0x4d4>
240028a0:	0712      	lsls	r2, r2, #28
240028a2:	d5d1      	bpl.n	24002848 <HAL_DMA_IRQHandler+0x4d4>
240028a4:	681a      	ldr	r2, [r3, #0]
240028a6:	f022 020e 	bic.w	r2, r2, #14
240028aa:	601a      	str	r2, [r3, #0]
240028ac:	2301      	movs	r3, #1
240028ae:	2200      	movs	r2, #0
240028b0:	fa03 f101 	lsl.w	r1, r3, r1
240028b4:	6069      	str	r1, [r5, #4]
240028b6:	6563      	str	r3, [r4, #84]	; 0x54
240028b8:	f884 2034 	strb.w	r2, [r4, #52]	; 0x34
240028bc:	e795      	b.n	240027ea <HAL_DMA_IRQHandler+0x476>
240028be:	bf00      	nop
240028c0:	40020028 	.word	0x40020028
240028c4:	5802541c 	.word	0x5802541c

240028c8 <HAL_DMA_RegisterCallback>:
240028c8:	b308      	cbz	r0, 2400290e <HAL_DMA_RegisterCallback+0x46>
240028ca:	f890 3034 	ldrb.w	r3, [r0, #52]	; 0x34
240028ce:	2b01      	cmp	r3, #1
240028d0:	d01f      	beq.n	24002912 <HAL_DMA_RegisterCallback+0x4a>
240028d2:	f890 3035 	ldrb.w	r3, [r0, #53]	; 0x35
240028d6:	2b01      	cmp	r3, #1
240028d8:	d117      	bne.n	2400290a <HAL_DMA_RegisterCallback+0x42>
240028da:	2905      	cmp	r1, #5
240028dc:	d80b      	bhi.n	240028f6 <HAL_DMA_RegisterCallback+0x2e>
240028de:	e8df f001 	tbb	[pc, r1]
240028e2:	0903      	.short	0x0903
240028e4:	12100e0c 	.word	0x12100e0c
240028e8:	63c2      	str	r2, [r0, #60]	; 0x3c
240028ea:	2300      	movs	r3, #0
240028ec:	f880 3034 	strb.w	r3, [r0, #52]	; 0x34
240028f0:	4608      	mov	r0, r1
240028f2:	4770      	bx	lr
240028f4:	6402      	str	r2, [r0, #64]	; 0x40
240028f6:	2100      	movs	r1, #0
240028f8:	e7f7      	b.n	240028ea <HAL_DMA_RegisterCallback+0x22>
240028fa:	6442      	str	r2, [r0, #68]	; 0x44
240028fc:	e7fb      	b.n	240028f6 <HAL_DMA_RegisterCallback+0x2e>
240028fe:	6482      	str	r2, [r0, #72]	; 0x48
24002900:	e7f9      	b.n	240028f6 <HAL_DMA_RegisterCallback+0x2e>
24002902:	64c2      	str	r2, [r0, #76]	; 0x4c
24002904:	e7f7      	b.n	240028f6 <HAL_DMA_RegisterCallback+0x2e>
24002906:	6502      	str	r2, [r0, #80]	; 0x50
24002908:	e7f5      	b.n	240028f6 <HAL_DMA_RegisterCallback+0x2e>
2400290a:	2101      	movs	r1, #1
2400290c:	e7ed      	b.n	240028ea <HAL_DMA_RegisterCallback+0x22>
2400290e:	2001      	movs	r0, #1
24002910:	4770      	bx	lr
24002912:	2002      	movs	r0, #2
24002914:	4770      	bx	lr

24002916 <HAL_DMA_UnRegisterCallback>:
24002916:	b510      	push	{r4, lr}
24002918:	b368      	cbz	r0, 24002976 <HAL_DMA_UnRegisterCallback+0x60>
2400291a:	f890 3034 	ldrb.w	r3, [r0, #52]	; 0x34
2400291e:	2b01      	cmp	r3, #1
24002920:	d02b      	beq.n	2400297a <HAL_DMA_UnRegisterCallback+0x64>
24002922:	2301      	movs	r3, #1
24002924:	f890 4035 	ldrb.w	r4, [r0, #53]	; 0x35
24002928:	429c      	cmp	r4, r3
2400292a:	b2e2      	uxtb	r2, r4
2400292c:	f880 3034 	strb.w	r3, [r0, #52]	; 0x34
24002930:	d11f      	bne.n	24002972 <HAL_DMA_UnRegisterCallback+0x5c>
24002932:	2300      	movs	r3, #0
24002934:	2906      	cmp	r1, #6
24002936:	d807      	bhi.n	24002948 <HAL_DMA_UnRegisterCallback+0x32>
24002938:	e8df f001 	tbb	[pc, r1]
2400293c:	100e0b04 	.word	0x100e0b04
24002940:	1912      	.short	0x1912
24002942:	14          	.byte	0x14
24002943:	00          	.byte	0x00
24002944:	460a      	mov	r2, r1
24002946:	63c3      	str	r3, [r0, #60]	; 0x3c
24002948:	2300      	movs	r3, #0
2400294a:	f880 3034 	strb.w	r3, [r0, #52]	; 0x34
2400294e:	4610      	mov	r0, r2
24002950:	bd10      	pop	{r4, pc}
24002952:	6403      	str	r3, [r0, #64]	; 0x40
24002954:	2200      	movs	r2, #0
24002956:	e7f7      	b.n	24002948 <HAL_DMA_UnRegisterCallback+0x32>
24002958:	6443      	str	r3, [r0, #68]	; 0x44
2400295a:	e7fb      	b.n	24002954 <HAL_DMA_UnRegisterCallback+0x3e>
2400295c:	6483      	str	r3, [r0, #72]	; 0x48
2400295e:	e7f9      	b.n	24002954 <HAL_DMA_UnRegisterCallback+0x3e>
24002960:	64c3      	str	r3, [r0, #76]	; 0x4c
24002962:	e7f7      	b.n	24002954 <HAL_DMA_UnRegisterCallback+0x3e>
24002964:	e9c0 330f 	strd	r3, r3, [r0, #60]	; 0x3c
24002968:	e9c0 3311 	strd	r3, r3, [r0, #68]	; 0x44
2400296c:	64c3      	str	r3, [r0, #76]	; 0x4c
2400296e:	6503      	str	r3, [r0, #80]	; 0x50
24002970:	e7f0      	b.n	24002954 <HAL_DMA_UnRegisterCallback+0x3e>
24002972:	461a      	mov	r2, r3
24002974:	e7e8      	b.n	24002948 <HAL_DMA_UnRegisterCallback+0x32>
24002976:	2201      	movs	r2, #1
24002978:	e7e9      	b.n	2400294e <HAL_DMA_UnRegisterCallback+0x38>
2400297a:	2202      	movs	r2, #2
2400297c:	e7e7      	b.n	2400294e <HAL_DMA_UnRegisterCallback+0x38>

2400297e <HAL_DMA_GetState>:
2400297e:	f890 0035 	ldrb.w	r0, [r0, #53]	; 0x35
24002982:	4770      	bx	lr

24002984 <HAL_DMA_GetError>:
24002984:	6d40      	ldr	r0, [r0, #84]	; 0x54
24002986:	4770      	bx	lr

24002988 <DMA_MultiBufferSetConfig>:
24002988:	b530      	push	{r4, r5, lr}
2400298a:	6804      	ldr	r4, [r0, #0]
2400298c:	4d15      	ldr	r5, [pc, #84]	; (240029e4 <DMA_MultiBufferSetConfig+0x5c>)
2400298e:	6880      	ldr	r0, [r0, #8]
24002990:	42ac      	cmp	r4, r5
24002992:	d01e      	beq.n	240029d2 <DMA_MultiBufferSetConfig+0x4a>
24002994:	3518      	adds	r5, #24
24002996:	42ac      	cmp	r4, r5
24002998:	d01b      	beq.n	240029d2 <DMA_MultiBufferSetConfig+0x4a>
2400299a:	3518      	adds	r5, #24
2400299c:	42ac      	cmp	r4, r5
2400299e:	d018      	beq.n	240029d2 <DMA_MultiBufferSetConfig+0x4a>
240029a0:	3518      	adds	r5, #24
240029a2:	42ac      	cmp	r4, r5
240029a4:	d015      	beq.n	240029d2 <DMA_MultiBufferSetConfig+0x4a>
240029a6:	3518      	adds	r5, #24
240029a8:	42ac      	cmp	r4, r5
240029aa:	d012      	beq.n	240029d2 <DMA_MultiBufferSetConfig+0x4a>
240029ac:	3518      	adds	r5, #24
240029ae:	42ac      	cmp	r4, r5
240029b0:	d00f      	beq.n	240029d2 <DMA_MultiBufferSetConfig+0x4a>
240029b2:	3518      	adds	r5, #24
240029b4:	42ac      	cmp	r4, r5
240029b6:	d00c      	beq.n	240029d2 <DMA_MultiBufferSetConfig+0x4a>
240029b8:	3518      	adds	r5, #24
240029ba:	42ac      	cmp	r4, r5
240029bc:	d009      	beq.n	240029d2 <DMA_MultiBufferSetConfig+0x4a>
240029be:	f505 7556 	add.w	r5, r5, #856	; 0x358
240029c2:	42ac      	cmp	r4, r5
240029c4:	d005      	beq.n	240029d2 <DMA_MultiBufferSetConfig+0x4a>
240029c6:	3518      	adds	r5, #24
240029c8:	42ac      	cmp	r4, r5
240029ca:	d002      	beq.n	240029d2 <DMA_MultiBufferSetConfig+0x4a>
240029cc:	3518      	adds	r5, #24
240029ce:	42ac      	cmp	r4, r5
240029d0:	d0ff      	beq.n	240029d2 <DMA_MultiBufferSetConfig+0x4a>
240029d2:	2840      	cmp	r0, #64	; 0x40
240029d4:	6063      	str	r3, [r4, #4]
240029d6:	d102      	bne.n	240029de <DMA_MultiBufferSetConfig+0x56>
240029d8:	60a2      	str	r2, [r4, #8]
240029da:	60e1      	str	r1, [r4, #12]
240029dc:	bd30      	pop	{r4, r5, pc}
240029de:	60a1      	str	r1, [r4, #8]
240029e0:	60e2      	str	r2, [r4, #12]
240029e2:	e7fb      	b.n	240029dc <DMA_MultiBufferSetConfig+0x54>
240029e4:	40020010 	.word	0x40020010

240029e8 <HAL_DMAEx_MultiBufferStart>:
240029e8:	b5f8      	push	{r3, r4, r5, r6, r7, lr}
240029ea:	4605      	mov	r5, r0
240029ec:	6880      	ldr	r0, [r0, #8]
240029ee:	2880      	cmp	r0, #128	; 0x80
240029f0:	d104      	bne.n	240029fc <HAL_DMAEx_MultiBufferStart+0x14>
240029f2:	f44f 7380 	mov.w	r3, #256	; 0x100
240029f6:	2001      	movs	r0, #1
240029f8:	656b      	str	r3, [r5, #84]	; 0x54
240029fa:	bdf8      	pop	{r3, r4, r5, r6, r7, pc}
240029fc:	f895 0034 	ldrb.w	r0, [r5, #52]	; 0x34
24002a00:	2801      	cmp	r0, #1
24002a02:	f000 80de 	beq.w	24002bc2 <HAL_DMAEx_MultiBufferStart+0x1da>
24002a06:	2001      	movs	r0, #1
24002a08:	f895 4035 	ldrb.w	r4, [r5, #53]	; 0x35
24002a0c:	4284      	cmp	r4, r0
24002a0e:	f885 0034 	strb.w	r0, [r5, #52]	; 0x34
24002a12:	f040 80d2 	bne.w	24002bba <HAL_DMAEx_MultiBufferStart+0x1d2>
24002a16:	2002      	movs	r0, #2
24002a18:	682c      	ldr	r4, [r5, #0]
24002a1a:	4f6b      	ldr	r7, [pc, #428]	; (24002bc8 <HAL_DMAEx_MultiBufferStart+0x1e0>)
24002a1c:	f885 0035 	strb.w	r0, [r5, #53]	; 0x35
24002a20:	2000      	movs	r0, #0
24002a22:	42bc      	cmp	r4, r7
24002a24:	6568      	str	r0, [r5, #84]	; 0x54
24002a26:	e9d5 c616 	ldrd	ip, r6, [r5, #88]	; 0x58
24002a2a:	f006 061f 	and.w	r6, r6, #31
24002a2e:	d052      	beq.n	24002ad6 <HAL_DMAEx_MultiBufferStart+0xee>
24002a30:	4866      	ldr	r0, [pc, #408]	; (24002bcc <HAL_DMAEx_MultiBufferStart+0x1e4>)
24002a32:	4284      	cmp	r4, r0
24002a34:	d04f      	beq.n	24002ad6 <HAL_DMAEx_MultiBufferStart+0xee>
24002a36:	3018      	adds	r0, #24
24002a38:	4284      	cmp	r4, r0
24002a3a:	d04c      	beq.n	24002ad6 <HAL_DMAEx_MultiBufferStart+0xee>
24002a3c:	3018      	adds	r0, #24
24002a3e:	4284      	cmp	r4, r0
24002a40:	d049      	beq.n	24002ad6 <HAL_DMAEx_MultiBufferStart+0xee>
24002a42:	3018      	adds	r0, #24
24002a44:	4284      	cmp	r4, r0
24002a46:	d046      	beq.n	24002ad6 <HAL_DMAEx_MultiBufferStart+0xee>
24002a48:	3018      	adds	r0, #24
24002a4a:	4284      	cmp	r4, r0
24002a4c:	d043      	beq.n	24002ad6 <HAL_DMAEx_MultiBufferStart+0xee>
24002a4e:	3018      	adds	r0, #24
24002a50:	4284      	cmp	r4, r0
24002a52:	d040      	beq.n	24002ad6 <HAL_DMAEx_MultiBufferStart+0xee>
24002a54:	3018      	adds	r0, #24
24002a56:	4284      	cmp	r4, r0
24002a58:	d03d      	beq.n	24002ad6 <HAL_DMAEx_MultiBufferStart+0xee>
24002a5a:	f500 7056 	add.w	r0, r0, #856	; 0x358
24002a5e:	4284      	cmp	r4, r0
24002a60:	d039      	beq.n	24002ad6 <HAL_DMAEx_MultiBufferStart+0xee>
24002a62:	3018      	adds	r0, #24
24002a64:	4284      	cmp	r4, r0
24002a66:	d036      	beq.n	24002ad6 <HAL_DMAEx_MultiBufferStart+0xee>
24002a68:	3018      	adds	r0, #24
24002a6a:	4284      	cmp	r4, r0
24002a6c:	d033      	beq.n	24002ad6 <HAL_DMAEx_MultiBufferStart+0xee>
24002a6e:	3018      	adds	r0, #24
24002a70:	4284      	cmp	r4, r0
24002a72:	d030      	beq.n	24002ad6 <HAL_DMAEx_MultiBufferStart+0xee>
24002a74:	3018      	adds	r0, #24
24002a76:	4284      	cmp	r4, r0
24002a78:	d02d      	beq.n	24002ad6 <HAL_DMAEx_MultiBufferStart+0xee>
24002a7a:	3018      	adds	r0, #24
24002a7c:	4284      	cmp	r4, r0
24002a7e:	d02a      	beq.n	24002ad6 <HAL_DMAEx_MultiBufferStart+0xee>
24002a80:	3018      	adds	r0, #24
24002a82:	4284      	cmp	r4, r0
24002a84:	d027      	beq.n	24002ad6 <HAL_DMAEx_MultiBufferStart+0xee>
24002a86:	3018      	adds	r0, #24
24002a88:	4284      	cmp	r4, r0
24002a8a:	d024      	beq.n	24002ad6 <HAL_DMAEx_MultiBufferStart+0xee>
24002a8c:	6820      	ldr	r0, [r4, #0]
24002a8e:	f440 4000 	orr.w	r0, r0, #32768	; 0x8000
24002a92:	f040 0020 	orr.w	r0, r0, #32
24002a96:	6020      	str	r0, [r4, #0]
24002a98:	6123      	str	r3, [r4, #16]
24002a9a:	2301      	movs	r3, #1
24002a9c:	fa03 f606 	lsl.w	r6, r3, r6
24002aa0:	f8cc 6004 	str.w	r6, [ip, #4]
24002aa4:	4b4a      	ldr	r3, [pc, #296]	; (24002bd0 <HAL_DMAEx_MultiBufferStart+0x1e8>)
24002aa6:	429c      	cmp	r4, r3
24002aa8:	d022      	beq.n	24002af0 <HAL_DMAEx_MultiBufferStart+0x108>
24002aaa:	3314      	adds	r3, #20
24002aac:	429c      	cmp	r4, r3
24002aae:	d01f      	beq.n	24002af0 <HAL_DMAEx_MultiBufferStart+0x108>
24002ab0:	3314      	adds	r3, #20
24002ab2:	429c      	cmp	r4, r3
24002ab4:	d01c      	beq.n	24002af0 <HAL_DMAEx_MultiBufferStart+0x108>
24002ab6:	3314      	adds	r3, #20
24002ab8:	429c      	cmp	r4, r3
24002aba:	d019      	beq.n	24002af0 <HAL_DMAEx_MultiBufferStart+0x108>
24002abc:	3314      	adds	r3, #20
24002abe:	429c      	cmp	r4, r3
24002ac0:	d016      	beq.n	24002af0 <HAL_DMAEx_MultiBufferStart+0x108>
24002ac2:	3314      	adds	r3, #20
24002ac4:	429c      	cmp	r4, r3
24002ac6:	d013      	beq.n	24002af0 <HAL_DMAEx_MultiBufferStart+0x108>
24002ac8:	3314      	adds	r3, #20
24002aca:	429c      	cmp	r4, r3
24002acc:	d010      	beq.n	24002af0 <HAL_DMAEx_MultiBufferStart+0x108>
24002ace:	3314      	adds	r3, #20
24002ad0:	429c      	cmp	r4, r3
24002ad2:	d117      	bne.n	24002b04 <HAL_DMAEx_MultiBufferStart+0x11c>
24002ad4:	e00c      	b.n	24002af0 <HAL_DMAEx_MultiBufferStart+0x108>
24002ad6:	6820      	ldr	r0, [r4, #0]
24002ad8:	42bc      	cmp	r4, r7
24002ada:	f440 2080 	orr.w	r0, r0, #262144	; 0x40000
24002ade:	6020      	str	r0, [r4, #0]
24002ae0:	6123      	str	r3, [r4, #16]
24002ae2:	f04f 033f 	mov.w	r3, #63	; 0x3f
24002ae6:	fa03 f606 	lsl.w	r6, r3, r6
24002aea:	f8cc 6008 	str.w	r6, [ip, #8]
24002aee:	d131      	bne.n	24002b54 <HAL_DMAEx_MultiBufferStart+0x16c>
24002af0:	9b06      	ldr	r3, [sp, #24]
24002af2:	4628      	mov	r0, r5
24002af4:	f7ff ff48 	bl	24002988 <DMA_MultiBufferSetConfig>
24002af8:	e9d5 3219 	ldrd	r3, r2, [r5, #100]	; 0x64
24002afc:	605a      	str	r2, [r3, #4]
24002afe:	6eeb      	ldr	r3, [r5, #108]	; 0x6c
24002b00:	2b00      	cmp	r3, #0
24002b02:	d156      	bne.n	24002bb2 <HAL_DMAEx_MultiBufferStart+0x1ca>
24002b04:	682b      	ldr	r3, [r5, #0]
24002b06:	42bb      	cmp	r3, r7
24002b08:	d01e      	beq.n	24002b48 <HAL_DMAEx_MultiBufferStart+0x160>
24002b0a:	4a30      	ldr	r2, [pc, #192]	; (24002bcc <HAL_DMAEx_MultiBufferStart+0x1e4>)
24002b0c:	4293      	cmp	r3, r2
24002b0e:	d01b      	beq.n	24002b48 <HAL_DMAEx_MultiBufferStart+0x160>
24002b10:	3218      	adds	r2, #24
24002b12:	4293      	cmp	r3, r2
24002b14:	d018      	beq.n	24002b48 <HAL_DMAEx_MultiBufferStart+0x160>
24002b16:	3218      	adds	r2, #24
24002b18:	4293      	cmp	r3, r2
24002b1a:	d015      	beq.n	24002b48 <HAL_DMAEx_MultiBufferStart+0x160>
24002b1c:	3218      	adds	r2, #24
24002b1e:	4293      	cmp	r3, r2
24002b20:	d012      	beq.n	24002b48 <HAL_DMAEx_MultiBufferStart+0x160>
24002b22:	3218      	adds	r2, #24
24002b24:	4293      	cmp	r3, r2
24002b26:	d00f      	beq.n	24002b48 <HAL_DMAEx_MultiBufferStart+0x160>
24002b28:	3218      	adds	r2, #24
24002b2a:	4293      	cmp	r3, r2
24002b2c:	d00c      	beq.n	24002b48 <HAL_DMAEx_MultiBufferStart+0x160>
24002b2e:	3218      	adds	r2, #24
24002b30:	4293      	cmp	r3, r2
24002b32:	d009      	beq.n	24002b48 <HAL_DMAEx_MultiBufferStart+0x160>
24002b34:	f502 7256 	add.w	r2, r2, #856	; 0x358
24002b38:	4293      	cmp	r3, r2
24002b3a:	d005      	beq.n	24002b48 <HAL_DMAEx_MultiBufferStart+0x160>
24002b3c:	3218      	adds	r2, #24
24002b3e:	4293      	cmp	r3, r2
24002b40:	d002      	beq.n	24002b48 <HAL_DMAEx_MultiBufferStart+0x160>
24002b42:	3218      	adds	r2, #24
24002b44:	4293      	cmp	r3, r2
24002b46:	d0ff      	beq.n	24002b48 <HAL_DMAEx_MultiBufferStart+0x160>
24002b48:	681a      	ldr	r2, [r3, #0]
24002b4a:	2000      	movs	r0, #0
24002b4c:	f042 0201 	orr.w	r2, r2, #1
24002b50:	601a      	str	r2, [r3, #0]
24002b52:	e752      	b.n	240029fa <HAL_DMAEx_MultiBufferStart+0x12>
24002b54:	4b1d      	ldr	r3, [pc, #116]	; (24002bcc <HAL_DMAEx_MultiBufferStart+0x1e4>)
24002b56:	429c      	cmp	r4, r3
24002b58:	d0ca      	beq.n	24002af0 <HAL_DMAEx_MultiBufferStart+0x108>
24002b5a:	3318      	adds	r3, #24
24002b5c:	429c      	cmp	r4, r3
24002b5e:	d0c7      	beq.n	24002af0 <HAL_DMAEx_MultiBufferStart+0x108>
24002b60:	3318      	adds	r3, #24
24002b62:	429c      	cmp	r4, r3
24002b64:	d0c4      	beq.n	24002af0 <HAL_DMAEx_MultiBufferStart+0x108>
24002b66:	3318      	adds	r3, #24
24002b68:	429c      	cmp	r4, r3
24002b6a:	d0c1      	beq.n	24002af0 <HAL_DMAEx_MultiBufferStart+0x108>
24002b6c:	3318      	adds	r3, #24
24002b6e:	429c      	cmp	r4, r3
24002b70:	d0be      	beq.n	24002af0 <HAL_DMAEx_MultiBufferStart+0x108>
24002b72:	3318      	adds	r3, #24
24002b74:	429c      	cmp	r4, r3
24002b76:	d0bb      	beq.n	24002af0 <HAL_DMAEx_MultiBufferStart+0x108>
24002b78:	3318      	adds	r3, #24
24002b7a:	429c      	cmp	r4, r3
24002b7c:	d0b8      	beq.n	24002af0 <HAL_DMAEx_MultiBufferStart+0x108>
24002b7e:	f503 7356 	add.w	r3, r3, #856	; 0x358
24002b82:	429c      	cmp	r4, r3
24002b84:	d0b4      	beq.n	24002af0 <HAL_DMAEx_MultiBufferStart+0x108>
24002b86:	3318      	adds	r3, #24
24002b88:	429c      	cmp	r4, r3
24002b8a:	d0b1      	beq.n	24002af0 <HAL_DMAEx_MultiBufferStart+0x108>
24002b8c:	3318      	adds	r3, #24
24002b8e:	429c      	cmp	r4, r3
24002b90:	d0ae      	beq.n	24002af0 <HAL_DMAEx_MultiBufferStart+0x108>
24002b92:	3318      	adds	r3, #24
24002b94:	429c      	cmp	r4, r3
24002b96:	d0ab      	beq.n	24002af0 <HAL_DMAEx_MultiBufferStart+0x108>
24002b98:	3318      	adds	r3, #24
24002b9a:	429c      	cmp	r4, r3
24002b9c:	d0a8      	beq.n	24002af0 <HAL_DMAEx_MultiBufferStart+0x108>
24002b9e:	3318      	adds	r3, #24
24002ba0:	429c      	cmp	r4, r3
24002ba2:	d0a5      	beq.n	24002af0 <HAL_DMAEx_MultiBufferStart+0x108>
24002ba4:	3318      	adds	r3, #24
24002ba6:	429c      	cmp	r4, r3
24002ba8:	d0a2      	beq.n	24002af0 <HAL_DMAEx_MultiBufferStart+0x108>
24002baa:	3318      	adds	r3, #24
24002bac:	429c      	cmp	r4, r3
24002bae:	d09f      	beq.n	24002af0 <HAL_DMAEx_MultiBufferStart+0x108>
24002bb0:	e778      	b.n	24002aa4 <HAL_DMAEx_MultiBufferStart+0xbc>
24002bb2:	e9d5 321c 	ldrd	r3, r2, [r5, #112]	; 0x70
24002bb6:	605a      	str	r2, [r3, #4]
24002bb8:	e7a4      	b.n	24002b04 <HAL_DMAEx_MultiBufferStart+0x11c>
24002bba:	f44f 6300 	mov.w	r3, #2048	; 0x800
24002bbe:	656b      	str	r3, [r5, #84]	; 0x54
24002bc0:	e71b      	b.n	240029fa <HAL_DMAEx_MultiBufferStart+0x12>
24002bc2:	2002      	movs	r0, #2
24002bc4:	e719      	b.n	240029fa <HAL_DMAEx_MultiBufferStart+0x12>
24002bc6:	bf00      	nop
24002bc8:	40020010 	.word	0x40020010
24002bcc:	40020028 	.word	0x40020028
24002bd0:	58025408 	.word	0x58025408

24002bd4 <HAL_DMAEx_MultiBufferStart_IT>:
24002bd4:	b5f8      	push	{r3, r4, r5, r6, r7, lr}
24002bd6:	4604      	mov	r4, r0
24002bd8:	6880      	ldr	r0, [r0, #8]
24002bda:	2880      	cmp	r0, #128	; 0x80
24002bdc:	d104      	bne.n	24002be8 <HAL_DMAEx_MultiBufferStart_IT+0x14>
24002bde:	f44f 7380 	mov.w	r3, #256	; 0x100
24002be2:	2001      	movs	r0, #1
24002be4:	6563      	str	r3, [r4, #84]	; 0x54
24002be6:	bdf8      	pop	{r3, r4, r5, r6, r7, pc}
24002be8:	f894 0034 	ldrb.w	r0, [r4, #52]	; 0x34
24002bec:	2801      	cmp	r0, #1
24002bee:	f000 81a1 	beq.w	24002f34 <HAL_DMAEx_MultiBufferStart_IT+0x360>
24002bf2:	2001      	movs	r0, #1
24002bf4:	f894 5035 	ldrb.w	r5, [r4, #53]	; 0x35
24002bf8:	4285      	cmp	r5, r0
24002bfa:	f884 0034 	strb.w	r0, [r4, #52]	; 0x34
24002bfe:	f040 8195 	bne.w	24002f2c <HAL_DMAEx_MultiBufferStart_IT+0x358>
24002c02:	2002      	movs	r0, #2
24002c04:	4d6d      	ldr	r5, [pc, #436]	; (24002dbc <HAL_DMAEx_MultiBufferStart_IT+0x1e8>)
24002c06:	f884 0035 	strb.w	r0, [r4, #53]	; 0x35
24002c0a:	2000      	movs	r0, #0
24002c0c:	6560      	str	r0, [r4, #84]	; 0x54
24002c0e:	6820      	ldr	r0, [r4, #0]
24002c10:	e9d4 c716 	ldrd	ip, r7, [r4, #88]	; 0x58
24002c14:	42a8      	cmp	r0, r5
24002c16:	f007 071f 	and.w	r7, r7, #31
24002c1a:	f000 80c4 	beq.w	24002da6 <HAL_DMAEx_MultiBufferStart_IT+0x1d2>
24002c1e:	4e68      	ldr	r6, [pc, #416]	; (24002dc0 <HAL_DMAEx_MultiBufferStart_IT+0x1ec>)
24002c20:	42b0      	cmp	r0, r6
24002c22:	f000 80c0 	beq.w	24002da6 <HAL_DMAEx_MultiBufferStart_IT+0x1d2>
24002c26:	3618      	adds	r6, #24
24002c28:	42b0      	cmp	r0, r6
24002c2a:	f000 80bc 	beq.w	24002da6 <HAL_DMAEx_MultiBufferStart_IT+0x1d2>
24002c2e:	3618      	adds	r6, #24
24002c30:	42b0      	cmp	r0, r6
24002c32:	f000 80b8 	beq.w	24002da6 <HAL_DMAEx_MultiBufferStart_IT+0x1d2>
24002c36:	3618      	adds	r6, #24
24002c38:	42b0      	cmp	r0, r6
24002c3a:	f000 80b4 	beq.w	24002da6 <HAL_DMAEx_MultiBufferStart_IT+0x1d2>
24002c3e:	3618      	adds	r6, #24
24002c40:	42b0      	cmp	r0, r6
24002c42:	f000 80b0 	beq.w	24002da6 <HAL_DMAEx_MultiBufferStart_IT+0x1d2>
24002c46:	3618      	adds	r6, #24
24002c48:	42b0      	cmp	r0, r6
24002c4a:	f000 80ac 	beq.w	24002da6 <HAL_DMAEx_MultiBufferStart_IT+0x1d2>
24002c4e:	3618      	adds	r6, #24
24002c50:	42b0      	cmp	r0, r6
24002c52:	f000 80a8 	beq.w	24002da6 <HAL_DMAEx_MultiBufferStart_IT+0x1d2>
24002c56:	f506 7656 	add.w	r6, r6, #856	; 0x358
24002c5a:	42b0      	cmp	r0, r6
24002c5c:	f000 80a3 	beq.w	24002da6 <HAL_DMAEx_MultiBufferStart_IT+0x1d2>
24002c60:	3618      	adds	r6, #24
24002c62:	42b0      	cmp	r0, r6
24002c64:	f000 809f 	beq.w	24002da6 <HAL_DMAEx_MultiBufferStart_IT+0x1d2>
24002c68:	3618      	adds	r6, #24
24002c6a:	42b0      	cmp	r0, r6
24002c6c:	f000 809b 	beq.w	24002da6 <HAL_DMAEx_MultiBufferStart_IT+0x1d2>
24002c70:	3618      	adds	r6, #24
24002c72:	42b0      	cmp	r0, r6
24002c74:	f000 8097 	beq.w	24002da6 <HAL_DMAEx_MultiBufferStart_IT+0x1d2>
24002c78:	3618      	adds	r6, #24
24002c7a:	42b0      	cmp	r0, r6
24002c7c:	f000 8093 	beq.w	24002da6 <HAL_DMAEx_MultiBufferStart_IT+0x1d2>
24002c80:	3618      	adds	r6, #24
24002c82:	42b0      	cmp	r0, r6
24002c84:	f000 808f 	beq.w	24002da6 <HAL_DMAEx_MultiBufferStart_IT+0x1d2>
24002c88:	3618      	adds	r6, #24
24002c8a:	42b0      	cmp	r0, r6
24002c8c:	f000 808b 	beq.w	24002da6 <HAL_DMAEx_MultiBufferStart_IT+0x1d2>
24002c90:	3618      	adds	r6, #24
24002c92:	42b0      	cmp	r0, r6
24002c94:	f000 8087 	beq.w	24002da6 <HAL_DMAEx_MultiBufferStart_IT+0x1d2>
24002c98:	6806      	ldr	r6, [r0, #0]
24002c9a:	f446 4600 	orr.w	r6, r6, #32768	; 0x8000
24002c9e:	f046 0620 	orr.w	r6, r6, #32
24002ca2:	6006      	str	r6, [r0, #0]
24002ca4:	6103      	str	r3, [r0, #16]
24002ca6:	2301      	movs	r3, #1
24002ca8:	fa03 f707 	lsl.w	r7, r3, r7
24002cac:	f8cc 7004 	str.w	r7, [ip, #4]
24002cb0:	9b06      	ldr	r3, [sp, #24]
24002cb2:	4620      	mov	r0, r4
24002cb4:	f7ff fe68 	bl	24002988 <DMA_MultiBufferSetConfig>
24002cb8:	6823      	ldr	r3, [r4, #0]
24002cba:	6c21      	ldr	r1, [r4, #64]	; 0x40
24002cbc:	42ab      	cmp	r3, r5
24002cbe:	f000 8085 	beq.w	24002dcc <HAL_DMAEx_MultiBufferStart_IT+0x1f8>
24002cc2:	4a3f      	ldr	r2, [pc, #252]	; (24002dc0 <HAL_DMAEx_MultiBufferStart_IT+0x1ec>)
24002cc4:	4293      	cmp	r3, r2
24002cc6:	f000 8081 	beq.w	24002dcc <HAL_DMAEx_MultiBufferStart_IT+0x1f8>
24002cca:	3218      	adds	r2, #24
24002ccc:	4293      	cmp	r3, r2
24002cce:	d07d      	beq.n	24002dcc <HAL_DMAEx_MultiBufferStart_IT+0x1f8>
24002cd0:	3218      	adds	r2, #24
24002cd2:	4293      	cmp	r3, r2
24002cd4:	d07a      	beq.n	24002dcc <HAL_DMAEx_MultiBufferStart_IT+0x1f8>
24002cd6:	3218      	adds	r2, #24
24002cd8:	4293      	cmp	r3, r2
24002cda:	d077      	beq.n	24002dcc <HAL_DMAEx_MultiBufferStart_IT+0x1f8>
24002cdc:	3218      	adds	r2, #24
24002cde:	4293      	cmp	r3, r2
24002ce0:	d074      	beq.n	24002dcc <HAL_DMAEx_MultiBufferStart_IT+0x1f8>
24002ce2:	3218      	adds	r2, #24
24002ce4:	4293      	cmp	r3, r2
24002ce6:	d071      	beq.n	24002dcc <HAL_DMAEx_MultiBufferStart_IT+0x1f8>
24002ce8:	3218      	adds	r2, #24
24002cea:	4293      	cmp	r3, r2
24002cec:	d06e      	beq.n	24002dcc <HAL_DMAEx_MultiBufferStart_IT+0x1f8>
24002cee:	f502 7256 	add.w	r2, r2, #856	; 0x358
24002cf2:	4293      	cmp	r3, r2
24002cf4:	d06a      	beq.n	24002dcc <HAL_DMAEx_MultiBufferStart_IT+0x1f8>
24002cf6:	3218      	adds	r2, #24
24002cf8:	4293      	cmp	r3, r2
24002cfa:	d067      	beq.n	24002dcc <HAL_DMAEx_MultiBufferStart_IT+0x1f8>
24002cfc:	3218      	adds	r2, #24
24002cfe:	4293      	cmp	r3, r2
24002d00:	d064      	beq.n	24002dcc <HAL_DMAEx_MultiBufferStart_IT+0x1f8>
24002d02:	3218      	adds	r2, #24
24002d04:	4293      	cmp	r3, r2
24002d06:	d061      	beq.n	24002dcc <HAL_DMAEx_MultiBufferStart_IT+0x1f8>
24002d08:	3218      	adds	r2, #24
24002d0a:	4293      	cmp	r3, r2
24002d0c:	d05e      	beq.n	24002dcc <HAL_DMAEx_MultiBufferStart_IT+0x1f8>
24002d0e:	3218      	adds	r2, #24
24002d10:	4293      	cmp	r3, r2
24002d12:	d05b      	beq.n	24002dcc <HAL_DMAEx_MultiBufferStart_IT+0x1f8>
24002d14:	3218      	adds	r2, #24
24002d16:	4293      	cmp	r3, r2
24002d18:	d058      	beq.n	24002dcc <HAL_DMAEx_MultiBufferStart_IT+0x1f8>
24002d1a:	3218      	adds	r2, #24
24002d1c:	4293      	cmp	r3, r2
24002d1e:	d055      	beq.n	24002dcc <HAL_DMAEx_MultiBufferStart_IT+0x1f8>
24002d20:	4a28      	ldr	r2, [pc, #160]	; (24002dc4 <HAL_DMAEx_MultiBufferStart_IT+0x1f0>)
24002d22:	4293      	cmp	r3, r2
24002d24:	d052      	beq.n	24002dcc <HAL_DMAEx_MultiBufferStart_IT+0x1f8>
24002d26:	3214      	adds	r2, #20
24002d28:	4293      	cmp	r3, r2
24002d2a:	d04f      	beq.n	24002dcc <HAL_DMAEx_MultiBufferStart_IT+0x1f8>
24002d2c:	3214      	adds	r2, #20
24002d2e:	4293      	cmp	r3, r2
24002d30:	d04c      	beq.n	24002dcc <HAL_DMAEx_MultiBufferStart_IT+0x1f8>
24002d32:	3214      	adds	r2, #20
24002d34:	4293      	cmp	r3, r2
24002d36:	d049      	beq.n	24002dcc <HAL_DMAEx_MultiBufferStart_IT+0x1f8>
24002d38:	3214      	adds	r2, #20
24002d3a:	4293      	cmp	r3, r2
24002d3c:	d046      	beq.n	24002dcc <HAL_DMAEx_MultiBufferStart_IT+0x1f8>
24002d3e:	3214      	adds	r2, #20
24002d40:	4293      	cmp	r3, r2
24002d42:	d043      	beq.n	24002dcc <HAL_DMAEx_MultiBufferStart_IT+0x1f8>
24002d44:	3214      	adds	r2, #20
24002d46:	4293      	cmp	r3, r2
24002d48:	d040      	beq.n	24002dcc <HAL_DMAEx_MultiBufferStart_IT+0x1f8>
24002d4a:	3214      	adds	r2, #20
24002d4c:	4293      	cmp	r3, r2
24002d4e:	d03d      	beq.n	24002dcc <HAL_DMAEx_MultiBufferStart_IT+0x1f8>
24002d50:	681a      	ldr	r2, [r3, #0]
24002d52:	f022 020e 	bic.w	r2, r2, #14
24002d56:	f042 020a 	orr.w	r2, r2, #10
24002d5a:	601a      	str	r2, [r3, #0]
24002d5c:	b909      	cbnz	r1, 24002d62 <HAL_DMAEx_MultiBufferStart_IT+0x18e>
24002d5e:	6ca2      	ldr	r2, [r4, #72]	; 0x48
24002d60:	b11a      	cbz	r2, 24002d6a <HAL_DMAEx_MultiBufferStart_IT+0x196>
24002d62:	681a      	ldr	r2, [r3, #0]
24002d64:	f042 0204 	orr.w	r2, r2, #4
24002d68:	601a      	str	r2, [r3, #0]
24002d6a:	4a16      	ldr	r2, [pc, #88]	; (24002dc4 <HAL_DMAEx_MultiBufferStart_IT+0x1f0>)
24002d6c:	4293      	cmp	r3, r2
24002d6e:	d078      	beq.n	24002e62 <HAL_DMAEx_MultiBufferStart_IT+0x28e>
24002d70:	4a15      	ldr	r2, [pc, #84]	; (24002dc8 <HAL_DMAEx_MultiBufferStart_IT+0x1f4>)
24002d72:	4293      	cmp	r3, r2
24002d74:	d075      	beq.n	24002e62 <HAL_DMAEx_MultiBufferStart_IT+0x28e>
24002d76:	3214      	adds	r2, #20
24002d78:	4293      	cmp	r3, r2
24002d7a:	d072      	beq.n	24002e62 <HAL_DMAEx_MultiBufferStart_IT+0x28e>
24002d7c:	3214      	adds	r2, #20
24002d7e:	4293      	cmp	r3, r2
24002d80:	d06f      	beq.n	24002e62 <HAL_DMAEx_MultiBufferStart_IT+0x28e>
24002d82:	3214      	adds	r2, #20
24002d84:	4293      	cmp	r3, r2
24002d86:	d06c      	beq.n	24002e62 <HAL_DMAEx_MultiBufferStart_IT+0x28e>
24002d88:	3214      	adds	r2, #20
24002d8a:	4293      	cmp	r3, r2
24002d8c:	d069      	beq.n	24002e62 <HAL_DMAEx_MultiBufferStart_IT+0x28e>
24002d8e:	3214      	adds	r2, #20
24002d90:	4293      	cmp	r3, r2
24002d92:	d066      	beq.n	24002e62 <HAL_DMAEx_MultiBufferStart_IT+0x28e>
24002d94:	3214      	adds	r2, #20
24002d96:	4293      	cmp	r3, r2
24002d98:	d063      	beq.n	24002e62 <HAL_DMAEx_MultiBufferStart_IT+0x28e>
24002d9a:	681a      	ldr	r2, [r3, #0]
24002d9c:	2000      	movs	r0, #0
24002d9e:	f042 0201 	orr.w	r2, r2, #1
24002da2:	601a      	str	r2, [r3, #0]
24002da4:	e71f      	b.n	24002be6 <HAL_DMAEx_MultiBufferStart_IT+0x12>
24002da6:	6806      	ldr	r6, [r0, #0]
24002da8:	f446 2680 	orr.w	r6, r6, #262144	; 0x40000
24002dac:	6006      	str	r6, [r0, #0]
24002dae:	6103      	str	r3, [r0, #16]
24002db0:	233f      	movs	r3, #63	; 0x3f
24002db2:	fa03 f707 	lsl.w	r7, r3, r7
24002db6:	f8cc 7008 	str.w	r7, [ip, #8]
24002dba:	e779      	b.n	24002cb0 <HAL_DMAEx_MultiBufferStart_IT+0xdc>
24002dbc:	40020010 	.word	0x40020010
24002dc0:	40020028 	.word	0x40020028
24002dc4:	58025408 	.word	0x58025408
24002dc8:	5802541c 	.word	0x5802541c
24002dcc:	e9d4 2019 	ldrd	r2, r0, [r4, #100]	; 0x64
24002dd0:	6050      	str	r0, [r2, #4]
24002dd2:	6ee2      	ldr	r2, [r4, #108]	; 0x6c
24002dd4:	b112      	cbz	r2, 24002ddc <HAL_DMAEx_MultiBufferStart_IT+0x208>
24002dd6:	e9d4 201c 	ldrd	r2, r0, [r4, #112]	; 0x70
24002dda:	6050      	str	r0, [r2, #4]
24002ddc:	42ab      	cmp	r3, r5
24002dde:	d02d      	beq.n	24002e3c <HAL_DMAEx_MultiBufferStart_IT+0x268>
24002de0:	4a55      	ldr	r2, [pc, #340]	; (24002f38 <HAL_DMAEx_MultiBufferStart_IT+0x364>)
24002de2:	4293      	cmp	r3, r2
24002de4:	d02a      	beq.n	24002e3c <HAL_DMAEx_MultiBufferStart_IT+0x268>
24002de6:	3218      	adds	r2, #24
24002de8:	4293      	cmp	r3, r2
24002dea:	d027      	beq.n	24002e3c <HAL_DMAEx_MultiBufferStart_IT+0x268>
24002dec:	3218      	adds	r2, #24
24002dee:	4293      	cmp	r3, r2
24002df0:	d024      	beq.n	24002e3c <HAL_DMAEx_MultiBufferStart_IT+0x268>
24002df2:	3218      	adds	r2, #24
24002df4:	4293      	cmp	r3, r2
24002df6:	d021      	beq.n	24002e3c <HAL_DMAEx_MultiBufferStart_IT+0x268>
24002df8:	3218      	adds	r2, #24
24002dfa:	4293      	cmp	r3, r2
24002dfc:	d01e      	beq.n	24002e3c <HAL_DMAEx_MultiBufferStart_IT+0x268>
24002dfe:	3218      	adds	r2, #24
24002e00:	4293      	cmp	r3, r2
24002e02:	d01b      	beq.n	24002e3c <HAL_DMAEx_MultiBufferStart_IT+0x268>
24002e04:	3218      	adds	r2, #24
24002e06:	4293      	cmp	r3, r2
24002e08:	d018      	beq.n	24002e3c <HAL_DMAEx_MultiBufferStart_IT+0x268>
24002e0a:	f502 7256 	add.w	r2, r2, #856	; 0x358
24002e0e:	4293      	cmp	r3, r2
24002e10:	d014      	beq.n	24002e3c <HAL_DMAEx_MultiBufferStart_IT+0x268>
24002e12:	3218      	adds	r2, #24
24002e14:	4293      	cmp	r3, r2
24002e16:	d011      	beq.n	24002e3c <HAL_DMAEx_MultiBufferStart_IT+0x268>
24002e18:	3218      	adds	r2, #24
24002e1a:	4293      	cmp	r3, r2
24002e1c:	d00e      	beq.n	24002e3c <HAL_DMAEx_MultiBufferStart_IT+0x268>
24002e1e:	3218      	adds	r2, #24
24002e20:	4293      	cmp	r3, r2
24002e22:	d00b      	beq.n	24002e3c <HAL_DMAEx_MultiBufferStart_IT+0x268>
24002e24:	3218      	adds	r2, #24
24002e26:	4293      	cmp	r3, r2
24002e28:	d008      	beq.n	24002e3c <HAL_DMAEx_MultiBufferStart_IT+0x268>
24002e2a:	3218      	adds	r2, #24
24002e2c:	4293      	cmp	r3, r2
24002e2e:	d005      	beq.n	24002e3c <HAL_DMAEx_MultiBufferStart_IT+0x268>
24002e30:	3218      	adds	r2, #24
24002e32:	4293      	cmp	r3, r2
24002e34:	d002      	beq.n	24002e3c <HAL_DMAEx_MultiBufferStart_IT+0x268>
24002e36:	3218      	adds	r2, #24
24002e38:	4293      	cmp	r3, r2
24002e3a:	d189      	bne.n	24002d50 <HAL_DMAEx_MultiBufferStart_IT+0x17c>
24002e3c:	681a      	ldr	r2, [r3, #0]
24002e3e:	f022 021e 	bic.w	r2, r2, #30
24002e42:	f042 0216 	orr.w	r2, r2, #22
24002e46:	601a      	str	r2, [r3, #0]
24002e48:	695a      	ldr	r2, [r3, #20]
24002e4a:	f042 0280 	orr.w	r2, r2, #128	; 0x80
24002e4e:	615a      	str	r2, [r3, #20]
24002e50:	b909      	cbnz	r1, 24002e56 <HAL_DMAEx_MultiBufferStart_IT+0x282>
24002e52:	6ca2      	ldr	r2, [r4, #72]	; 0x48
24002e54:	b11a      	cbz	r2, 24002e5e <HAL_DMAEx_MultiBufferStart_IT+0x28a>
24002e56:	681a      	ldr	r2, [r3, #0]
24002e58:	f042 0208 	orr.w	r2, r2, #8
24002e5c:	601a      	str	r2, [r3, #0]
24002e5e:	42ab      	cmp	r3, r5
24002e60:	d130      	bne.n	24002ec4 <HAL_DMAEx_MultiBufferStart_IT+0x2f0>
24002e62:	6e22      	ldr	r2, [r4, #96]	; 0x60
24002e64:	6811      	ldr	r1, [r2, #0]
24002e66:	03c9      	lsls	r1, r1, #15
24002e68:	d45b      	bmi.n	24002f22 <HAL_DMAEx_MultiBufferStart_IT+0x34e>
24002e6a:	6ee2      	ldr	r2, [r4, #108]	; 0x6c
24002e6c:	b11a      	cbz	r2, 24002e76 <HAL_DMAEx_MultiBufferStart_IT+0x2a2>
24002e6e:	6811      	ldr	r1, [r2, #0]
24002e70:	f441 7180 	orr.w	r1, r1, #256	; 0x100
24002e74:	6011      	str	r1, [r2, #0]
24002e76:	42ab      	cmp	r3, r5
24002e78:	d08f      	beq.n	24002d9a <HAL_DMAEx_MultiBufferStart_IT+0x1c6>
24002e7a:	4a2f      	ldr	r2, [pc, #188]	; (24002f38 <HAL_DMAEx_MultiBufferStart_IT+0x364>)
24002e7c:	4293      	cmp	r3, r2
24002e7e:	d08c      	beq.n	24002d9a <HAL_DMAEx_MultiBufferStart_IT+0x1c6>
24002e80:	3218      	adds	r2, #24
24002e82:	4293      	cmp	r3, r2
24002e84:	d089      	beq.n	24002d9a <HAL_DMAEx_MultiBufferStart_IT+0x1c6>
24002e86:	3218      	adds	r2, #24
24002e88:	4293      	cmp	r3, r2
24002e8a:	d086      	beq.n	24002d9a <HAL_DMAEx_MultiBufferStart_IT+0x1c6>
24002e8c:	3218      	adds	r2, #24
24002e8e:	4293      	cmp	r3, r2
24002e90:	d083      	beq.n	24002d9a <HAL_DMAEx_MultiBufferStart_IT+0x1c6>
24002e92:	3218      	adds	r2, #24
24002e94:	4293      	cmp	r3, r2
24002e96:	d080      	beq.n	24002d9a <HAL_DMAEx_MultiBufferStart_IT+0x1c6>
24002e98:	3218      	adds	r2, #24
24002e9a:	4293      	cmp	r3, r2
24002e9c:	f43f af7d 	beq.w	24002d9a <HAL_DMAEx_MultiBufferStart_IT+0x1c6>
24002ea0:	3218      	adds	r2, #24
24002ea2:	4293      	cmp	r3, r2
24002ea4:	f43f af79 	beq.w	24002d9a <HAL_DMAEx_MultiBufferStart_IT+0x1c6>
24002ea8:	f502 7256 	add.w	r2, r2, #856	; 0x358
24002eac:	4293      	cmp	r3, r2
24002eae:	f43f af74 	beq.w	24002d9a <HAL_DMAEx_MultiBufferStart_IT+0x1c6>
24002eb2:	3218      	adds	r2, #24
24002eb4:	4293      	cmp	r3, r2
24002eb6:	f43f af70 	beq.w	24002d9a <HAL_DMAEx_MultiBufferStart_IT+0x1c6>
24002eba:	3218      	adds	r2, #24
24002ebc:	4293      	cmp	r3, r2
24002ebe:	f43f af6c 	beq.w	24002d9a <HAL_DMAEx_MultiBufferStart_IT+0x1c6>
24002ec2:	e76a      	b.n	24002d9a <HAL_DMAEx_MultiBufferStart_IT+0x1c6>
24002ec4:	4a1c      	ldr	r2, [pc, #112]	; (24002f38 <HAL_DMAEx_MultiBufferStart_IT+0x364>)
24002ec6:	4293      	cmp	r3, r2
24002ec8:	d0cb      	beq.n	24002e62 <HAL_DMAEx_MultiBufferStart_IT+0x28e>
24002eca:	3218      	adds	r2, #24
24002ecc:	4293      	cmp	r3, r2
24002ece:	d0c8      	beq.n	24002e62 <HAL_DMAEx_MultiBufferStart_IT+0x28e>
24002ed0:	3218      	adds	r2, #24
24002ed2:	4293      	cmp	r3, r2
24002ed4:	d0c5      	beq.n	24002e62 <HAL_DMAEx_MultiBufferStart_IT+0x28e>
24002ed6:	3218      	adds	r2, #24
24002ed8:	4293      	cmp	r3, r2
24002eda:	d0c2      	beq.n	24002e62 <HAL_DMAEx_MultiBufferStart_IT+0x28e>
24002edc:	3218      	adds	r2, #24
24002ede:	4293      	cmp	r3, r2
24002ee0:	d0bf      	beq.n	24002e62 <HAL_DMAEx_MultiBufferStart_IT+0x28e>
24002ee2:	3218      	adds	r2, #24
24002ee4:	4293      	cmp	r3, r2
24002ee6:	d0bc      	beq.n	24002e62 <HAL_DMAEx_MultiBufferStart_IT+0x28e>
24002ee8:	3218      	adds	r2, #24
24002eea:	4293      	cmp	r3, r2
24002eec:	d0b9      	beq.n	24002e62 <HAL_DMAEx_MultiBufferStart_IT+0x28e>
24002eee:	f502 7256 	add.w	r2, r2, #856	; 0x358
24002ef2:	4293      	cmp	r3, r2
24002ef4:	d0b5      	beq.n	24002e62 <HAL_DMAEx_MultiBufferStart_IT+0x28e>
24002ef6:	3218      	adds	r2, #24
24002ef8:	4293      	cmp	r3, r2
24002efa:	d0b2      	beq.n	24002e62 <HAL_DMAEx_MultiBufferStart_IT+0x28e>
24002efc:	3218      	adds	r2, #24
24002efe:	4293      	cmp	r3, r2
24002f00:	d0af      	beq.n	24002e62 <HAL_DMAEx_MultiBufferStart_IT+0x28e>
24002f02:	3218      	adds	r2, #24
24002f04:	4293      	cmp	r3, r2
24002f06:	d0ac      	beq.n	24002e62 <HAL_DMAEx_MultiBufferStart_IT+0x28e>
24002f08:	3218      	adds	r2, #24
24002f0a:	4293      	cmp	r3, r2
24002f0c:	d0a9      	beq.n	24002e62 <HAL_DMAEx_MultiBufferStart_IT+0x28e>
24002f0e:	3218      	adds	r2, #24
24002f10:	4293      	cmp	r3, r2
24002f12:	d0a6      	beq.n	24002e62 <HAL_DMAEx_MultiBufferStart_IT+0x28e>
24002f14:	3218      	adds	r2, #24
24002f16:	4293      	cmp	r3, r2
24002f18:	d0a3      	beq.n	24002e62 <HAL_DMAEx_MultiBufferStart_IT+0x28e>
24002f1a:	3218      	adds	r2, #24
24002f1c:	4293      	cmp	r3, r2
24002f1e:	d0a0      	beq.n	24002e62 <HAL_DMAEx_MultiBufferStart_IT+0x28e>
24002f20:	e723      	b.n	24002d6a <HAL_DMAEx_MultiBufferStart_IT+0x196>
24002f22:	6811      	ldr	r1, [r2, #0]
24002f24:	f441 7180 	orr.w	r1, r1, #256	; 0x100
24002f28:	6011      	str	r1, [r2, #0]
24002f2a:	e79e      	b.n	24002e6a <HAL_DMAEx_MultiBufferStart_IT+0x296>
24002f2c:	f44f 6300 	mov.w	r3, #2048	; 0x800
24002f30:	6563      	str	r3, [r4, #84]	; 0x54
24002f32:	e658      	b.n	24002be6 <HAL_DMAEx_MultiBufferStart_IT+0x12>
24002f34:	2002      	movs	r0, #2
24002f36:	e656      	b.n	24002be6 <HAL_DMAEx_MultiBufferStart_IT+0x12>
24002f38:	40020028 	.word	0x40020028

24002f3c <HAL_DMAEx_ChangeMemory>:
24002f3c:	6803      	ldr	r3, [r0, #0]
24002f3e:	4814      	ldr	r0, [pc, #80]	; (24002f90 <HAL_DMAEx_ChangeMemory+0x54>)
24002f40:	4283      	cmp	r3, r0
24002f42:	d01e      	beq.n	24002f82 <HAL_DMAEx_ChangeMemory+0x46>
24002f44:	3018      	adds	r0, #24
24002f46:	4283      	cmp	r3, r0
24002f48:	d01b      	beq.n	24002f82 <HAL_DMAEx_ChangeMemory+0x46>
24002f4a:	3018      	adds	r0, #24
24002f4c:	4283      	cmp	r3, r0
24002f4e:	d018      	beq.n	24002f82 <HAL_DMAEx_ChangeMemory+0x46>
24002f50:	3018      	adds	r0, #24
24002f52:	4283      	cmp	r3, r0
24002f54:	d015      	beq.n	24002f82 <HAL_DMAEx_ChangeMemory+0x46>
24002f56:	3018      	adds	r0, #24
24002f58:	4283      	cmp	r3, r0
24002f5a:	d012      	beq.n	24002f82 <HAL_DMAEx_ChangeMemory+0x46>
24002f5c:	3018      	adds	r0, #24
24002f5e:	4283      	cmp	r3, r0
24002f60:	d00f      	beq.n	24002f82 <HAL_DMAEx_ChangeMemory+0x46>
24002f62:	3018      	adds	r0, #24
24002f64:	4283      	cmp	r3, r0
24002f66:	d00c      	beq.n	24002f82 <HAL_DMAEx_ChangeMemory+0x46>
24002f68:	3018      	adds	r0, #24
24002f6a:	4283      	cmp	r3, r0
24002f6c:	d009      	beq.n	24002f82 <HAL_DMAEx_ChangeMemory+0x46>
24002f6e:	f500 7056 	add.w	r0, r0, #856	; 0x358
24002f72:	4283      	cmp	r3, r0
24002f74:	d005      	beq.n	24002f82 <HAL_DMAEx_ChangeMemory+0x46>
24002f76:	3018      	adds	r0, #24
24002f78:	4283      	cmp	r3, r0
24002f7a:	d002      	beq.n	24002f82 <HAL_DMAEx_ChangeMemory+0x46>
24002f7c:	3018      	adds	r0, #24
24002f7e:	4283      	cmp	r3, r0
24002f80:	d0ff      	beq.n	24002f82 <HAL_DMAEx_ChangeMemory+0x46>
24002f82:	b912      	cbnz	r2, 24002f8a <HAL_DMAEx_ChangeMemory+0x4e>
24002f84:	60d9      	str	r1, [r3, #12]
24002f86:	2000      	movs	r0, #0
24002f88:	4770      	bx	lr
24002f8a:	6119      	str	r1, [r3, #16]
24002f8c:	e7fb      	b.n	24002f86 <HAL_DMAEx_ChangeMemory+0x4a>
24002f8e:	bf00      	nop
24002f90:	40020010 	.word	0x40020010

24002f94 <HAL_DMAEx_ConfigMuxSync>:
24002f94:	b5f0      	push	{r4, r5, r6, r7, lr}
24002f96:	7a0b      	ldrb	r3, [r1, #8]
24002f98:	f890 2035 	ldrb.w	r2, [r0, #53]	; 0x35
24002f9c:	2b01      	cmp	r3, #1
24002f9e:	bf16      	itet	ne
24002fa0:	2400      	movne	r4, #0
24002fa2:	e9d1 7400 	ldrdeq	r7, r4, [r1]
24002fa6:	4627      	movne	r7, r4
24002fa8:	2a01      	cmp	r2, #1
24002faa:	d11c      	bne.n	24002fe6 <HAL_DMAEx_ConfigMuxSync+0x52>
24002fac:	f890 2034 	ldrb.w	r2, [r0, #52]	; 0x34
24002fb0:	2a01      	cmp	r2, #1
24002fb2:	d01d      	beq.n	24002ff0 <HAL_DMAEx_ConfigMuxSync+0x5c>
24002fb4:	6e02      	ldr	r2, [r0, #96]	; 0x60
24002fb6:	041b      	lsls	r3, r3, #16
24002fb8:	68ce      	ldr	r6, [r1, #12]
24002fba:	6815      	ldr	r5, [r2, #0]
24002fbc:	3e01      	subs	r6, #1
24002fbe:	f425 3581 	bic.w	r5, r5, #66048	; 0x10200
24002fc2:	ea43 43c6 	orr.w	r3, r3, r6, lsl #19
24002fc6:	6015      	str	r5, [r2, #0]
24002fc8:	6815      	ldr	r5, [r2, #0]
24002fca:	7a49      	ldrb	r1, [r1, #9]
24002fcc:	b2ed      	uxtb	r5, r5
24002fce:	432b      	orrs	r3, r5
24002fd0:	ea43 2341 	orr.w	r3, r3, r1, lsl #9
24002fd4:	4323      	orrs	r3, r4
24002fd6:	ea43 6307 	orr.w	r3, r3, r7, lsl #24
24002fda:	6013      	str	r3, [r2, #0]
24002fdc:	2300      	movs	r3, #0
24002fde:	f880 3034 	strb.w	r3, [r0, #52]	; 0x34
24002fe2:	4618      	mov	r0, r3
24002fe4:	bdf0      	pop	{r4, r5, r6, r7, pc}
24002fe6:	f44f 6300 	mov.w	r3, #2048	; 0x800
24002fea:	6543      	str	r3, [r0, #84]	; 0x54
24002fec:	2001      	movs	r0, #1
24002fee:	e7f9      	b.n	24002fe4 <HAL_DMAEx_ConfigMuxSync+0x50>
24002ff0:	2002      	movs	r0, #2
24002ff2:	e7f7      	b.n	24002fe4 <HAL_DMAEx_ConfigMuxSync+0x50>

24002ff4 <HAL_DMAEx_ConfigMuxRequestGenerator>:
24002ff4:	b530      	push	{r4, r5, lr}
24002ff6:	6ec4      	ldr	r4, [r0, #108]	; 0x6c
24002ff8:	f890 2035 	ldrb.w	r2, [r0, #53]	; 0x35
24002ffc:	b2d2      	uxtb	r2, r2
24002ffe:	b91c      	cbnz	r4, 24003008 <HAL_DMAEx_ConfigMuxRequestGenerator+0x14>
24003000:	2340      	movs	r3, #64	; 0x40
24003002:	6543      	str	r3, [r0, #84]	; 0x54
24003004:	2001      	movs	r0, #1
24003006:	e014      	b.n	24003032 <HAL_DMAEx_ConfigMuxRequestGenerator+0x3e>
24003008:	6823      	ldr	r3, [r4, #0]
2400300a:	f413 3380 	ands.w	r3, r3, #65536	; 0x10000
2400300e:	d111      	bne.n	24003034 <HAL_DMAEx_ConfigMuxRequestGenerator+0x40>
24003010:	2a01      	cmp	r2, #1
24003012:	d10f      	bne.n	24003034 <HAL_DMAEx_ConfigMuxRequestGenerator+0x40>
24003014:	f890 2034 	ldrb.w	r2, [r0, #52]	; 0x34
24003018:	2a01      	cmp	r2, #1
2400301a:	d00e      	beq.n	2400303a <HAL_DMAEx_ConfigMuxRequestGenerator+0x46>
2400301c:	688a      	ldr	r2, [r1, #8]
2400301e:	1e55      	subs	r5, r2, #1
24003020:	e9d1 2100 	ldrd	r2, r1, [r1]
24003024:	430a      	orrs	r2, r1
24003026:	ea42 42c5 	orr.w	r2, r2, r5, lsl #19
2400302a:	6022      	str	r2, [r4, #0]
2400302c:	f880 3034 	strb.w	r3, [r0, #52]	; 0x34
24003030:	4618      	mov	r0, r3
24003032:	bd30      	pop	{r4, r5, pc}
24003034:	f44f 6300 	mov.w	r3, #2048	; 0x800
24003038:	e7e3      	b.n	24003002 <HAL_DMAEx_ConfigMuxRequestGenerator+0xe>
2400303a:	2002      	movs	r0, #2
2400303c:	e7f9      	b.n	24003032 <HAL_DMAEx_ConfigMuxRequestGenerator+0x3e>

2400303e <HAL_DMAEx_EnableMuxRequestGenerator>:
2400303e:	f890 3035 	ldrb.w	r3, [r0, #53]	; 0x35
24003042:	b13b      	cbz	r3, 24003054 <HAL_DMAEx_EnableMuxRequestGenerator+0x16>
24003044:	6ec3      	ldr	r3, [r0, #108]	; 0x6c
24003046:	b12b      	cbz	r3, 24003054 <HAL_DMAEx_EnableMuxRequestGenerator+0x16>
24003048:	681a      	ldr	r2, [r3, #0]
2400304a:	2000      	movs	r0, #0
2400304c:	f442 3280 	orr.w	r2, r2, #65536	; 0x10000
24003050:	601a      	str	r2, [r3, #0]
24003052:	4770      	bx	lr
24003054:	2001      	movs	r0, #1
24003056:	4770      	bx	lr

24003058 <HAL_DMAEx_DisableMuxRequestGenerator>:
24003058:	f890 3035 	ldrb.w	r3, [r0, #53]	; 0x35
2400305c:	b13b      	cbz	r3, 2400306e <HAL_DMAEx_DisableMuxRequestGenerator+0x16>
2400305e:	6ec3      	ldr	r3, [r0, #108]	; 0x6c
24003060:	b12b      	cbz	r3, 2400306e <HAL_DMAEx_DisableMuxRequestGenerator+0x16>
24003062:	681a      	ldr	r2, [r3, #0]
24003064:	2000      	movs	r0, #0
24003066:	f422 3280 	bic.w	r2, r2, #65536	; 0x10000
2400306a:	601a      	str	r2, [r3, #0]
2400306c:	4770      	bx	lr
2400306e:	2001      	movs	r0, #1
24003070:	4770      	bx	lr

24003072 <HAL_DMAEx_MUX_IRQHandler>:
24003072:	6e42      	ldr	r2, [r0, #100]	; 0x64
24003074:	6e81      	ldr	r1, [r0, #104]	; 0x68
24003076:	6813      	ldr	r3, [r2, #0]
24003078:	420b      	tst	r3, r1
2400307a:	b570      	push	{r4, r5, r6, lr}
2400307c:	4604      	mov	r4, r0
2400307e:	d00c      	beq.n	2400309a <HAL_DMAEx_MUX_IRQHandler+0x28>
24003080:	6e05      	ldr	r5, [r0, #96]	; 0x60
24003082:	682b      	ldr	r3, [r5, #0]
24003084:	f423 7380 	bic.w	r3, r3, #256	; 0x100
24003088:	602b      	str	r3, [r5, #0]
2400308a:	6051      	str	r1, [r2, #4]
2400308c:	6d43      	ldr	r3, [r0, #84]	; 0x54
2400308e:	f443 7300 	orr.w	r3, r3, #512	; 0x200
24003092:	6543      	str	r3, [r0, #84]	; 0x54
24003094:	6cc3      	ldr	r3, [r0, #76]	; 0x4c
24003096:	b103      	cbz	r3, 2400309a <HAL_DMAEx_MUX_IRQHandler+0x28>
24003098:	4798      	blx	r3
2400309a:	6ee3      	ldr	r3, [r4, #108]	; 0x6c
2400309c:	b19b      	cbz	r3, 240030c6 <HAL_DMAEx_MUX_IRQHandler+0x54>
2400309e:	6f21      	ldr	r1, [r4, #112]	; 0x70
240030a0:	6f60      	ldr	r0, [r4, #116]	; 0x74
240030a2:	680a      	ldr	r2, [r1, #0]
240030a4:	4202      	tst	r2, r0
240030a6:	d00e      	beq.n	240030c6 <HAL_DMAEx_MUX_IRQHandler+0x54>
240030a8:	681a      	ldr	r2, [r3, #0]
240030aa:	f422 7280 	bic.w	r2, r2, #256	; 0x100
240030ae:	601a      	str	r2, [r3, #0]
240030b0:	6048      	str	r0, [r1, #4]
240030b2:	6d63      	ldr	r3, [r4, #84]	; 0x54
240030b4:	f443 6380 	orr.w	r3, r3, #1024	; 0x400
240030b8:	6563      	str	r3, [r4, #84]	; 0x54
240030ba:	6ce3      	ldr	r3, [r4, #76]	; 0x4c
240030bc:	b11b      	cbz	r3, 240030c6 <HAL_DMAEx_MUX_IRQHandler+0x54>
240030be:	4620      	mov	r0, r4
240030c0:	e8bd 4070 	ldmia.w	sp!, {r4, r5, r6, lr}
240030c4:	4718      	bx	r3
240030c6:	bd70      	pop	{r4, r5, r6, pc}

240030c8 <HAL_EXTI_SetConfigLine>:
240030c8:	b5f0      	push	{r4, r5, r6, r7, lr}
240030ca:	2800      	cmp	r0, #0
240030cc:	d073      	beq.n	240031b6 <HAL_EXTI_SetConfigLine+0xee>
240030ce:	2900      	cmp	r1, #0
240030d0:	d071      	beq.n	240031b6 <HAL_EXTI_SetConfigLine+0xee>
240030d2:	680c      	ldr	r4, [r1, #0]
240030d4:	2301      	movs	r3, #1
240030d6:	f004 061f 	and.w	r6, r4, #31
240030da:	6004      	str	r4, [r0, #0]
240030dc:	01a0      	lsls	r0, r4, #6
240030de:	f3c4 4201 	ubfx	r2, r4, #16, #2
240030e2:	fa03 f306 	lsl.w	r3, r3, r6
240030e6:	d529      	bpl.n	2400313c <HAL_EXTI_SetConfigLine+0x74>
240030e8:	0150      	lsls	r0, r2, #5
240030ea:	688f      	ldr	r7, [r1, #8]
240030ec:	f100 40b0 	add.w	r0, r0, #1476395008	; 0x58000000
240030f0:	07ff      	lsls	r7, r7, #31
240030f2:	6805      	ldr	r5, [r0, #0]
240030f4:	bf4c      	ite	mi
240030f6:	431d      	orrmi	r5, r3
240030f8:	439d      	bicpl	r5, r3
240030fa:	6005      	str	r5, [r0, #0]
240030fc:	688f      	ldr	r7, [r1, #8]
240030fe:	6845      	ldr	r5, [r0, #4]
24003100:	07bf      	lsls	r7, r7, #30
24003102:	bf4c      	ite	mi
24003104:	431d      	orrmi	r5, r3
24003106:	439d      	bicpl	r5, r3
24003108:	6045      	str	r5, [r0, #4]
2400310a:	6808      	ldr	r0, [r1, #0]
2400310c:	f000 60c0 	and.w	r0, r0, #100663296	; 0x6000000
24003110:	f1b0 6fc0 	cmp.w	r0, #100663296	; 0x6000000
24003114:	d112      	bne.n	2400313c <HAL_EXTI_SetConfigLine+0x74>
24003116:	f004 0503 	and.w	r5, r4, #3
2400311a:	f006 000c 	and.w	r0, r6, #12
2400311e:	00af      	lsls	r7, r5, #2
24003120:	f100 40b0 	add.w	r0, r0, #1476395008	; 0x58000000
24003124:	250f      	movs	r5, #15
24003126:	f8d0 c408 	ldr.w	ip, [r0, #1032]	; 0x408
2400312a:	40bd      	lsls	r5, r7
2400312c:	ea2c 0c05 	bic.w	ip, ip, r5
24003130:	68cd      	ldr	r5, [r1, #12]
24003132:	40bd      	lsls	r5, r7
24003134:	ea45 050c 	orr.w	r5, r5, ip
24003138:	f8c0 5408 	str.w	r5, [r0, #1032]	; 0x408
2400313c:	0110      	lsls	r0, r2, #4
2400313e:	684f      	ldr	r7, [r1, #4]
24003140:	f100 40b0 	add.w	r0, r0, #1476395008	; 0x58000000
24003144:	07ff      	lsls	r7, r7, #31
24003146:	f8d0 5080 	ldr.w	r5, [r0, #128]	; 0x80
2400314a:	bf4c      	ite	mi
2400314c:	431d      	orrmi	r5, r3
2400314e:	439d      	bicpl	r5, r3
24003150:	f8c0 5080 	str.w	r5, [r0, #128]	; 0x80
24003154:	684f      	ldr	r7, [r1, #4]
24003156:	f8d0 5084 	ldr.w	r5, [r0, #132]	; 0x84
2400315a:	07bf      	lsls	r7, r7, #30
2400315c:	bf4c      	ite	mi
2400315e:	431d      	orrmi	r5, r3
24003160:	439d      	bicpl	r5, r3
24003162:	f8c0 5084 	str.w	r5, [r0, #132]	; 0x84
24003166:	6808      	ldr	r0, [r1, #0]
24003168:	f400 1040 	and.w	r0, r0, #3145728	; 0x300000
2400316c:	f5b0 1f40 	cmp.w	r0, #3145728	; 0x300000
24003170:	d11f      	bne.n	240031b2 <HAL_EXTI_SetConfigLine+0xea>
24003172:	0152      	lsls	r2, r2, #5
24003174:	6908      	ldr	r0, [r1, #16]
24003176:	f102 42b0 	add.w	r2, r2, #1476395008	; 0x58000000
2400317a:	68d5      	ldr	r5, [r2, #12]
2400317c:	b918      	cbnz	r0, 24003186 <HAL_EXTI_SetConfigLine+0xbe>
2400317e:	ea25 0303 	bic.w	r3, r5, r3
24003182:	60d3      	str	r3, [r2, #12]
24003184:	bdf0      	pop	{r4, r5, r6, r7, pc}
24003186:	06e0      	lsls	r0, r4, #27
24003188:	ea45 0503 	orr.w	r5, r5, r3
2400318c:	bf44      	itt	mi
2400318e:	3e10      	submi	r6, #16
24003190:	2301      	movmi	r3, #1
24003192:	60d5      	str	r5, [r2, #12]
24003194:	bf52      	itee	pl
24003196:	3210      	addpl	r2, #16
24003198:	40b3      	lslmi	r3, r6
2400319a:	3214      	addmi	r2, #20
2400319c:	6909      	ldr	r1, [r1, #16]
2400319e:	435b      	muls	r3, r3
240031a0:	6810      	ldr	r0, [r2, #0]
240031a2:	3901      	subs	r1, #1
240031a4:	eb03 0443 	add.w	r4, r3, r3, lsl #1
240031a8:	434b      	muls	r3, r1
240031aa:	ea20 0004 	bic.w	r0, r0, r4
240031ae:	4303      	orrs	r3, r0
240031b0:	6013      	str	r3, [r2, #0]
240031b2:	2000      	movs	r0, #0
240031b4:	e7e6      	b.n	24003184 <HAL_EXTI_SetConfigLine+0xbc>
240031b6:	2001      	movs	r0, #1
240031b8:	e7e4      	b.n	24003184 <HAL_EXTI_SetConfigLine+0xbc>
	...

240031bc <HAL_EXTI_GetConfigLine>:
240031bc:	b5f0      	push	{r4, r5, r6, r7, lr}
240031be:	2800      	cmp	r0, #0
240031c0:	d063      	beq.n	2400328a <HAL_EXTI_GetConfigLine+0xce>
240031c2:	2900      	cmp	r1, #0
240031c4:	d061      	beq.n	2400328a <HAL_EXTI_GetConfigLine+0xce>
240031c6:	6800      	ldr	r0, [r0, #0]
240031c8:	2501      	movs	r5, #1
240031ca:	f3c0 4201 	ubfx	r2, r0, #16, #2
240031ce:	f000 041f 	and.w	r4, r0, #31
240031d2:	6008      	str	r0, [r1, #0]
240031d4:	0116      	lsls	r6, r2, #4
240031d6:	fa05 f304 	lsl.w	r3, r5, r4
240031da:	f106 46b0 	add.w	r6, r6, #1476395008	; 0x58000000
240031de:	f8d6 7080 	ldr.w	r7, [r6, #128]	; 0x80
240031e2:	401f      	ands	r7, r3
240031e4:	bf08      	it	eq
240031e6:	463d      	moveq	r5, r7
240031e8:	604d      	str	r5, [r1, #4]
240031ea:	f8d6 6084 	ldr.w	r6, [r6, #132]	; 0x84
240031ee:	4233      	tst	r3, r6
240031f0:	bf1c      	itt	ne
240031f2:	f045 0502 	orrne.w	r5, r5, #2
240031f6:	604d      	strne	r5, [r1, #4]
240031f8:	f010 7500 	ands.w	r5, r0, #33554432	; 0x2000000
240031fc:	d030      	beq.n	24003260 <HAL_EXTI_GetConfigLine+0xa4>
240031fe:	0156      	lsls	r6, r2, #5
24003200:	f106 46b0 	add.w	r6, r6, #1476395008	; 0x58000000
24003204:	6835      	ldr	r5, [r6, #0]
24003206:	422b      	tst	r3, r5
24003208:	bf14      	ite	ne
2400320a:	2501      	movne	r5, #1
2400320c:	2500      	moveq	r5, #0
2400320e:	608d      	str	r5, [r1, #8]
24003210:	6876      	ldr	r6, [r6, #4]
24003212:	4233      	tst	r3, r6
24003214:	bf1c      	itt	ne
24003216:	f045 0502 	orrne.w	r5, r5, #2
2400321a:	608d      	strne	r5, [r1, #8]
2400321c:	f000 65c0 	and.w	r5, r0, #100663296	; 0x6000000
24003220:	f1b5 6fc0 	cmp.w	r5, #100663296	; 0x6000000
24003224:	d11a      	bne.n	2400325c <HAL_EXTI_GetConfigLine+0xa0>
24003226:	f3c4 0581 	ubfx	r5, r4, #2, #2
2400322a:	4e19      	ldr	r6, [pc, #100]	; (24003290 <HAL_EXTI_GetConfigLine+0xd4>)
2400322c:	3502      	adds	r5, #2
2400322e:	f856 5025 	ldr.w	r5, [r6, r5, lsl #2]
24003232:	43e6      	mvns	r6, r4
24003234:	f006 0603 	and.w	r6, r6, #3
24003238:	00b6      	lsls	r6, r6, #2
2400323a:	40b5      	lsls	r5, r6
2400323c:	0e2d      	lsrs	r5, r5, #24
2400323e:	60cd      	str	r5, [r1, #12]
24003240:	f400 1540 	and.w	r5, r0, #3145728	; 0x300000
24003244:	f5b5 1f40 	cmp.w	r5, #3145728	; 0x300000
24003248:	d105      	bne.n	24003256 <HAL_EXTI_GetConfigLine+0x9a>
2400324a:	0152      	lsls	r2, r2, #5
2400324c:	f102 42b0 	add.w	r2, r2, #1476395008	; 0x58000000
24003250:	68d5      	ldr	r5, [r2, #12]
24003252:	4225      	tst	r5, r4
24003254:	d106      	bne.n	24003264 <HAL_EXTI_GetConfigLine+0xa8>
24003256:	2000      	movs	r0, #0
24003258:	6108      	str	r0, [r1, #16]
2400325a:	bdf0      	pop	{r4, r5, r6, r7, pc}
2400325c:	2500      	movs	r5, #0
2400325e:	e7ee      	b.n	2400323e <HAL_EXTI_GetConfigLine+0x82>
24003260:	608d      	str	r5, [r1, #8]
24003262:	e7ec      	b.n	2400323e <HAL_EXTI_GetConfigLine+0x82>
24003264:	06c0      	lsls	r0, r0, #27
24003266:	bf45      	ittet	mi
24003268:	2301      	movmi	r3, #1
2400326a:	3c10      	submi	r4, #16
2400326c:	3210      	addpl	r2, #16
2400326e:	3214      	addmi	r2, #20
24003270:	bf48      	it	mi
24003272:	40a3      	lslmi	r3, r4
24003274:	6810      	ldr	r0, [r2, #0]
24003276:	435b      	muls	r3, r3
24003278:	eb03 0243 	add.w	r2, r3, r3, lsl #1
2400327c:	4002      	ands	r2, r0
2400327e:	2000      	movs	r0, #0
24003280:	fbb2 f3f3 	udiv	r3, r2, r3
24003284:	3301      	adds	r3, #1
24003286:	610b      	str	r3, [r1, #16]
24003288:	e7e7      	b.n	2400325a <HAL_EXTI_GetConfigLine+0x9e>
2400328a:	2001      	movs	r0, #1
2400328c:	e7e5      	b.n	2400325a <HAL_EXTI_GetConfigLine+0x9e>
2400328e:	bf00      	nop
24003290:	58000400 	.word	0x58000400

24003294 <HAL_EXTI_ClearConfigLine>:
24003294:	b5f0      	push	{r4, r5, r6, r7, lr}
24003296:	2800      	cmp	r0, #0
24003298:	d057      	beq.n	2400334a <HAL_EXTI_ClearConfigLine+0xb6>
2400329a:	6806      	ldr	r6, [r0, #0]
2400329c:	2301      	movs	r3, #1
2400329e:	f3c6 4201 	ubfx	r2, r6, #16, #2
240032a2:	f006 041f 	and.w	r4, r6, #31
240032a6:	0111      	lsls	r1, r2, #4
240032a8:	40a3      	lsls	r3, r4
240032aa:	f101 41b0 	add.w	r1, r1, #1476395008	; 0x58000000
240032ae:	43dd      	mvns	r5, r3
240032b0:	f8d1 7080 	ldr.w	r7, [r1, #128]	; 0x80
240032b4:	ea27 0703 	bic.w	r7, r7, r3
240032b8:	f8c1 7080 	str.w	r7, [r1, #128]	; 0x80
240032bc:	f8d1 7084 	ldr.w	r7, [r1, #132]	; 0x84
240032c0:	ea27 0703 	bic.w	r7, r7, r3
240032c4:	f8c1 7084 	str.w	r7, [r1, #132]	; 0x84
240032c8:	6801      	ldr	r1, [r0, #0]
240032ca:	018f      	lsls	r7, r1, #6
240032cc:	d520      	bpl.n	24003310 <HAL_EXTI_ClearConfigLine+0x7c>
240032ce:	0151      	lsls	r1, r2, #5
240032d0:	f101 41b0 	add.w	r1, r1, #1476395008	; 0x58000000
240032d4:	680f      	ldr	r7, [r1, #0]
240032d6:	402f      	ands	r7, r5
240032d8:	600f      	str	r7, [r1, #0]
240032da:	684f      	ldr	r7, [r1, #4]
240032dc:	402f      	ands	r7, r5
240032de:	604f      	str	r7, [r1, #4]
240032e0:	6801      	ldr	r1, [r0, #0]
240032e2:	f001 61c0 	and.w	r1, r1, #100663296	; 0x6000000
240032e6:	f1b1 6fc0 	cmp.w	r1, #100663296	; 0x6000000
240032ea:	d111      	bne.n	24003310 <HAL_EXTI_ClearConfigLine+0x7c>
240032ec:	f006 0c03 	and.w	ip, r6, #3
240032f0:	f004 010c 	and.w	r1, r4, #12
240032f4:	ea4f 0e8c 	mov.w	lr, ip, lsl #2
240032f8:	f101 41b0 	add.w	r1, r1, #1476395008	; 0x58000000
240032fc:	f04f 0c0f 	mov.w	ip, #15
24003300:	f8d1 7408 	ldr.w	r7, [r1, #1032]	; 0x408
24003304:	fa0c fc0e 	lsl.w	ip, ip, lr
24003308:	ea27 070c 	bic.w	r7, r7, ip
2400330c:	f8c1 7408 	str.w	r7, [r1, #1032]	; 0x408
24003310:	6801      	ldr	r1, [r0, #0]
24003312:	f401 1140 	and.w	r1, r1, #3145728	; 0x300000
24003316:	f5b1 1f40 	cmp.w	r1, #3145728	; 0x300000
2400331a:	d114      	bne.n	24003346 <HAL_EXTI_ClearConfigLine+0xb2>
2400331c:	0152      	lsls	r2, r2, #5
2400331e:	f102 42b0 	add.w	r2, r2, #1476395008	; 0x58000000
24003322:	68d1      	ldr	r1, [r2, #12]
24003324:	400d      	ands	r5, r1
24003326:	06f1      	lsls	r1, r6, #27
24003328:	bf44      	itt	mi
2400332a:	2301      	movmi	r3, #1
2400332c:	3c10      	submi	r4, #16
2400332e:	60d5      	str	r5, [r2, #12]
24003330:	bf52      	itee	pl
24003332:	3210      	addpl	r2, #16
24003334:	40a3      	lslmi	r3, r4
24003336:	3214      	addmi	r2, #20
24003338:	435b      	muls	r3, r3
2400333a:	6811      	ldr	r1, [r2, #0]
2400333c:	eb03 0343 	add.w	r3, r3, r3, lsl #1
24003340:	ea21 0303 	bic.w	r3, r1, r3
24003344:	6013      	str	r3, [r2, #0]
24003346:	2000      	movs	r0, #0
24003348:	e000      	b.n	2400334c <HAL_EXTI_ClearConfigLine+0xb8>
2400334a:	2001      	movs	r0, #1
2400334c:	bdf0      	pop	{r4, r5, r6, r7, pc}

2400334e <HAL_EXTI_RegisterCallback>:
2400334e:	b118      	cbz	r0, 24003358 <HAL_EXTI_RegisterCallback+0xa>
24003350:	b911      	cbnz	r1, 24003358 <HAL_EXTI_RegisterCallback+0xa>
24003352:	6042      	str	r2, [r0, #4]
24003354:	4608      	mov	r0, r1
24003356:	4770      	bx	lr
24003358:	2101      	movs	r1, #1
2400335a:	e7fb      	b.n	24003354 <HAL_EXTI_RegisterCallback+0x6>

2400335c <HAL_EXTI_GetHandle>:
2400335c:	b110      	cbz	r0, 24003364 <HAL_EXTI_GetHandle+0x8>
2400335e:	6001      	str	r1, [r0, #0]
24003360:	2000      	movs	r0, #0
24003362:	4770      	bx	lr
24003364:	2001      	movs	r0, #1
24003366:	4770      	bx	lr

24003368 <HAL_EXTI_IRQHandler>:
24003368:	6803      	ldr	r3, [r0, #0]
2400336a:	2201      	movs	r2, #1
2400336c:	f003 011f 	and.w	r1, r3, #31
24003370:	f3c3 4301 	ubfx	r3, r3, #16, #2
24003374:	011b      	lsls	r3, r3, #4
24003376:	408a      	lsls	r2, r1
24003378:	f103 43b0 	add.w	r3, r3, #1476395008	; 0x58000000
2400337c:	f8d3 1088 	ldr.w	r1, [r3, #136]	; 0x88
24003380:	4211      	tst	r1, r2
24003382:	d004      	beq.n	2400338e <HAL_EXTI_IRQHandler+0x26>
24003384:	f8c3 2088 	str.w	r2, [r3, #136]	; 0x88
24003388:	6843      	ldr	r3, [r0, #4]
2400338a:	b103      	cbz	r3, 2400338e <HAL_EXTI_IRQHandler+0x26>
2400338c:	4718      	bx	r3
2400338e:	4770      	bx	lr

24003390 <HAL_EXTI_GetPending>:
24003390:	6803      	ldr	r3, [r0, #0]
24003392:	f003 001f 	and.w	r0, r3, #31
24003396:	f3c3 4301 	ubfx	r3, r3, #16, #2
2400339a:	011b      	lsls	r3, r3, #4
2400339c:	f103 43b0 	add.w	r3, r3, #1476395008	; 0x58000000
240033a0:	f8d3 2088 	ldr.w	r2, [r3, #136]	; 0x88
240033a4:	2301      	movs	r3, #1
240033a6:	4083      	lsls	r3, r0
240033a8:	4013      	ands	r3, r2
240033aa:	fa23 f000 	lsr.w	r0, r3, r0
240033ae:	4770      	bx	lr

240033b0 <HAL_EXTI_ClearPending>:
240033b0:	6803      	ldr	r3, [r0, #0]
240033b2:	2201      	movs	r2, #1
240033b4:	f003 011f 	and.w	r1, r3, #31
240033b8:	f3c3 4301 	ubfx	r3, r3, #16, #2
240033bc:	011b      	lsls	r3, r3, #4
240033be:	408a      	lsls	r2, r1
240033c0:	f103 43b0 	add.w	r3, r3, #1476395008	; 0x58000000
240033c4:	f8c3 2088 	str.w	r2, [r3, #136]	; 0x88
240033c8:	4770      	bx	lr

240033ca <HAL_EXTI_GenerateSWI>:
240033ca:	6803      	ldr	r3, [r0, #0]
240033cc:	2201      	movs	r2, #1
240033ce:	f003 011f 	and.w	r1, r3, #31
240033d2:	f3c3 4301 	ubfx	r3, r3, #16, #2
240033d6:	015b      	lsls	r3, r3, #5
240033d8:	408a      	lsls	r2, r1
240033da:	f103 43b0 	add.w	r3, r3, #1476395008	; 0x58000000
240033de:	609a      	str	r2, [r3, #8]
240033e0:	4770      	bx	lr

240033e2 <HAL_FLASH_EndOfOperationCallback>:
240033e2:	4770      	bx	lr

240033e4 <HAL_FLASH_OperationErrorCallback>:
240033e4:	4770      	bx	lr
	...

240033e8 <HAL_FLASH_IRQHandler>:
240033e8:	b537      	push	{r0, r1, r2, r4, r5, lr}
240033ea:	4d6b      	ldr	r5, [pc, #428]	; (24003598 <HAL_FLASH_IRQHandler+0x1b0>)
240033ec:	4c6b      	ldr	r4, [pc, #428]	; (2400359c <HAL_FLASH_IRQHandler+0x1b4>)
240033ee:	692b      	ldr	r3, [r5, #16]
240033f0:	f413 3f80 	tst.w	r3, #65536	; 0x10000
240033f4:	d018      	beq.n	24003428 <HAL_FLASH_IRQHandler+0x40>
240033f6:	7823      	ldrb	r3, [r4, #0]
240033f8:	2b01      	cmp	r3, #1
240033fa:	b2d9      	uxtb	r1, r3
240033fc:	d17d      	bne.n	240034fa <HAL_FLASH_IRQHandler+0x112>
240033fe:	6863      	ldr	r3, [r4, #4]
24003400:	9101      	str	r1, [sp, #4]
24003402:	3b01      	subs	r3, #1
24003404:	6063      	str	r3, [r4, #4]
24003406:	6863      	ldr	r3, [r4, #4]
24003408:	2b00      	cmp	r3, #0
2400340a:	d06b      	beq.n	240034e4 <HAL_FLASH_IRQHandler+0xfc>
2400340c:	68e0      	ldr	r0, [r4, #12]
2400340e:	f7ff ffe8 	bl	240033e2 <HAL_FLASH_EndOfOperationCallback>
24003412:	f44f 3380 	mov.w	r3, #65536	; 0x10000
24003416:	9901      	ldr	r1, [sp, #4]
24003418:	616b      	str	r3, [r5, #20]
2400341a:	68e3      	ldr	r3, [r4, #12]
2400341c:	3301      	adds	r3, #1
2400341e:	60e3      	str	r3, [r4, #12]
24003420:	68e0      	ldr	r0, [r4, #12]
24003422:	68a2      	ldr	r2, [r4, #8]
24003424:	f000 fd74 	bl	24003f10 <FLASH_Erase_Sector>
24003428:	4d5b      	ldr	r5, [pc, #364]	; (24003598 <HAL_FLASH_IRQHandler+0x1b0>)
2400342a:	f8d5 3110 	ldr.w	r3, [r5, #272]	; 0x110
2400342e:	03db      	lsls	r3, r3, #15
24003430:	d518      	bpl.n	24003464 <HAL_FLASH_IRQHandler+0x7c>
24003432:	7823      	ldrb	r3, [r4, #0]
24003434:	2b04      	cmp	r3, #4
24003436:	f040 8085 	bne.w	24003544 <HAL_FLASH_IRQHandler+0x15c>
2400343a:	6863      	ldr	r3, [r4, #4]
2400343c:	3b01      	subs	r3, #1
2400343e:	6063      	str	r3, [r4, #4]
24003440:	6863      	ldr	r3, [r4, #4]
24003442:	2b00      	cmp	r3, #0
24003444:	d072      	beq.n	2400352c <HAL_FLASH_IRQHandler+0x144>
24003446:	68e0      	ldr	r0, [r4, #12]
24003448:	f7ff ffcb 	bl	240033e2 <HAL_FLASH_EndOfOperationCallback>
2400344c:	f44f 3380 	mov.w	r3, #65536	; 0x10000
24003450:	2102      	movs	r1, #2
24003452:	f8c5 3114 	str.w	r3, [r5, #276]	; 0x114
24003456:	68e3      	ldr	r3, [r4, #12]
24003458:	3301      	adds	r3, #1
2400345a:	60e3      	str	r3, [r4, #12]
2400345c:	68e0      	ldr	r0, [r4, #12]
2400345e:	68a2      	ldr	r2, [r4, #8]
24003460:	f000 fd56 	bl	24003f10 <FLASH_Erase_Sector>
24003464:	494c      	ldr	r1, [pc, #304]	; (24003598 <HAL_FLASH_IRQHandler+0x1b0>)
24003466:	690b      	ldr	r3, [r1, #16]
24003468:	f413 03dc 	ands.w	r3, r3, #7208960	; 0x6e0000
2400346c:	d00f      	beq.n	2400348e <HAL_FLASH_IRQHandler+0xa6>
2400346e:	69a2      	ldr	r2, [r4, #24]
24003470:	431a      	orrs	r2, r3
24003472:	61a2      	str	r2, [r4, #24]
24003474:	614b      	str	r3, [r1, #20]
24003476:	7822      	ldrb	r2, [r4, #0]
24003478:	2a01      	cmp	r2, #1
2400347a:	b2d3      	uxtb	r3, r2
2400347c:	d17c      	bne.n	24003578 <HAL_FLASH_IRQHandler+0x190>
2400347e:	f04f 33ff 	mov.w	r3, #4294967295
24003482:	68e0      	ldr	r0, [r4, #12]
24003484:	60e3      	str	r3, [r4, #12]
24003486:	2300      	movs	r3, #0
24003488:	7023      	strb	r3, [r4, #0]
2400348a:	f7ff ffab 	bl	240033e4 <HAL_FLASH_OperationErrorCallback>
2400348e:	4942      	ldr	r1, [pc, #264]	; (24003598 <HAL_FLASH_IRQHandler+0x1b0>)
24003490:	f8d1 3110 	ldr.w	r3, [r1, #272]	; 0x110
24003494:	f413 03dc 	ands.w	r3, r3, #7208960	; 0x6e0000
24003498:	d012      	beq.n	240034c0 <HAL_FLASH_IRQHandler+0xd8>
2400349a:	69a2      	ldr	r2, [r4, #24]
2400349c:	431a      	orrs	r2, r3
2400349e:	f042 4200 	orr.w	r2, r2, #2147483648	; 0x80000000
240034a2:	61a2      	str	r2, [r4, #24]
240034a4:	f8c1 3114 	str.w	r3, [r1, #276]	; 0x114
240034a8:	7822      	ldrb	r2, [r4, #0]
240034aa:	2a04      	cmp	r2, #4
240034ac:	b2d3      	uxtb	r3, r2
240034ae:	d16b      	bne.n	24003588 <HAL_FLASH_IRQHandler+0x1a0>
240034b0:	f04f 33ff 	mov.w	r3, #4294967295
240034b4:	68e0      	ldr	r0, [r4, #12]
240034b6:	60e3      	str	r3, [r4, #12]
240034b8:	2300      	movs	r3, #0
240034ba:	7023      	strb	r3, [r4, #0]
240034bc:	f7ff ff92 	bl	240033e4 <HAL_FLASH_OperationErrorCallback>
240034c0:	7823      	ldrb	r3, [r4, #0]
240034c2:	f003 01ff 	and.w	r1, r3, #255	; 0xff
240034c6:	b95b      	cbnz	r3, 240034e0 <HAL_FLASH_IRQHandler+0xf8>
240034c8:	4b33      	ldr	r3, [pc, #204]	; (24003598 <HAL_FLASH_IRQHandler+0x1b0>)
240034ca:	68da      	ldr	r2, [r3, #12]
240034cc:	f422 02de 	bic.w	r2, r2, #7274496	; 0x6f0000
240034d0:	60da      	str	r2, [r3, #12]
240034d2:	f8d3 210c 	ldr.w	r2, [r3, #268]	; 0x10c
240034d6:	f422 02de 	bic.w	r2, r2, #7274496	; 0x6f0000
240034da:	f8c3 210c 	str.w	r2, [r3, #268]	; 0x10c
240034de:	7521      	strb	r1, [r4, #20]
240034e0:	b003      	add	sp, #12
240034e2:	bd30      	pop	{r4, r5, pc}
240034e4:	f04f 32ff 	mov.w	r2, #4294967295
240034e8:	60e2      	str	r2, [r4, #12]
240034ea:	7023      	strb	r3, [r4, #0]
240034ec:	68e0      	ldr	r0, [r4, #12]
240034ee:	f7ff ff78 	bl	240033e2 <HAL_FLASH_EndOfOperationCallback>
240034f2:	f44f 3380 	mov.w	r3, #65536	; 0x10000
240034f6:	616b      	str	r3, [r5, #20]
240034f8:	e796      	b.n	24003428 <HAL_FLASH_IRQHandler+0x40>
240034fa:	7823      	ldrb	r3, [r4, #0]
240034fc:	2b02      	cmp	r3, #2
240034fe:	b2dd      	uxtb	r5, r3
24003500:	d001      	beq.n	24003506 <HAL_FLASH_IRQHandler+0x11e>
24003502:	2d07      	cmp	r5, #7
24003504:	d106      	bne.n	24003514 <HAL_FLASH_IRQHandler+0x12c>
24003506:	2001      	movs	r0, #1
24003508:	f7ff ff6b 	bl	240033e2 <HAL_FLASH_EndOfOperationCallback>
2400350c:	3d04      	subs	r5, #4
2400350e:	2d02      	cmp	r5, #2
24003510:	d98a      	bls.n	24003428 <HAL_FLASH_IRQHandler+0x40>
24003512:	e004      	b.n	2400351e <HAL_FLASH_IRQHandler+0x136>
24003514:	2d03      	cmp	r5, #3
24003516:	d1f9      	bne.n	2400350c <HAL_FLASH_IRQHandler+0x124>
24003518:	6920      	ldr	r0, [r4, #16]
2400351a:	f7ff ff62 	bl	240033e2 <HAL_FLASH_EndOfOperationCallback>
2400351e:	2300      	movs	r3, #0
24003520:	f44f 3280 	mov.w	r2, #65536	; 0x10000
24003524:	7023      	strb	r3, [r4, #0]
24003526:	4b1c      	ldr	r3, [pc, #112]	; (24003598 <HAL_FLASH_IRQHandler+0x1b0>)
24003528:	615a      	str	r2, [r3, #20]
2400352a:	e77d      	b.n	24003428 <HAL_FLASH_IRQHandler+0x40>
2400352c:	f04f 32ff 	mov.w	r2, #4294967295
24003530:	60e2      	str	r2, [r4, #12]
24003532:	7023      	strb	r3, [r4, #0]
24003534:	68e0      	ldr	r0, [r4, #12]
24003536:	f7ff ff54 	bl	240033e2 <HAL_FLASH_EndOfOperationCallback>
2400353a:	f44f 3380 	mov.w	r3, #65536	; 0x10000
2400353e:	f8c5 3114 	str.w	r3, [r5, #276]	; 0x114
24003542:	e78f      	b.n	24003464 <HAL_FLASH_IRQHandler+0x7c>
24003544:	7822      	ldrb	r2, [r4, #0]
24003546:	b2d3      	uxtb	r3, r2
24003548:	f002 02fd 	and.w	r2, r2, #253	; 0xfd
2400354c:	2a05      	cmp	r2, #5
2400354e:	d10a      	bne.n	24003566 <HAL_FLASH_IRQHandler+0x17e>
24003550:	2002      	movs	r0, #2
24003552:	f7ff ff46 	bl	240033e2 <HAL_FLASH_EndOfOperationCallback>
24003556:	2300      	movs	r3, #0
24003558:	f44f 3280 	mov.w	r2, #65536	; 0x10000
2400355c:	7023      	strb	r3, [r4, #0]
2400355e:	4b0e      	ldr	r3, [pc, #56]	; (24003598 <HAL_FLASH_IRQHandler+0x1b0>)
24003560:	f8c3 2114 	str.w	r2, [r3, #276]	; 0x114
24003564:	e77e      	b.n	24003464 <HAL_FLASH_IRQHandler+0x7c>
24003566:	2b06      	cmp	r3, #6
24003568:	d101      	bne.n	2400356e <HAL_FLASH_IRQHandler+0x186>
2400356a:	6920      	ldr	r0, [r4, #16]
2400356c:	e7f1      	b.n	24003552 <HAL_FLASH_IRQHandler+0x16a>
2400356e:	3b01      	subs	r3, #1
24003570:	2b02      	cmp	r3, #2
24003572:	f67f af77 	bls.w	24003464 <HAL_FLASH_IRQHandler+0x7c>
24003576:	e7ee      	b.n	24003556 <HAL_FLASH_IRQHandler+0x16e>
24003578:	2b02      	cmp	r3, #2
2400357a:	d003      	beq.n	24003584 <HAL_FLASH_IRQHandler+0x19c>
2400357c:	2b07      	cmp	r3, #7
2400357e:	d001      	beq.n	24003584 <HAL_FLASH_IRQHandler+0x19c>
24003580:	6920      	ldr	r0, [r4, #16]
24003582:	e780      	b.n	24003486 <HAL_FLASH_IRQHandler+0x9e>
24003584:	2001      	movs	r0, #1
24003586:	e77e      	b.n	24003486 <HAL_FLASH_IRQHandler+0x9e>
24003588:	f003 03fd 	and.w	r3, r3, #253	; 0xfd
2400358c:	2b05      	cmp	r3, #5
2400358e:	d001      	beq.n	24003594 <HAL_FLASH_IRQHandler+0x1ac>
24003590:	6920      	ldr	r0, [r4, #16]
24003592:	e791      	b.n	240034b8 <HAL_FLASH_IRQHandler+0xd0>
24003594:	2002      	movs	r0, #2
24003596:	e78f      	b.n	240034b8 <HAL_FLASH_IRQHandler+0xd0>
24003598:	52002000 	.word	0x52002000
2400359c:	24000544 	.word	0x24000544

240035a0 <HAL_FLASH_Unlock>:
240035a0:	4b10      	ldr	r3, [pc, #64]	; (240035e4 <HAL_FLASH_Unlock+0x44>)
240035a2:	68da      	ldr	r2, [r3, #12]
240035a4:	07d2      	lsls	r2, r2, #31
240035a6:	d406      	bmi.n	240035b6 <HAL_FLASH_Unlock+0x16>
240035a8:	4b0e      	ldr	r3, [pc, #56]	; (240035e4 <HAL_FLASH_Unlock+0x44>)
240035aa:	f8d3 010c 	ldr.w	r0, [r3, #268]	; 0x10c
240035ae:	f010 0001 	ands.w	r0, r0, #1
240035b2:	d10a      	bne.n	240035ca <HAL_FLASH_Unlock+0x2a>
240035b4:	4770      	bx	lr
240035b6:	4a0c      	ldr	r2, [pc, #48]	; (240035e8 <HAL_FLASH_Unlock+0x48>)
240035b8:	605a      	str	r2, [r3, #4]
240035ba:	f102 3288 	add.w	r2, r2, #2290649224	; 0x88888888
240035be:	605a      	str	r2, [r3, #4]
240035c0:	68db      	ldr	r3, [r3, #12]
240035c2:	07db      	lsls	r3, r3, #31
240035c4:	d5f0      	bpl.n	240035a8 <HAL_FLASH_Unlock+0x8>
240035c6:	2001      	movs	r0, #1
240035c8:	4770      	bx	lr
240035ca:	4a07      	ldr	r2, [pc, #28]	; (240035e8 <HAL_FLASH_Unlock+0x48>)
240035cc:	f8c3 2104 	str.w	r2, [r3, #260]	; 0x104
240035d0:	f102 3288 	add.w	r2, r2, #2290649224	; 0x88888888
240035d4:	f8c3 2104 	str.w	r2, [r3, #260]	; 0x104
240035d8:	f8d3 010c 	ldr.w	r0, [r3, #268]	; 0x10c
240035dc:	f000 0001 	and.w	r0, r0, #1
240035e0:	4770      	bx	lr
240035e2:	bf00      	nop
240035e4:	52002000 	.word	0x52002000
240035e8:	45670123 	.word	0x45670123

240035ec <HAL_FLASH_Lock>:
240035ec:	4b0a      	ldr	r3, [pc, #40]	; (24003618 <HAL_FLASH_Lock+0x2c>)
240035ee:	68da      	ldr	r2, [r3, #12]
240035f0:	f042 0201 	orr.w	r2, r2, #1
240035f4:	60da      	str	r2, [r3, #12]
240035f6:	68da      	ldr	r2, [r3, #12]
240035f8:	07d2      	lsls	r2, r2, #31
240035fa:	d50b      	bpl.n	24003614 <HAL_FLASH_Lock+0x28>
240035fc:	f8d3 210c 	ldr.w	r2, [r3, #268]	; 0x10c
24003600:	f042 0201 	orr.w	r2, r2, #1
24003604:	f8c3 210c 	str.w	r2, [r3, #268]	; 0x10c
24003608:	f8d3 010c 	ldr.w	r0, [r3, #268]	; 0x10c
2400360c:	43c0      	mvns	r0, r0
2400360e:	f000 0001 	and.w	r0, r0, #1
24003612:	4770      	bx	lr
24003614:	2001      	movs	r0, #1
24003616:	4770      	bx	lr
24003618:	52002000 	.word	0x52002000

2400361c <HAL_FLASH_OB_Unlock>:
2400361c:	4b06      	ldr	r3, [pc, #24]	; (24003638 <HAL_FLASH_OB_Unlock+0x1c>)
2400361e:	6998      	ldr	r0, [r3, #24]
24003620:	f010 0001 	ands.w	r0, r0, #1
24003624:	d007      	beq.n	24003636 <HAL_FLASH_OB_Unlock+0x1a>
24003626:	4a05      	ldr	r2, [pc, #20]	; (2400363c <HAL_FLASH_OB_Unlock+0x20>)
24003628:	609a      	str	r2, [r3, #8]
2400362a:	f102 3244 	add.w	r2, r2, #1145324612	; 0x44444444
2400362e:	609a      	str	r2, [r3, #8]
24003630:	6998      	ldr	r0, [r3, #24]
24003632:	f000 0001 	and.w	r0, r0, #1
24003636:	4770      	bx	lr
24003638:	52002000 	.word	0x52002000
2400363c:	08192a3b 	.word	0x08192a3b

24003640 <HAL_FLASH_OB_Lock>:
24003640:	4b04      	ldr	r3, [pc, #16]	; (24003654 <HAL_FLASH_OB_Lock+0x14>)
24003642:	699a      	ldr	r2, [r3, #24]
24003644:	f042 0201 	orr.w	r2, r2, #1
24003648:	619a      	str	r2, [r3, #24]
2400364a:	6998      	ldr	r0, [r3, #24]
2400364c:	43c0      	mvns	r0, r0
2400364e:	f000 0001 	and.w	r0, r0, #1
24003652:	4770      	bx	lr
24003654:	52002000 	.word	0x52002000

24003658 <HAL_FLASH_GetError>:
24003658:	4b01      	ldr	r3, [pc, #4]	; (24003660 <HAL_FLASH_GetError+0x8>)
2400365a:	6998      	ldr	r0, [r3, #24]
2400365c:	4770      	bx	lr
2400365e:	bf00      	nop
24003660:	24000544 	.word	0x24000544

24003664 <FLASH_WaitForLastOperation>:
24003664:	e92d 41f0 	stmdb	sp!, {r4, r5, r6, r7, r8, lr}
24003668:	460c      	mov	r4, r1
2400366a:	4605      	mov	r5, r0
2400366c:	f7fd f89a 	bl	240007a4 <HAL_GetTick>
24003670:	4e2c      	ldr	r6, [pc, #176]	; (24003724 <FLASH_WaitForLastOperation+0xc0>)
24003672:	2c01      	cmp	r4, #1
24003674:	4607      	mov	r7, r0
24003676:	f8df 80b0 	ldr.w	r8, [pc, #176]	; 24003728 <FLASH_WaitForLastOperation+0xc4>
2400367a:	bf08      	it	eq
2400367c:	2604      	moveq	r6, #4
2400367e:	2e04      	cmp	r6, #4
24003680:	d124      	bne.n	240036cc <FLASH_WaitForLastOperation+0x68>
24003682:	f8d8 3010 	ldr.w	r3, [r8, #16]
24003686:	f3c3 0380 	ubfx	r3, r3, #2, #1
2400368a:	b9a3      	cbnz	r3, 240036b6 <FLASH_WaitForLastOperation+0x52>
2400368c:	2c01      	cmp	r4, #1
2400368e:	4b26      	ldr	r3, [pc, #152]	; (24003728 <FLASH_WaitForLastOperation+0xc4>)
24003690:	4a26      	ldr	r2, [pc, #152]	; (2400372c <FLASH_WaitForLastOperation+0xc8>)
24003692:	d125      	bne.n	240036e0 <FLASH_WaitForLastOperation+0x7c>
24003694:	691b      	ldr	r3, [r3, #16]
24003696:	4013      	ands	r3, r2
24003698:	f033 4102 	bics.w	r1, r3, #2181038080	; 0x82000000
2400369c:	d02b      	beq.n	240036f6 <FLASH_WaitForLastOperation+0x92>
2400369e:	4924      	ldr	r1, [pc, #144]	; (24003730 <FLASH_WaitForLastOperation+0xcc>)
240036a0:	2b00      	cmp	r3, #0
240036a2:	698a      	ldr	r2, [r1, #24]
240036a4:	ea42 0203 	orr.w	r2, r2, r3
240036a8:	618a      	str	r2, [r1, #24]
240036aa:	4a1f      	ldr	r2, [pc, #124]	; (24003728 <FLASH_WaitForLastOperation+0xc4>)
240036ac:	db1e      	blt.n	240036ec <FLASH_WaitForLastOperation+0x88>
240036ae:	6153      	str	r3, [r2, #20]
240036b0:	2001      	movs	r0, #1
240036b2:	e8bd 81f0 	ldmia.w	sp!, {r4, r5, r6, r7, r8, pc}
240036b6:	1c6b      	adds	r3, r5, #1
240036b8:	d0e1      	beq.n	2400367e <FLASH_WaitForLastOperation+0x1a>
240036ba:	f7fd f873 	bl	240007a4 <HAL_GetTick>
240036be:	1bc0      	subs	r0, r0, r7
240036c0:	42a8      	cmp	r0, r5
240036c2:	d801      	bhi.n	240036c8 <FLASH_WaitForLastOperation+0x64>
240036c4:	2d00      	cmp	r5, #0
240036c6:	d1da      	bne.n	2400367e <FLASH_WaitForLastOperation+0x1a>
240036c8:	2003      	movs	r0, #3
240036ca:	e7f2      	b.n	240036b2 <FLASH_WaitForLastOperation+0x4e>
240036cc:	f8d8 3110 	ldr.w	r3, [r8, #272]	; 0x110
240036d0:	ea26 0303 	bic.w	r3, r6, r3
240036d4:	f013 0f04 	tst.w	r3, #4
240036d8:	bf0c      	ite	eq
240036da:	2301      	moveq	r3, #1
240036dc:	2300      	movne	r3, #0
240036de:	e7d4      	b.n	2400368a <FLASH_WaitForLastOperation+0x26>
240036e0:	f8d3 3110 	ldr.w	r3, [r3, #272]	; 0x110
240036e4:	4013      	ands	r3, r2
240036e6:	f043 4300 	orr.w	r3, r3, #2147483648	; 0x80000000
240036ea:	e7d5      	b.n	24003698 <FLASH_WaitForLastOperation+0x34>
240036ec:	f023 4300 	bic.w	r3, r3, #2147483648	; 0x80000000
240036f0:	f8c2 3114 	str.w	r3, [r2, #276]	; 0x114
240036f4:	e7dc      	b.n	240036b0 <FLASH_WaitForLastOperation+0x4c>
240036f6:	2c01      	cmp	r4, #1
240036f8:	4a0b      	ldr	r2, [pc, #44]	; (24003728 <FLASH_WaitForLastOperation+0xc4>)
240036fa:	d108      	bne.n	2400370e <FLASH_WaitForLastOperation+0xaa>
240036fc:	6910      	ldr	r0, [r2, #16]
240036fe:	f410 3080 	ands.w	r0, r0, #65536	; 0x10000
24003702:	d0d6      	beq.n	240036b2 <FLASH_WaitForLastOperation+0x4e>
24003704:	f44f 3380 	mov.w	r3, #65536	; 0x10000
24003708:	6153      	str	r3, [r2, #20]
2400370a:	4608      	mov	r0, r1
2400370c:	e7d1      	b.n	240036b2 <FLASH_WaitForLastOperation+0x4e>
2400370e:	f8d2 0110 	ldr.w	r0, [r2, #272]	; 0x110
24003712:	f410 3080 	ands.w	r0, r0, #65536	; 0x10000
24003716:	d0cc      	beq.n	240036b2 <FLASH_WaitForLastOperation+0x4e>
24003718:	f44f 3380 	mov.w	r3, #65536	; 0x10000
2400371c:	f8c2 3114 	str.w	r3, [r2, #276]	; 0x114
24003720:	e7f3      	b.n	2400370a <FLASH_WaitForLastOperation+0xa6>
24003722:	bf00      	nop
24003724:	80000004 	.word	0x80000004
24003728:	52002000 	.word	0x52002000
2400372c:	17ee0000 	.word	0x17ee0000
24003730:	24000544 	.word	0x24000544

24003734 <HAL_FLASH_Program>:
24003734:	b5f8      	push	{r3, r4, r5, r6, r7, lr}
24003736:	4c26      	ldr	r4, [pc, #152]	; (240037d0 <HAL_FLASH_Program+0x9c>)
24003738:	460e      	mov	r6, r1
2400373a:	4617      	mov	r7, r2
2400373c:	7d23      	ldrb	r3, [r4, #20]
2400373e:	2b01      	cmp	r3, #1
24003740:	d043      	beq.n	240037ca <HAL_FLASH_Program+0x96>
24003742:	2301      	movs	r3, #1
24003744:	f24c 3050 	movw	r0, #50000	; 0xc350
24003748:	7523      	strb	r3, [r4, #20]
2400374a:	f101 4378 	add.w	r3, r1, #4160749568	; 0xf8000000
2400374e:	f5b3 1f80 	cmp.w	r3, #1048576	; 0x100000
24003752:	f04f 0300 	mov.w	r3, #0
24003756:	bf2c      	ite	cs
24003758:	2502      	movcs	r5, #2
2400375a:	2501      	movcc	r5, #1
2400375c:	61a3      	str	r3, [r4, #24]
2400375e:	4629      	mov	r1, r5
24003760:	f7ff ff80 	bl	24003664 <FLASH_WaitForLastOperation>
24003764:	bb00      	cbnz	r0, 240037a8 <HAL_FLASH_Program+0x74>
24003766:	2d01      	cmp	r5, #1
24003768:	4b1a      	ldr	r3, [pc, #104]	; (240037d4 <HAL_FLASH_Program+0xa0>)
2400376a:	d120      	bne.n	240037ae <HAL_FLASH_Program+0x7a>
2400376c:	68da      	ldr	r2, [r3, #12]
2400376e:	f042 0202 	orr.w	r2, r2, #2
24003772:	60da      	str	r2, [r3, #12]
24003774:	f3bf 8f6f 	isb	sy
24003778:	f3bf 8f4f 	dsb	sy
2400377c:	2300      	movs	r3, #0
2400377e:	58fa      	ldr	r2, [r7, r3]
24003780:	50f2      	str	r2, [r6, r3]
24003782:	3304      	adds	r3, #4
24003784:	2b20      	cmp	r3, #32
24003786:	d1fa      	bne.n	2400377e <HAL_FLASH_Program+0x4a>
24003788:	f3bf 8f6f 	isb	sy
2400378c:	f3bf 8f4f 	dsb	sy
24003790:	f24c 3050 	movw	r0, #50000	; 0xc350
24003794:	4629      	mov	r1, r5
24003796:	f7ff ff65 	bl	24003664 <FLASH_WaitForLastOperation>
2400379a:	2d01      	cmp	r5, #1
2400379c:	4b0d      	ldr	r3, [pc, #52]	; (240037d4 <HAL_FLASH_Program+0xa0>)
2400379e:	d10d      	bne.n	240037bc <HAL_FLASH_Program+0x88>
240037a0:	68da      	ldr	r2, [r3, #12]
240037a2:	f022 0202 	bic.w	r2, r2, #2
240037a6:	60da      	str	r2, [r3, #12]
240037a8:	2300      	movs	r3, #0
240037aa:	7523      	strb	r3, [r4, #20]
240037ac:	bdf8      	pop	{r3, r4, r5, r6, r7, pc}
240037ae:	f8d3 210c 	ldr.w	r2, [r3, #268]	; 0x10c
240037b2:	f042 0202 	orr.w	r2, r2, #2
240037b6:	f8c3 210c 	str.w	r2, [r3, #268]	; 0x10c
240037ba:	e7db      	b.n	24003774 <HAL_FLASH_Program+0x40>
240037bc:	f8d3 210c 	ldr.w	r2, [r3, #268]	; 0x10c
240037c0:	f022 0202 	bic.w	r2, r2, #2
240037c4:	f8c3 210c 	str.w	r2, [r3, #268]	; 0x10c
240037c8:	e7ee      	b.n	240037a8 <HAL_FLASH_Program+0x74>
240037ca:	2002      	movs	r0, #2
240037cc:	e7ee      	b.n	240037ac <HAL_FLASH_Program+0x78>
240037ce:	bf00      	nop
240037d0:	24000544 	.word	0x24000544
240037d4:	52002000 	.word	0x52002000

240037d8 <HAL_FLASH_Program_IT>:
240037d8:	e92d 41f0 	stmdb	sp!, {r4, r5, r6, r7, r8, lr}
240037dc:	4c25      	ldr	r4, [pc, #148]	; (24003874 <HAL_FLASH_Program_IT+0x9c>)
240037de:	460d      	mov	r5, r1
240037e0:	4616      	mov	r6, r2
240037e2:	7d23      	ldrb	r3, [r4, #20]
240037e4:	2b01      	cmp	r3, #1
240037e6:	d042      	beq.n	2400386e <HAL_FLASH_Program_IT+0x96>
240037e8:	2301      	movs	r3, #1
240037ea:	f04f 0800 	mov.w	r8, #0
240037ee:	f24c 3050 	movw	r0, #50000	; 0xc350
240037f2:	7523      	strb	r3, [r4, #20]
240037f4:	f101 4378 	add.w	r3, r1, #4160749568	; 0xf8000000
240037f8:	f8c4 8018 	str.w	r8, [r4, #24]
240037fc:	f5b3 1f80 	cmp.w	r3, #1048576	; 0x100000
24003800:	bf34      	ite	cc
24003802:	2701      	movcc	r7, #1
24003804:	2702      	movcs	r7, #2
24003806:	4639      	mov	r1, r7
24003808:	f7ff ff2c 	bl	24003664 <FLASH_WaitForLastOperation>
2400380c:	b118      	cbz	r0, 24003816 <HAL_FLASH_Program_IT+0x3e>
2400380e:	f884 8014 	strb.w	r8, [r4, #20]
24003812:	e8bd 81f0 	ldmia.w	sp!, {r4, r5, r6, r7, r8, pc}
24003816:	2f01      	cmp	r7, #1
24003818:	4b17      	ldr	r3, [pc, #92]	; (24003878 <HAL_FLASH_Program_IT+0xa0>)
2400381a:	6125      	str	r5, [r4, #16]
2400381c:	d118      	bne.n	24003850 <HAL_FLASH_Program_IT+0x78>
2400381e:	2203      	movs	r2, #3
24003820:	7022      	strb	r2, [r4, #0]
24003822:	68da      	ldr	r2, [r3, #12]
24003824:	f042 0202 	orr.w	r2, r2, #2
24003828:	60da      	str	r2, [r3, #12]
2400382a:	68da      	ldr	r2, [r3, #12]
2400382c:	f442 02de 	orr.w	r2, r2, #7274496	; 0x6f0000
24003830:	60da      	str	r2, [r3, #12]
24003832:	f3bf 8f6f 	isb	sy
24003836:	f3bf 8f4f 	dsb	sy
2400383a:	2300      	movs	r3, #0
2400383c:	58f2      	ldr	r2, [r6, r3]
2400383e:	50ea      	str	r2, [r5, r3]
24003840:	3304      	adds	r3, #4
24003842:	2b20      	cmp	r3, #32
24003844:	d1fa      	bne.n	2400383c <HAL_FLASH_Program_IT+0x64>
24003846:	f3bf 8f6f 	isb	sy
2400384a:	f3bf 8f4f 	dsb	sy
2400384e:	e7e0      	b.n	24003812 <HAL_FLASH_Program_IT+0x3a>
24003850:	2206      	movs	r2, #6
24003852:	7022      	strb	r2, [r4, #0]
24003854:	f8d3 210c 	ldr.w	r2, [r3, #268]	; 0x10c
24003858:	f042 0202 	orr.w	r2, r2, #2
2400385c:	f8c3 210c 	str.w	r2, [r3, #268]	; 0x10c
24003860:	f8d3 210c 	ldr.w	r2, [r3, #268]	; 0x10c
24003864:	f442 02de 	orr.w	r2, r2, #7274496	; 0x6f0000
24003868:	f8c3 210c 	str.w	r2, [r3, #268]	; 0x10c
2400386c:	e7e1      	b.n	24003832 <HAL_FLASH_Program_IT+0x5a>
2400386e:	2002      	movs	r0, #2
24003870:	e7cf      	b.n	24003812 <HAL_FLASH_Program_IT+0x3a>
24003872:	bf00      	nop
24003874:	24000544 	.word	0x24000544
24003878:	52002000 	.word	0x52002000

2400387c <FLASH_OB_WaitForLastOperation>:
2400387c:	b570      	push	{r4, r5, r6, lr}
2400387e:	4604      	mov	r4, r0
24003880:	4d10      	ldr	r5, [pc, #64]	; (240038c4 <FLASH_OB_WaitForLastOperation+0x48>)
24003882:	f7fc ff8f 	bl	240007a4 <HAL_GetTick>
24003886:	4606      	mov	r6, r0
24003888:	69eb      	ldr	r3, [r5, #28]
2400388a:	07db      	lsls	r3, r3, #31
2400388c:	d40e      	bmi.n	240038ac <FLASH_OB_WaitForLastOperation+0x30>
2400388e:	69e8      	ldr	r0, [r5, #28]
24003890:	f010 4080 	ands.w	r0, r0, #1073741824	; 0x40000000
24003894:	d009      	beq.n	240038aa <FLASH_OB_WaitForLastOperation+0x2e>
24003896:	4a0c      	ldr	r2, [pc, #48]	; (240038c8 <FLASH_OB_WaitForLastOperation+0x4c>)
24003898:	2001      	movs	r0, #1
2400389a:	6993      	ldr	r3, [r2, #24]
2400389c:	f043 4380 	orr.w	r3, r3, #1073741824	; 0x40000000
240038a0:	6193      	str	r3, [r2, #24]
240038a2:	6a6b      	ldr	r3, [r5, #36]	; 0x24
240038a4:	f043 4380 	orr.w	r3, r3, #1073741824	; 0x40000000
240038a8:	626b      	str	r3, [r5, #36]	; 0x24
240038aa:	bd70      	pop	{r4, r5, r6, pc}
240038ac:	1c62      	adds	r2, r4, #1
240038ae:	d0eb      	beq.n	24003888 <FLASH_OB_WaitForLastOperation+0xc>
240038b0:	f7fc ff78 	bl	240007a4 <HAL_GetTick>
240038b4:	1b80      	subs	r0, r0, r6
240038b6:	42a0      	cmp	r0, r4
240038b8:	d801      	bhi.n	240038be <FLASH_OB_WaitForLastOperation+0x42>
240038ba:	2c00      	cmp	r4, #0
240038bc:	d1e4      	bne.n	24003888 <FLASH_OB_WaitForLastOperation+0xc>
240038be:	2003      	movs	r0, #3
240038c0:	e7f3      	b.n	240038aa <FLASH_OB_WaitForLastOperation+0x2e>
240038c2:	bf00      	nop
240038c4:	52002000 	.word	0x52002000
240038c8:	24000544 	.word	0x24000544

240038cc <FLASH_CRC_WaitForLastOperation>:
240038cc:	e92d 41f0 	stmdb	sp!, {r4, r5, r6, r7, r8, lr}
240038d0:	460c      	mov	r4, r1
240038d2:	4605      	mov	r5, r0
240038d4:	f7fc ff66 	bl	240007a4 <HAL_GetTick>
240038d8:	4e1f      	ldr	r6, [pc, #124]	; (24003958 <FLASH_CRC_WaitForLastOperation+0x8c>)
240038da:	2c01      	cmp	r4, #1
240038dc:	4607      	mov	r7, r0
240038de:	f8df 807c 	ldr.w	r8, [pc, #124]	; 2400395c <FLASH_CRC_WaitForLastOperation+0x90>
240038e2:	bf08      	it	eq
240038e4:	2608      	moveq	r6, #8
240038e6:	2e08      	cmp	r6, #8
240038e8:	d115      	bne.n	24003916 <FLASH_CRC_WaitForLastOperation+0x4a>
240038ea:	f8d8 3010 	ldr.w	r3, [r8, #16]
240038ee:	071a      	lsls	r2, r3, #28
240038f0:	d417      	bmi.n	24003922 <FLASH_CRC_WaitForLastOperation+0x56>
240038f2:	2c01      	cmp	r4, #1
240038f4:	4a19      	ldr	r2, [pc, #100]	; (2400395c <FLASH_CRC_WaitForLastOperation+0x90>)
240038f6:	d11f      	bne.n	24003938 <FLASH_CRC_WaitForLastOperation+0x6c>
240038f8:	6910      	ldr	r0, [r2, #16]
240038fa:	f010 5080 	ands.w	r0, r0, #268435456	; 0x10000000
240038fe:	d008      	beq.n	24003912 <FLASH_CRC_WaitForLastOperation+0x46>
24003900:	4917      	ldr	r1, [pc, #92]	; (24003960 <FLASH_CRC_WaitForLastOperation+0x94>)
24003902:	698b      	ldr	r3, [r1, #24]
24003904:	f043 5380 	orr.w	r3, r3, #268435456	; 0x10000000
24003908:	618b      	str	r3, [r1, #24]
2400390a:	f04f 5380 	mov.w	r3, #268435456	; 0x10000000
2400390e:	6153      	str	r3, [r2, #20]
24003910:	2001      	movs	r0, #1
24003912:	e8bd 81f0 	ldmia.w	sp!, {r4, r5, r6, r7, r8, pc}
24003916:	f8d8 3110 	ldr.w	r3, [r8, #272]	; 0x110
2400391a:	ea26 0303 	bic.w	r3, r6, r3
2400391e:	071b      	lsls	r3, r3, #28
24003920:	d4e7      	bmi.n	240038f2 <FLASH_CRC_WaitForLastOperation+0x26>
24003922:	1c69      	adds	r1, r5, #1
24003924:	d0df      	beq.n	240038e6 <FLASH_CRC_WaitForLastOperation+0x1a>
24003926:	f7fc ff3d 	bl	240007a4 <HAL_GetTick>
2400392a:	1bc0      	subs	r0, r0, r7
2400392c:	42a8      	cmp	r0, r5
2400392e:	d801      	bhi.n	24003934 <FLASH_CRC_WaitForLastOperation+0x68>
24003930:	2d00      	cmp	r5, #0
24003932:	d1d8      	bne.n	240038e6 <FLASH_CRC_WaitForLastOperation+0x1a>
24003934:	2003      	movs	r0, #3
24003936:	e7ec      	b.n	24003912 <FLASH_CRC_WaitForLastOperation+0x46>
24003938:	f8d2 0110 	ldr.w	r0, [r2, #272]	; 0x110
2400393c:	f010 5080 	ands.w	r0, r0, #268435456	; 0x10000000
24003940:	d0e7      	beq.n	24003912 <FLASH_CRC_WaitForLastOperation+0x46>
24003942:	4907      	ldr	r1, [pc, #28]	; (24003960 <FLASH_CRC_WaitForLastOperation+0x94>)
24003944:	698b      	ldr	r3, [r1, #24]
24003946:	f043 4310 	orr.w	r3, r3, #2415919104	; 0x90000000
2400394a:	618b      	str	r3, [r1, #24]
2400394c:	f04f 5380 	mov.w	r3, #268435456	; 0x10000000
24003950:	f8c2 3114 	str.w	r3, [r2, #276]	; 0x114
24003954:	e7dc      	b.n	24003910 <FLASH_CRC_WaitForLastOperation+0x44>
24003956:	bf00      	nop
24003958:	80000008 	.word	0x80000008
2400395c:	52002000 	.word	0x52002000
24003960:	24000544 	.word	0x24000544

24003964 <HAL_FLASH_OB_Launch>:
24003964:	b508      	push	{r3, lr}
24003966:	2101      	movs	r1, #1
24003968:	f24c 3050 	movw	r0, #50000	; 0xc350
2400396c:	f7ff ffae 	bl	240038cc <FLASH_CRC_WaitForLastOperation>
24003970:	b980      	cbnz	r0, 24003994 <HAL_FLASH_OB_Launch+0x30>
24003972:	2102      	movs	r1, #2
24003974:	f24c 3050 	movw	r0, #50000	; 0xc350
24003978:	f7ff ffa8 	bl	240038cc <FLASH_CRC_WaitForLastOperation>
2400397c:	b950      	cbnz	r0, 24003994 <HAL_FLASH_OB_Launch+0x30>
2400397e:	4a06      	ldr	r2, [pc, #24]	; (24003998 <HAL_FLASH_OB_Launch+0x34>)
24003980:	f24c 3050 	movw	r0, #50000	; 0xc350
24003984:	6993      	ldr	r3, [r2, #24]
24003986:	f043 0302 	orr.w	r3, r3, #2
2400398a:	6193      	str	r3, [r2, #24]
2400398c:	e8bd 4008 	ldmia.w	sp!, {r3, lr}
24003990:	f7ff bf74 	b.w	2400387c <FLASH_OB_WaitForLastOperation>
24003994:	2001      	movs	r0, #1
24003996:	bd08      	pop	{r3, pc}
24003998:	52002000 	.word	0x52002000

2400399c <FLASH_MassErase>:
2400399c:	f001 0303 	and.w	r3, r1, #3
240039a0:	2b03      	cmp	r3, #3
240039a2:	d117      	bne.n	240039d4 <FLASH_MassErase+0x38>
240039a4:	4b1d      	ldr	r3, [pc, #116]	; (24003a1c <FLASH_MassErase+0x80>)
240039a6:	68da      	ldr	r2, [r3, #12]
240039a8:	f022 0230 	bic.w	r2, r2, #48	; 0x30
240039ac:	60da      	str	r2, [r3, #12]
240039ae:	f8d3 210c 	ldr.w	r2, [r3, #268]	; 0x10c
240039b2:	f022 0230 	bic.w	r2, r2, #48	; 0x30
240039b6:	f8c3 210c 	str.w	r2, [r3, #268]	; 0x10c
240039ba:	68da      	ldr	r2, [r3, #12]
240039bc:	4302      	orrs	r2, r0
240039be:	60da      	str	r2, [r3, #12]
240039c0:	f8d3 210c 	ldr.w	r2, [r3, #268]	; 0x10c
240039c4:	4310      	orrs	r0, r2
240039c6:	f8c3 010c 	str.w	r0, [r3, #268]	; 0x10c
240039ca:	699a      	ldr	r2, [r3, #24]
240039cc:	f042 0210 	orr.w	r2, r2, #16
240039d0:	619a      	str	r2, [r3, #24]
240039d2:	4770      	bx	lr
240039d4:	07ca      	lsls	r2, r1, #31
240039d6:	d50b      	bpl.n	240039f0 <FLASH_MassErase+0x54>
240039d8:	4b10      	ldr	r3, [pc, #64]	; (24003a1c <FLASH_MassErase+0x80>)
240039da:	68da      	ldr	r2, [r3, #12]
240039dc:	f022 0230 	bic.w	r2, r2, #48	; 0x30
240039e0:	60da      	str	r2, [r3, #12]
240039e2:	68da      	ldr	r2, [r3, #12]
240039e4:	4302      	orrs	r2, r0
240039e6:	60da      	str	r2, [r3, #12]
240039e8:	68da      	ldr	r2, [r3, #12]
240039ea:	f042 0288 	orr.w	r2, r2, #136	; 0x88
240039ee:	60da      	str	r2, [r3, #12]
240039f0:	078b      	lsls	r3, r1, #30
240039f2:	d511      	bpl.n	24003a18 <FLASH_MassErase+0x7c>
240039f4:	4b09      	ldr	r3, [pc, #36]	; (24003a1c <FLASH_MassErase+0x80>)
240039f6:	f8d3 210c 	ldr.w	r2, [r3, #268]	; 0x10c
240039fa:	f022 0230 	bic.w	r2, r2, #48	; 0x30
240039fe:	f8c3 210c 	str.w	r2, [r3, #268]	; 0x10c
24003a02:	f8d3 210c 	ldr.w	r2, [r3, #268]	; 0x10c
24003a06:	4310      	orrs	r0, r2
24003a08:	f8c3 010c 	str.w	r0, [r3, #268]	; 0x10c
24003a0c:	f8d3 210c 	ldr.w	r2, [r3, #268]	; 0x10c
24003a10:	f042 0288 	orr.w	r2, r2, #136	; 0x88
24003a14:	f8c3 210c 	str.w	r2, [r3, #268]	; 0x10c
24003a18:	4770      	bx	lr
24003a1a:	bf00      	nop
24003a1c:	52002000 	.word	0x52002000

24003a20 <HAL_FLASHEx_OBProgram>:
24003a20:	b5f8      	push	{r3, r4, r5, r6, r7, lr}
24003a22:	4e8c      	ldr	r6, [pc, #560]	; (24003c54 <HAL_FLASHEx_OBProgram+0x234>)
24003a24:	4604      	mov	r4, r0
24003a26:	7d33      	ldrb	r3, [r6, #20]
24003a28:	2b01      	cmp	r3, #1
24003a2a:	f000 8111 	beq.w	24003c50 <HAL_FLASHEx_OBProgram+0x230>
24003a2e:	2101      	movs	r1, #1
24003a30:	2300      	movs	r3, #0
24003a32:	f24c 3050 	movw	r0, #50000	; 0xc350
24003a36:	7531      	strb	r1, [r6, #20]
24003a38:	61b3      	str	r3, [r6, #24]
24003a3a:	f7ff fe13 	bl	24003664 <FLASH_WaitForLastOperation>
24003a3e:	b118      	cbz	r0, 24003a48 <HAL_FLASHEx_OBProgram+0x28>
24003a40:	2001      	movs	r0, #1
24003a42:	2300      	movs	r3, #0
24003a44:	7533      	strb	r3, [r6, #20]
24003a46:	bdf8      	pop	{r3, r4, r5, r6, r7, pc}
24003a48:	2102      	movs	r1, #2
24003a4a:	f24c 3050 	movw	r0, #50000	; 0xc350
24003a4e:	f7ff fe09 	bl	24003664 <FLASH_WaitForLastOperation>
24003a52:	2800      	cmp	r0, #0
24003a54:	d1f4      	bne.n	24003a40 <HAL_FLASHEx_OBProgram+0x20>
24003a56:	6827      	ldr	r7, [r4, #0]
24003a58:	07f9      	lsls	r1, r7, #31
24003a5a:	d51a      	bpl.n	24003a92 <HAL_FLASHEx_OBProgram+0x72>
24003a5c:	6865      	ldr	r5, [r4, #4]
24003a5e:	69e2      	ldr	r2, [r4, #28]
24003a60:	2d01      	cmp	r5, #1
24003a62:	68a3      	ldr	r3, [r4, #8]
24003a64:	f002 0101 	and.w	r1, r2, #1
24003a68:	f002 0202 	and.w	r2, r2, #2
24003a6c:	f040 80dd 	bne.w	24003c2a <HAL_FLASHEx_OBProgram+0x20a>
24003a70:	b131      	cbz	r1, 24003a80 <HAL_FLASHEx_OBProgram+0x60>
24003a72:	4d79      	ldr	r5, [pc, #484]	; (24003c58 <HAL_FLASHEx_OBProgram+0x238>)
24003a74:	fa5f fc83 	uxtb.w	ip, r3
24003a78:	6be9      	ldr	r1, [r5, #60]	; 0x3c
24003a7a:	ea21 010c 	bic.w	r1, r1, ip
24003a7e:	63e9      	str	r1, [r5, #60]	; 0x3c
24003a80:	b13a      	cbz	r2, 24003a92 <HAL_FLASHEx_OBProgram+0x72>
24003a82:	4975      	ldr	r1, [pc, #468]	; (24003c58 <HAL_FLASHEx_OBProgram+0x238>)
24003a84:	b2db      	uxtb	r3, r3
24003a86:	f8d1 213c 	ldr.w	r2, [r1, #316]	; 0x13c
24003a8a:	ea22 0303 	bic.w	r3, r2, r3
24003a8e:	f8c1 313c 	str.w	r3, [r1, #316]	; 0x13c
24003a92:	07ba      	lsls	r2, r7, #30
24003a94:	d506      	bpl.n	24003aa4 <HAL_FLASHEx_OBProgram+0x84>
24003a96:	4a70      	ldr	r2, [pc, #448]	; (24003c58 <HAL_FLASHEx_OBProgram+0x238>)
24003a98:	68e1      	ldr	r1, [r4, #12]
24003a9a:	6a13      	ldr	r3, [r2, #32]
24003a9c:	f423 437f 	bic.w	r3, r3, #65280	; 0xff00
24003aa0:	430b      	orrs	r3, r1
24003aa2:	6213      	str	r3, [r2, #32]
24003aa4:	077b      	lsls	r3, r7, #29
24003aa6:	d554      	bpl.n	24003b52 <HAL_FLASHEx_OBProgram+0x132>
24003aa8:	e9d4 5105 	ldrd	r5, r1, [r4, #20]
24003aac:	f015 0301 	ands.w	r3, r5, #1
24003ab0:	bf1a      	itte	ne
24003ab2:	f001 0310 	andne.w	r3, r1, #16
24003ab6:	2210      	movne	r2, #16
24003ab8:	461a      	moveq	r2, r3
24003aba:	f015 0f02 	tst.w	r5, #2
24003abe:	bf1e      	ittt	ne
24003ac0:	f001 0c40 	andne.w	ip, r1, #64	; 0x40
24003ac4:	f042 0240 	orrne.w	r2, r2, #64	; 0x40
24003ac8:	ea43 030c 	orrne.w	r3, r3, ip
24003acc:	f015 0f04 	tst.w	r5, #4
24003ad0:	bf1e      	ittt	ne
24003ad2:	f001 0c80 	andne.w	ip, r1, #128	; 0x80
24003ad6:	f042 0280 	orrne.w	r2, r2, #128	; 0x80
24003ada:	ea43 030c 	orrne.w	r3, r3, ip
24003ade:	f015 0f08 	tst.w	r5, #8
24003ae2:	bf1e      	ittt	ne
24003ae4:	f401 3c00 	andne.w	ip, r1, #131072	; 0x20000
24003ae8:	f442 3200 	orrne.w	r2, r2, #131072	; 0x20000
24003aec:	ea43 030c 	orrne.w	r3, r3, ip
24003af0:	f015 0f10 	tst.w	r5, #16
24003af4:	bf1e      	ittt	ne
24003af6:	f401 2c80 	andne.w	ip, r1, #262144	; 0x40000
24003afa:	f442 2280 	orrne.w	r2, r2, #262144	; 0x40000
24003afe:	ea43 030c 	orrne.w	r3, r3, ip
24003b02:	f015 0f20 	tst.w	r5, #32
24003b06:	bf1e      	ittt	ne
24003b08:	f401 1cc0 	andne.w	ip, r1, #1572864	; 0x180000
24003b0c:	f442 12c0 	orrne.w	r2, r2, #1572864	; 0x180000
24003b10:	ea43 030c 	orrne.w	r3, r3, ip
24003b14:	f015 0f40 	tst.w	r5, #64	; 0x40
24003b18:	bf1e      	ittt	ne
24003b1a:	f401 1c00 	andne.w	ip, r1, #2097152	; 0x200000
24003b1e:	f442 1200 	orrne.w	r2, r2, #2097152	; 0x200000
24003b22:	ea43 030c 	orrne.w	r3, r3, ip
24003b26:	f415 7f80 	tst.w	r5, #256	; 0x100
24003b2a:	bf1e      	ittt	ne
24003b2c:	f001 4c00 	andne.w	ip, r1, #2147483648	; 0x80000000
24003b30:	f042 4200 	orrne.w	r2, r2, #2147483648	; 0x80000000
24003b34:	ea43 030c 	orrne.w	r3, r3, ip
24003b38:	062d      	lsls	r5, r5, #24
24003b3a:	4d47      	ldr	r5, [pc, #284]	; (24003c58 <HAL_FLASHEx_OBProgram+0x238>)
24003b3c:	bf42      	ittt	mi
24003b3e:	f001 5100 	andmi.w	r1, r1, #536870912	; 0x20000000
24003b42:	f042 5200 	orrmi.w	r2, r2, #536870912	; 0x20000000
24003b46:	430b      	orrmi	r3, r1
24003b48:	6a29      	ldr	r1, [r5, #32]
24003b4a:	ea21 0202 	bic.w	r2, r1, r2
24003b4e:	4313      	orrs	r3, r2
24003b50:	622b      	str	r3, [r5, #32]
24003b52:	073b      	lsls	r3, r7, #28
24003b54:	d523      	bpl.n	24003b9e <HAL_FLASHEx_OBProgram+0x17e>
24003b56:	f8d4 e01c 	ldr.w	lr, [r4, #28]
24003b5a:	6aa1      	ldr	r1, [r4, #40]	; 0x28
24003b5c:	f01e 0f01 	tst.w	lr, #1
24003b60:	e9d4 2508 	ldrd	r2, r5, [r4, #32]
24003b64:	d00c      	beq.n	24003b80 <HAL_FLASHEx_OBProgram+0x160>
24003b66:	020b      	lsls	r3, r1, #8
24003b68:	f105 4c78 	add.w	ip, r5, #4160749568	; 0xf8000000
24003b6c:	0c1b      	lsrs	r3, r3, #16
24003b6e:	ea42 2c1c 	orr.w	ip, r2, ip, lsr #8
24003b72:	041b      	lsls	r3, r3, #16
24003b74:	ea43 030c 	orr.w	r3, r3, ip
24003b78:	f8df c0dc 	ldr.w	ip, [pc, #220]	; 24003c58 <HAL_FLASHEx_OBProgram+0x238>
24003b7c:	f8cc 302c 	str.w	r3, [ip, #44]	; 0x2c
24003b80:	f01e 0f02 	tst.w	lr, #2
24003b84:	d00b      	beq.n	24003b9e <HAL_FLASHEx_OBProgram+0x17e>
24003b86:	f1a1 6101 	sub.w	r1, r1, #135266304	; 0x8100000
24003b8a:	f1a5 6501 	sub.w	r5, r5, #135266304	; 0x8100000
24003b8e:	4b32      	ldr	r3, [pc, #200]	; (24003c58 <HAL_FLASHEx_OBProgram+0x238>)
24003b90:	0a09      	lsrs	r1, r1, #8
24003b92:	ea42 2215 	orr.w	r2, r2, r5, lsr #8
24003b96:	ea42 4201 	orr.w	r2, r2, r1, lsl #16
24003b9a:	f8c3 212c 	str.w	r2, [r3, #300]	; 0x12c
24003b9e:	06fd      	lsls	r5, r7, #27
24003ba0:	d506      	bpl.n	24003bb0 <HAL_FLASHEx_OBProgram+0x190>
24003ba2:	4a2d      	ldr	r2, [pc, #180]	; (24003c58 <HAL_FLASHEx_OBProgram+0x238>)
24003ba4:	6921      	ldr	r1, [r4, #16]
24003ba6:	6a13      	ldr	r3, [r2, #32]
24003ba8:	f023 030c 	bic.w	r3, r3, #12
24003bac:	430b      	orrs	r3, r1
24003bae:	6213      	str	r3, [r2, #32]
24003bb0:	0679      	lsls	r1, r7, #25
24003bb2:	d513      	bpl.n	24003bdc <HAL_FLASHEx_OBProgram+0x1bc>
24003bb4:	6ae5      	ldr	r5, [r4, #44]	; 0x2c
24003bb6:	f8d4 c034 	ldr.w	ip, [r4, #52]	; 0x34
24003bba:	07ea      	lsls	r2, r5, #31
24003bbc:	d506      	bpl.n	24003bcc <HAL_FLASHEx_OBProgram+0x1ac>
24003bbe:	4b26      	ldr	r3, [pc, #152]	; (24003c58 <HAL_FLASHEx_OBProgram+0x238>)
24003bc0:	8e61      	ldrh	r1, [r4, #50]	; 0x32
24003bc2:	6c5a      	ldr	r2, [r3, #68]	; 0x44
24003bc4:	0c12      	lsrs	r2, r2, #16
24003bc6:	0412      	lsls	r2, r2, #16
24003bc8:	430a      	orrs	r2, r1
24003bca:	645a      	str	r2, [r3, #68]	; 0x44
24003bcc:	07ab      	lsls	r3, r5, #30
24003bce:	d505      	bpl.n	24003bdc <HAL_FLASHEx_OBProgram+0x1bc>
24003bd0:	4a21      	ldr	r2, [pc, #132]	; (24003c58 <HAL_FLASHEx_OBProgram+0x238>)
24003bd2:	6c53      	ldr	r3, [r2, #68]	; 0x44
24003bd4:	b29b      	uxth	r3, r3
24003bd6:	ea43 030c 	orr.w	r3, r3, ip
24003bda:	6453      	str	r3, [r2, #68]	; 0x44
24003bdc:	06bd      	lsls	r5, r7, #26
24003bde:	f57f af30 	bpl.w	24003a42 <HAL_FLASHEx_OBProgram+0x22>
24003be2:	69e5      	ldr	r5, [r4, #28]
24003be4:	6c22      	ldr	r2, [r4, #64]	; 0x40
24003be6:	e9d4 370e 	ldrd	r3, r7, [r4, #56]	; 0x38
24003bea:	07ec      	lsls	r4, r5, #31
24003bec:	d50b      	bpl.n	24003c06 <HAL_FLASHEx_OBProgram+0x1e6>
24003bee:	f003 4400 	and.w	r4, r3, #2147483648	; 0x80000000
24003bf2:	f107 4178 	add.w	r1, r7, #4160749568	; 0xf8000000
24003bf6:	ea44 2111 	orr.w	r1, r4, r1, lsr #8
24003bfa:	0214      	lsls	r4, r2, #8
24003bfc:	0c24      	lsrs	r4, r4, #16
24003bfe:	0424      	lsls	r4, r4, #16
24003c00:	4321      	orrs	r1, r4
24003c02:	4c15      	ldr	r4, [pc, #84]	; (24003c58 <HAL_FLASHEx_OBProgram+0x238>)
24003c04:	6361      	str	r1, [r4, #52]	; 0x34
24003c06:	07a9      	lsls	r1, r5, #30
24003c08:	f57f af1b 	bpl.w	24003a42 <HAL_FLASHEx_OBProgram+0x22>
24003c0c:	f1a7 6101 	sub.w	r1, r7, #135266304	; 0x8100000
24003c10:	f003 4300 	and.w	r3, r3, #2147483648	; 0x80000000
24003c14:	f1a2 6201 	sub.w	r2, r2, #135266304	; 0x8100000
24003c18:	ea43 2311 	orr.w	r3, r3, r1, lsr #8
24003c1c:	0a12      	lsrs	r2, r2, #8
24003c1e:	ea43 4302 	orr.w	r3, r3, r2, lsl #16
24003c22:	4a0d      	ldr	r2, [pc, #52]	; (24003c58 <HAL_FLASHEx_OBProgram+0x238>)
24003c24:	f8c2 3134 	str.w	r3, [r2, #308]	; 0x134
24003c28:	e70b      	b.n	24003a42 <HAL_FLASHEx_OBProgram+0x22>
24003c2a:	b131      	cbz	r1, 24003c3a <HAL_FLASHEx_OBProgram+0x21a>
24003c2c:	4d0a      	ldr	r5, [pc, #40]	; (24003c58 <HAL_FLASHEx_OBProgram+0x238>)
24003c2e:	b2d9      	uxtb	r1, r3
24003c30:	f8d5 c03c 	ldr.w	ip, [r5, #60]	; 0x3c
24003c34:	ea41 010c 	orr.w	r1, r1, ip
24003c38:	63e9      	str	r1, [r5, #60]	; 0x3c
24003c3a:	2a00      	cmp	r2, #0
24003c3c:	f43f af29 	beq.w	24003a92 <HAL_FLASHEx_OBProgram+0x72>
24003c40:	4a05      	ldr	r2, [pc, #20]	; (24003c58 <HAL_FLASHEx_OBProgram+0x238>)
24003c42:	b2db      	uxtb	r3, r3
24003c44:	f8d2 113c 	ldr.w	r1, [r2, #316]	; 0x13c
24003c48:	430b      	orrs	r3, r1
24003c4a:	f8c2 313c 	str.w	r3, [r2, #316]	; 0x13c
24003c4e:	e720      	b.n	24003a92 <HAL_FLASHEx_OBProgram+0x72>
24003c50:	2002      	movs	r0, #2
24003c52:	e6f8      	b.n	24003a46 <HAL_FLASHEx_OBProgram+0x26>
24003c54:	24000544 	.word	0x24000544
24003c58:	52002000 	.word	0x52002000

24003c5c <HAL_FLASHEx_OBGetConfig>:
24003c5c:	2316      	movs	r3, #22
24003c5e:	4a30      	ldr	r2, [pc, #192]	; (24003d20 <HAL_FLASHEx_OBGetConfig+0xc4>)
24003c60:	6003      	str	r3, [r0, #0]
24003c62:	69d3      	ldr	r3, [r2, #28]
24003c64:	f403 437f 	and.w	r3, r3, #65280	; 0xff00
24003c68:	f5b3 4f2a 	cmp.w	r3, #43520	; 0xaa00
24003c6c:	b530      	push	{r4, r5, lr}
24003c6e:	d004      	beq.n	24003c7a <HAL_FLASHEx_OBGetConfig+0x1e>
24003c70:	f5b3 4f4c 	cmp.w	r3, #52224	; 0xcc00
24003c74:	bf18      	it	ne
24003c76:	f44f 43aa 	movne.w	r3, #21760	; 0x5500
24003c7a:	60c3      	str	r3, [r0, #12]
24003c7c:	69d3      	ldr	r3, [r2, #28]
24003c7e:	69c4      	ldr	r4, [r0, #28]
24003c80:	f423 437f 	bic.w	r3, r3, #65280	; 0xff00
24003c84:	f023 030c 	bic.w	r3, r3, #12
24003c88:	6183      	str	r3, [r0, #24]
24003c8a:	69d3      	ldr	r3, [r2, #28]
24003c8c:	f003 030c 	and.w	r3, r3, #12
24003c90:	6103      	str	r3, [r0, #16]
24003c92:	1e63      	subs	r3, r4, #1
24003c94:	2b01      	cmp	r3, #1
24003c96:	d82c      	bhi.n	24003cf2 <HAL_FLASHEx_OBGetConfig+0x96>
24003c98:	233f      	movs	r3, #63	; 0x3f
24003c9a:	2c01      	cmp	r4, #1
24003c9c:	6003      	str	r3, [r0, #0]
24003c9e:	d13c      	bne.n	24003d1a <HAL_FLASHEx_OBGetConfig+0xbe>
24003ca0:	6b93      	ldr	r3, [r2, #56]	; 0x38
24003ca2:	43db      	mvns	r3, r3
24003ca4:	b2db      	uxtb	r3, r3
24003ca6:	6083      	str	r3, [r0, #8]
24003ca8:	3b00      	subs	r3, #0
24003caa:	bf18      	it	ne
24003cac:	2301      	movne	r3, #1
24003cae:	2c01      	cmp	r4, #1
24003cb0:	6043      	str	r3, [r0, #4]
24003cb2:	4b1b      	ldr	r3, [pc, #108]	; (24003d20 <HAL_FLASHEx_OBGetConfig+0xc4>)
24003cb4:	d12c      	bne.n	24003d10 <HAL_FLASHEx_OBGetConfig+0xb4>
24003cb6:	6a9a      	ldr	r2, [r3, #40]	; 0x28
24003cb8:	f04f 6100 	mov.w	r1, #134217728	; 0x8000000
24003cbc:	f002 4300 	and.w	r3, r2, #2147483648	; 0x80000000
24003cc0:	2c01      	cmp	r4, #1
24003cc2:	6203      	str	r3, [r0, #32]
24003cc4:	4b17      	ldr	r3, [pc, #92]	; (24003d24 <HAL_FLASHEx_OBGetConfig+0xc8>)
24003cc6:	ea03 2502 	and.w	r5, r3, r2, lsl #8
24003cca:	ea03 2212 	and.w	r2, r3, r2, lsr #8
24003cce:	440d      	add	r5, r1
24003cd0:	440a      	add	r2, r1
24003cd2:	6245      	str	r5, [r0, #36]	; 0x24
24003cd4:	6282      	str	r2, [r0, #40]	; 0x28
24003cd6:	4a12      	ldr	r2, [pc, #72]	; (24003d20 <HAL_FLASHEx_OBGetConfig+0xc4>)
24003cd8:	d117      	bne.n	24003d0a <HAL_FLASHEx_OBGetConfig+0xae>
24003cda:	6b12      	ldr	r2, [r2, #48]	; 0x30
24003cdc:	f002 4400 	and.w	r4, r2, #2147483648	; 0x80000000
24003ce0:	6384      	str	r4, [r0, #56]	; 0x38
24003ce2:	ea03 2402 	and.w	r4, r3, r2, lsl #8
24003ce6:	ea03 2312 	and.w	r3, r3, r2, lsr #8
24003cea:	440c      	add	r4, r1
24003cec:	440b      	add	r3, r1
24003cee:	63c4      	str	r4, [r0, #60]	; 0x3c
24003cf0:	6403      	str	r3, [r0, #64]	; 0x40
24003cf2:	4b0b      	ldr	r3, [pc, #44]	; (24003d20 <HAL_FLASHEx_OBGetConfig+0xc4>)
24003cf4:	6c1b      	ldr	r3, [r3, #64]	; 0x40
24003cf6:	041a      	lsls	r2, r3, #16
24003cf8:	0c1b      	lsrs	r3, r3, #16
24003cfa:	6302      	str	r2, [r0, #48]	; 0x30
24003cfc:	041b      	lsls	r3, r3, #16
24003cfe:	6343      	str	r3, [r0, #52]	; 0x34
24003d00:	6803      	ldr	r3, [r0, #0]
24003d02:	f043 0340 	orr.w	r3, r3, #64	; 0x40
24003d06:	6003      	str	r3, [r0, #0]
24003d08:	bd30      	pop	{r4, r5, pc}
24003d0a:	f8d2 2130 	ldr.w	r2, [r2, #304]	; 0x130
24003d0e:	e7e5      	b.n	24003cdc <HAL_FLASHEx_OBGetConfig+0x80>
24003d10:	f8d3 2128 	ldr.w	r2, [r3, #296]	; 0x128
24003d14:	f04f 6101 	mov.w	r1, #135266304	; 0x8100000
24003d18:	e7d0      	b.n	24003cbc <HAL_FLASHEx_OBGetConfig+0x60>
24003d1a:	f8d2 3138 	ldr.w	r3, [r2, #312]	; 0x138
24003d1e:	e7c0      	b.n	24003ca2 <HAL_FLASHEx_OBGetConfig+0x46>
24003d20:	52002000 	.word	0x52002000
24003d24:	000fff00 	.word	0x000fff00

24003d28 <HAL_FLASHEx_Unlock_Bank1>:
24003d28:	4b06      	ldr	r3, [pc, #24]	; (24003d44 <HAL_FLASHEx_Unlock_Bank1+0x1c>)
24003d2a:	68d8      	ldr	r0, [r3, #12]
24003d2c:	f010 0001 	ands.w	r0, r0, #1
24003d30:	d007      	beq.n	24003d42 <HAL_FLASHEx_Unlock_Bank1+0x1a>
24003d32:	4a05      	ldr	r2, [pc, #20]	; (24003d48 <HAL_FLASHEx_Unlock_Bank1+0x20>)
24003d34:	605a      	str	r2, [r3, #4]
24003d36:	f102 3288 	add.w	r2, r2, #2290649224	; 0x88888888
24003d3a:	605a      	str	r2, [r3, #4]
24003d3c:	68d8      	ldr	r0, [r3, #12]
24003d3e:	f000 0001 	and.w	r0, r0, #1
24003d42:	4770      	bx	lr
24003d44:	52002000 	.word	0x52002000
24003d48:	45670123 	.word	0x45670123

24003d4c <HAL_FLASHEx_Lock_Bank1>:
24003d4c:	4a03      	ldr	r2, [pc, #12]	; (24003d5c <HAL_FLASHEx_Lock_Bank1+0x10>)
24003d4e:	2000      	movs	r0, #0
24003d50:	68d3      	ldr	r3, [r2, #12]
24003d52:	f043 0301 	orr.w	r3, r3, #1
24003d56:	60d3      	str	r3, [r2, #12]
24003d58:	4770      	bx	lr
24003d5a:	bf00      	nop
24003d5c:	52002000 	.word	0x52002000

24003d60 <HAL_FLASHEx_Unlock_Bank2>:
24003d60:	4b08      	ldr	r3, [pc, #32]	; (24003d84 <HAL_FLASHEx_Unlock_Bank2+0x24>)
24003d62:	f8d3 010c 	ldr.w	r0, [r3, #268]	; 0x10c
24003d66:	f010 0001 	ands.w	r0, r0, #1
24003d6a:	d00a      	beq.n	24003d82 <HAL_FLASHEx_Unlock_Bank2+0x22>
24003d6c:	4a06      	ldr	r2, [pc, #24]	; (24003d88 <HAL_FLASHEx_Unlock_Bank2+0x28>)
24003d6e:	f8c3 2104 	str.w	r2, [r3, #260]	; 0x104
24003d72:	f102 3288 	add.w	r2, r2, #2290649224	; 0x88888888
24003d76:	f8c3 2104 	str.w	r2, [r3, #260]	; 0x104
24003d7a:	f8d3 010c 	ldr.w	r0, [r3, #268]	; 0x10c
24003d7e:	f000 0001 	and.w	r0, r0, #1
24003d82:	4770      	bx	lr
24003d84:	52002000 	.word	0x52002000
24003d88:	45670123 	.word	0x45670123

24003d8c <HAL_FLASHEx_Lock_Bank2>:
24003d8c:	4a04      	ldr	r2, [pc, #16]	; (24003da0 <HAL_FLASHEx_Lock_Bank2+0x14>)
24003d8e:	2000      	movs	r0, #0
24003d90:	f8d2 310c 	ldr.w	r3, [r2, #268]	; 0x10c
24003d94:	f043 0301 	orr.w	r3, r3, #1
24003d98:	f8c2 310c 	str.w	r3, [r2, #268]	; 0x10c
24003d9c:	4770      	bx	lr
24003d9e:	bf00      	nop
24003da0:	52002000 	.word	0x52002000

24003da4 <HAL_FLASHEx_ComputeCRC>:
24003da4:	b538      	push	{r3, r4, r5, lr}
24003da6:	4604      	mov	r4, r0
24003da8:	f24c 3050 	movw	r0, #50000	; 0xc350
24003dac:	460d      	mov	r5, r1
24003dae:	f7ff fd65 	bl	2400387c <FLASH_OB_WaitForLastOperation>
24003db2:	2800      	cmp	r0, #0
24003db4:	d134      	bne.n	24003e20 <HAL_FLASHEx_ComputeCRC+0x7c>
24003db6:	68a3      	ldr	r3, [r4, #8]
24003db8:	e9d4 2100 	ldrd	r2, r1, [r4]
24003dbc:	2b01      	cmp	r3, #1
24003dbe:	4b52      	ldr	r3, [pc, #328]	; (24003f08 <HAL_FLASHEx_ComputeCRC+0x164>)
24003dc0:	ea42 0001 	orr.w	r0, r2, r1
24003dc4:	d145      	bne.n	24003e52 <HAL_FLASHEx_ComputeCRC+0xae>
24003dc6:	68d9      	ldr	r1, [r3, #12]
24003dc8:	f5b2 7f80 	cmp.w	r2, #256	; 0x100
24003dcc:	f441 4100 	orr.w	r1, r1, #32768	; 0x8000
24003dd0:	60d9      	str	r1, [r3, #12]
24003dd2:	6959      	ldr	r1, [r3, #20]
24003dd4:	f041 51c0 	orr.w	r1, r1, #402653184	; 0x18000000
24003dd8:	6159      	str	r1, [r3, #20]
24003dda:	6d19      	ldr	r1, [r3, #80]	; 0x50
24003ddc:	ea41 0100 	orr.w	r1, r1, r0
24003de0:	f441 3100 	orr.w	r1, r1, #131072	; 0x20000
24003de4:	6519      	str	r1, [r3, #80]	; 0x50
24003de6:	d127      	bne.n	24003e38 <HAL_FLASHEx_ComputeCRC+0x94>
24003de8:	6d1a      	ldr	r2, [r3, #80]	; 0x50
24003dea:	f442 6280 	orr.w	r2, r2, #1024	; 0x400
24003dee:	651a      	str	r2, [r3, #80]	; 0x50
24003df0:	e9d4 2003 	ldrd	r2, r0, [r4, #12]
24003df4:	4410      	add	r0, r2
24003df6:	4290      	cmp	r0, r2
24003df8:	d813      	bhi.n	24003e22 <HAL_FLASHEx_ComputeCRC+0x7e>
24003dfa:	4c43      	ldr	r4, [pc, #268]	; (24003f08 <HAL_FLASHEx_ComputeCRC+0x164>)
24003dfc:	2101      	movs	r1, #1
24003dfe:	f24c 3050 	movw	r0, #50000	; 0xc350
24003e02:	6d23      	ldr	r3, [r4, #80]	; 0x50
24003e04:	f443 3380 	orr.w	r3, r3, #65536	; 0x10000
24003e08:	6523      	str	r3, [r4, #80]	; 0x50
24003e0a:	f7ff fd5f 	bl	240038cc <FLASH_CRC_WaitForLastOperation>
24003e0e:	6de3      	ldr	r3, [r4, #92]	; 0x5c
24003e10:	602b      	str	r3, [r5, #0]
24003e12:	68e3      	ldr	r3, [r4, #12]
24003e14:	f423 4300 	bic.w	r3, r3, #32768	; 0x8000
24003e18:	60e3      	str	r3, [r4, #12]
24003e1a:	f04f 53c0 	mov.w	r3, #402653184	; 0x18000000
24003e1e:	6163      	str	r3, [r4, #20]
24003e20:	bd38      	pop	{r3, r4, r5, pc}
24003e22:	6d19      	ldr	r1, [r3, #80]	; 0x50
24003e24:	f021 0107 	bic.w	r1, r1, #7
24003e28:	6519      	str	r1, [r3, #80]	; 0x50
24003e2a:	6d19      	ldr	r1, [r3, #80]	; 0x50
24003e2c:	4311      	orrs	r1, r2
24003e2e:	3201      	adds	r2, #1
24003e30:	f441 7100 	orr.w	r1, r1, #512	; 0x200
24003e34:	6519      	str	r1, [r3, #80]	; 0x50
24003e36:	e7de      	b.n	24003df6 <HAL_FLASHEx_ComputeCRC+0x52>
24003e38:	4934      	ldr	r1, [pc, #208]	; (24003f0c <HAL_FLASHEx_ComputeCRC+0x168>)
24003e3a:	428a      	cmp	r2, r1
24003e3c:	d104      	bne.n	24003e48 <HAL_FLASHEx_ComputeCRC+0xa4>
24003e3e:	6d1a      	ldr	r2, [r3, #80]	; 0x50
24003e40:	f442 0280 	orr.w	r2, r2, #4194304	; 0x400000
24003e44:	651a      	str	r2, [r3, #80]	; 0x50
24003e46:	e7d8      	b.n	24003dfa <HAL_FLASHEx_ComputeCRC+0x56>
24003e48:	e9d4 1205 	ldrd	r1, r2, [r4, #20]
24003e4c:	6559      	str	r1, [r3, #84]	; 0x54
24003e4e:	659a      	str	r2, [r3, #88]	; 0x58
24003e50:	e7d3      	b.n	24003dfa <HAL_FLASHEx_ComputeCRC+0x56>
24003e52:	f8d3 110c 	ldr.w	r1, [r3, #268]	; 0x10c
24003e56:	f5b2 7f80 	cmp.w	r2, #256	; 0x100
24003e5a:	f441 4100 	orr.w	r1, r1, #32768	; 0x8000
24003e5e:	f8c3 110c 	str.w	r1, [r3, #268]	; 0x10c
24003e62:	f8d3 1114 	ldr.w	r1, [r3, #276]	; 0x114
24003e66:	f041 51c0 	orr.w	r1, r1, #402653184	; 0x18000000
24003e6a:	f8c3 1114 	str.w	r1, [r3, #276]	; 0x114
24003e6e:	f8d3 1150 	ldr.w	r1, [r3, #336]	; 0x150
24003e72:	ea41 0100 	orr.w	r1, r1, r0
24003e76:	f441 3100 	orr.w	r1, r1, #131072	; 0x20000
24003e7a:	f8c3 1150 	str.w	r1, [r3, #336]	; 0x150
24003e7e:	d132      	bne.n	24003ee6 <HAL_FLASHEx_ComputeCRC+0x142>
24003e80:	f8d3 2150 	ldr.w	r2, [r3, #336]	; 0x150
24003e84:	f442 6280 	orr.w	r2, r2, #1024	; 0x400
24003e88:	f8c3 2150 	str.w	r2, [r3, #336]	; 0x150
24003e8c:	e9d4 2003 	ldrd	r2, r0, [r4, #12]
24003e90:	4410      	add	r0, r2
24003e92:	4290      	cmp	r0, r2
24003e94:	d818      	bhi.n	24003ec8 <HAL_FLASHEx_ComputeCRC+0x124>
24003e96:	4c1c      	ldr	r4, [pc, #112]	; (24003f08 <HAL_FLASHEx_ComputeCRC+0x164>)
24003e98:	2102      	movs	r1, #2
24003e9a:	f24c 3050 	movw	r0, #50000	; 0xc350
24003e9e:	f8d4 3150 	ldr.w	r3, [r4, #336]	; 0x150
24003ea2:	f443 3380 	orr.w	r3, r3, #65536	; 0x10000
24003ea6:	f8c4 3150 	str.w	r3, [r4, #336]	; 0x150
24003eaa:	f7ff fd0f 	bl	240038cc <FLASH_CRC_WaitForLastOperation>
24003eae:	6de3      	ldr	r3, [r4, #92]	; 0x5c
24003eb0:	602b      	str	r3, [r5, #0]
24003eb2:	f8d4 310c 	ldr.w	r3, [r4, #268]	; 0x10c
24003eb6:	f423 4300 	bic.w	r3, r3, #32768	; 0x8000
24003eba:	f8c4 310c 	str.w	r3, [r4, #268]	; 0x10c
24003ebe:	f04f 53c0 	mov.w	r3, #402653184	; 0x18000000
24003ec2:	f8c4 3114 	str.w	r3, [r4, #276]	; 0x114
24003ec6:	e7ab      	b.n	24003e20 <HAL_FLASHEx_ComputeCRC+0x7c>
24003ec8:	f8d3 1150 	ldr.w	r1, [r3, #336]	; 0x150
24003ecc:	f021 0107 	bic.w	r1, r1, #7
24003ed0:	f8c3 1150 	str.w	r1, [r3, #336]	; 0x150
24003ed4:	f8d3 1150 	ldr.w	r1, [r3, #336]	; 0x150
24003ed8:	4311      	orrs	r1, r2
24003eda:	3201      	adds	r2, #1
24003edc:	f441 7100 	orr.w	r1, r1, #512	; 0x200
24003ee0:	f8c3 1150 	str.w	r1, [r3, #336]	; 0x150
24003ee4:	e7d5      	b.n	24003e92 <HAL_FLASHEx_ComputeCRC+0xee>
24003ee6:	4909      	ldr	r1, [pc, #36]	; (24003f0c <HAL_FLASHEx_ComputeCRC+0x168>)
24003ee8:	428a      	cmp	r2, r1
24003eea:	d106      	bne.n	24003efa <HAL_FLASHEx_ComputeCRC+0x156>
24003eec:	f8d3 2150 	ldr.w	r2, [r3, #336]	; 0x150
24003ef0:	f442 0280 	orr.w	r2, r2, #4194304	; 0x400000
24003ef4:	f8c3 2150 	str.w	r2, [r3, #336]	; 0x150
24003ef8:	e7cd      	b.n	24003e96 <HAL_FLASHEx_ComputeCRC+0xf2>
24003efa:	e9d4 1205 	ldrd	r1, r2, [r4, #20]
24003efe:	f8c3 1154 	str.w	r1, [r3, #340]	; 0x154
24003f02:	f8c3 2158 	str.w	r2, [r3, #344]	; 0x158
24003f06:	e7c6      	b.n	24003e96 <HAL_FLASHEx_ComputeCRC+0xf2>
24003f08:	52002000 	.word	0x52002000
24003f0c:	00400100 	.word	0x00400100

24003f10 <FLASH_Erase_Sector>:
24003f10:	b510      	push	{r4, lr}
24003f12:	07cc      	lsls	r4, r1, #31
24003f14:	d50b      	bpl.n	24003f2e <FLASH_Erase_Sector+0x1e>
24003f16:	4c0f      	ldr	r4, [pc, #60]	; (24003f54 <FLASH_Erase_Sector+0x44>)
24003f18:	68e3      	ldr	r3, [r4, #12]
24003f1a:	f423 63e6 	bic.w	r3, r3, #1840	; 0x730
24003f1e:	60e3      	str	r3, [r4, #12]
24003f20:	68e3      	ldr	r3, [r4, #12]
24003f22:	ea43 2300 	orr.w	r3, r3, r0, lsl #8
24003f26:	4313      	orrs	r3, r2
24003f28:	f043 0384 	orr.w	r3, r3, #132	; 0x84
24003f2c:	60e3      	str	r3, [r4, #12]
24003f2e:	078b      	lsls	r3, r1, #30
24003f30:	d50f      	bpl.n	24003f52 <FLASH_Erase_Sector+0x42>
24003f32:	4908      	ldr	r1, [pc, #32]	; (24003f54 <FLASH_Erase_Sector+0x44>)
24003f34:	f8d1 310c 	ldr.w	r3, [r1, #268]	; 0x10c
24003f38:	f423 63e6 	bic.w	r3, r3, #1840	; 0x730
24003f3c:	f8c1 310c 	str.w	r3, [r1, #268]	; 0x10c
24003f40:	f8d1 310c 	ldr.w	r3, [r1, #268]	; 0x10c
24003f44:	ea43 2000 	orr.w	r0, r3, r0, lsl #8
24003f48:	4302      	orrs	r2, r0
24003f4a:	f042 0284 	orr.w	r2, r2, #132	; 0x84
24003f4e:	f8c1 210c 	str.w	r2, [r1, #268]	; 0x10c
24003f52:	bd10      	pop	{r4, pc}
24003f54:	52002000 	.word	0x52002000

24003f58 <HAL_FLASHEx_Erase>:
24003f58:	e92d 47f0 	stmdb	sp!, {r4, r5, r6, r7, r8, r9, sl, lr}
24003f5c:	4e46      	ldr	r6, [pc, #280]	; (24004078 <HAL_FLASHEx_Erase+0x120>)
24003f5e:	4605      	mov	r5, r0
24003f60:	460f      	mov	r7, r1
24003f62:	7d33      	ldrb	r3, [r6, #20]
24003f64:	2b01      	cmp	r3, #1
24003f66:	f000 8084 	beq.w	24004072 <HAL_FLASHEx_Erase+0x11a>
24003f6a:	2101      	movs	r1, #1
24003f6c:	2300      	movs	r3, #0
24003f6e:	7531      	strb	r1, [r6, #20]
24003f70:	6844      	ldr	r4, [r0, #4]
24003f72:	61b3      	str	r3, [r6, #24]
24003f74:	400c      	ands	r4, r1
24003f76:	d006      	beq.n	24003f86 <HAL_FLASHEx_Erase+0x2e>
24003f78:	f24c 3050 	movw	r0, #50000	; 0xc350
24003f7c:	f7ff fb72 	bl	24003664 <FLASH_WaitForLastOperation>
24003f80:	1e04      	subs	r4, r0, #0
24003f82:	bf18      	it	ne
24003f84:	2401      	movne	r4, #1
24003f86:	686b      	ldr	r3, [r5, #4]
24003f88:	0798      	lsls	r0, r3, #30
24003f8a:	d406      	bmi.n	24003f9a <HAL_FLASHEx_Erase+0x42>
24003f8c:	b16c      	cbz	r4, 24003faa <HAL_FLASHEx_Erase+0x52>
24003f8e:	2401      	movs	r4, #1
24003f90:	2300      	movs	r3, #0
24003f92:	7533      	strb	r3, [r6, #20]
24003f94:	4620      	mov	r0, r4
24003f96:	e8bd 87f0 	ldmia.w	sp!, {r4, r5, r6, r7, r8, r9, sl, pc}
24003f9a:	2102      	movs	r1, #2
24003f9c:	f24c 3050 	movw	r0, #50000	; 0xc350
24003fa0:	f7ff fb60 	bl	24003664 <FLASH_WaitForLastOperation>
24003fa4:	2800      	cmp	r0, #0
24003fa6:	d0f1      	beq.n	24003f8c <HAL_FLASHEx_Erase+0x34>
24003fa8:	e7f1      	b.n	24003f8e <HAL_FLASHEx_Erase+0x36>
24003faa:	f8d5 8000 	ldr.w	r8, [r5]
24003fae:	f1b8 0f01 	cmp.w	r8, #1
24003fb2:	d126      	bne.n	24004002 <HAL_FLASHEx_Erase+0xaa>
24003fb4:	6869      	ldr	r1, [r5, #4]
24003fb6:	6928      	ldr	r0, [r5, #16]
24003fb8:	f7ff fcf0 	bl	2400399c <FLASH_MassErase>
24003fbc:	686b      	ldr	r3, [r5, #4]
24003fbe:	07d9      	lsls	r1, r3, #31
24003fc0:	d50c      	bpl.n	24003fdc <HAL_FLASHEx_Erase+0x84>
24003fc2:	4641      	mov	r1, r8
24003fc4:	f24c 3050 	movw	r0, #50000	; 0xc350
24003fc8:	f7ff fb4c 	bl	24003664 <FLASH_WaitForLastOperation>
24003fcc:	4a2b      	ldr	r2, [pc, #172]	; (2400407c <HAL_FLASHEx_Erase+0x124>)
24003fce:	1e04      	subs	r4, r0, #0
24003fd0:	68d3      	ldr	r3, [r2, #12]
24003fd2:	bf18      	it	ne
24003fd4:	2401      	movne	r4, #1
24003fd6:	f023 0308 	bic.w	r3, r3, #8
24003fda:	60d3      	str	r3, [r2, #12]
24003fdc:	686b      	ldr	r3, [r5, #4]
24003fde:	079a      	lsls	r2, r3, #30
24003fe0:	d5d6      	bpl.n	24003f90 <HAL_FLASHEx_Erase+0x38>
24003fe2:	2102      	movs	r1, #2
24003fe4:	f24c 3050 	movw	r0, #50000	; 0xc350
24003fe8:	f7ff fb3c 	bl	24003664 <FLASH_WaitForLastOperation>
24003fec:	4a23      	ldr	r2, [pc, #140]	; (2400407c <HAL_FLASHEx_Erase+0x124>)
24003fee:	2800      	cmp	r0, #0
24003ff0:	f8d2 310c 	ldr.w	r3, [r2, #268]	; 0x10c
24003ff4:	bf18      	it	ne
24003ff6:	2401      	movne	r4, #1
24003ff8:	f023 0308 	bic.w	r3, r3, #8
24003ffc:	f8c2 310c 	str.w	r3, [r2, #268]	; 0x10c
24004000:	e7c6      	b.n	24003f90 <HAL_FLASHEx_Erase+0x38>
24004002:	f04f 33ff 	mov.w	r3, #4294967295
24004006:	f8df 8074 	ldr.w	r8, [pc, #116]	; 2400407c <HAL_FLASHEx_Erase+0x124>
2400400a:	f8df 9074 	ldr.w	r9, [pc, #116]	; 24004080 <HAL_FLASHEx_Erase+0x128>
2400400e:	603b      	str	r3, [r7, #0]
24004010:	f8d5 a008 	ldr.w	sl, [r5, #8]
24004014:	e9d5 2302 	ldrd	r2, r3, [r5, #8]
24004018:	4413      	add	r3, r2
2400401a:	4553      	cmp	r3, sl
2400401c:	d9b8      	bls.n	24003f90 <HAL_FLASHEx_Erase+0x38>
2400401e:	4650      	mov	r0, sl
24004020:	692a      	ldr	r2, [r5, #16]
24004022:	6869      	ldr	r1, [r5, #4]
24004024:	f7ff ff74 	bl	24003f10 <FLASH_Erase_Sector>
24004028:	6868      	ldr	r0, [r5, #4]
2400402a:	f010 0001 	ands.w	r0, r0, #1
2400402e:	d00a      	beq.n	24004046 <HAL_FLASHEx_Erase+0xee>
24004030:	2101      	movs	r1, #1
24004032:	f24c 3050 	movw	r0, #50000	; 0xc350
24004036:	f7ff fb15 	bl	24003664 <FLASH_WaitForLastOperation>
2400403a:	f8d8 300c 	ldr.w	r3, [r8, #12]
2400403e:	ea03 0309 	and.w	r3, r3, r9
24004042:	f8c8 300c 	str.w	r3, [r8, #12]
24004046:	686b      	ldr	r3, [r5, #4]
24004048:	079b      	lsls	r3, r3, #30
2400404a:	d50a      	bpl.n	24004062 <HAL_FLASHEx_Erase+0x10a>
2400404c:	2102      	movs	r1, #2
2400404e:	f24c 3050 	movw	r0, #50000	; 0xc350
24004052:	f7ff fb07 	bl	24003664 <FLASH_WaitForLastOperation>
24004056:	f8d8 310c 	ldr.w	r3, [r8, #268]	; 0x10c
2400405a:	ea03 0309 	and.w	r3, r3, r9
2400405e:	f8c8 310c 	str.w	r3, [r8, #268]	; 0x10c
24004062:	b118      	cbz	r0, 2400406c <HAL_FLASHEx_Erase+0x114>
24004064:	4604      	mov	r4, r0
24004066:	f8c7 a000 	str.w	sl, [r7]
2400406a:	e791      	b.n	24003f90 <HAL_FLASHEx_Erase+0x38>
2400406c:	f10a 0a01 	add.w	sl, sl, #1
24004070:	e7d0      	b.n	24004014 <HAL_FLASHEx_Erase+0xbc>
24004072:	2402      	movs	r4, #2
24004074:	e78e      	b.n	24003f94 <HAL_FLASHEx_Erase+0x3c>
24004076:	bf00      	nop
24004078:	24000544 	.word	0x24000544
2400407c:	52002000 	.word	0x52002000
24004080:	fffff8fb 	.word	0xfffff8fb

24004084 <HAL_FLASHEx_Erase_IT>:
24004084:	b570      	push	{r4, r5, r6, lr}
24004086:	4d2a      	ldr	r5, [pc, #168]	; (24004130 <HAL_FLASHEx_Erase_IT+0xac>)
24004088:	4606      	mov	r6, r0
2400408a:	7d2b      	ldrb	r3, [r5, #20]
2400408c:	2b01      	cmp	r3, #1
2400408e:	d04d      	beq.n	2400412c <HAL_FLASHEx_Erase_IT+0xa8>
24004090:	2101      	movs	r1, #1
24004092:	2300      	movs	r3, #0
24004094:	7529      	strb	r1, [r5, #20]
24004096:	6844      	ldr	r4, [r0, #4]
24004098:	61ab      	str	r3, [r5, #24]
2400409a:	400c      	ands	r4, r1
2400409c:	d006      	beq.n	240040ac <HAL_FLASHEx_Erase_IT+0x28>
2400409e:	f24c 3050 	movw	r0, #50000	; 0xc350
240040a2:	f7ff fadf 	bl	24003664 <FLASH_WaitForLastOperation>
240040a6:	1e04      	subs	r4, r0, #0
240040a8:	bf18      	it	ne
240040aa:	2401      	movne	r4, #1
240040ac:	6873      	ldr	r3, [r6, #4]
240040ae:	0799      	lsls	r1, r3, #30
240040b0:	d41c      	bmi.n	240040ec <HAL_FLASHEx_Erase_IT+0x68>
240040b2:	bb14      	cbnz	r4, 240040fa <HAL_FLASHEx_Erase_IT+0x76>
240040b4:	6871      	ldr	r1, [r6, #4]
240040b6:	07ca      	lsls	r2, r1, #31
240040b8:	d504      	bpl.n	240040c4 <HAL_FLASHEx_Erase_IT+0x40>
240040ba:	4a1e      	ldr	r2, [pc, #120]	; (24004134 <HAL_FLASHEx_Erase_IT+0xb0>)
240040bc:	68d3      	ldr	r3, [r2, #12]
240040be:	f443 03de 	orr.w	r3, r3, #7274496	; 0x6f0000
240040c2:	60d3      	str	r3, [r2, #12]
240040c4:	078b      	lsls	r3, r1, #30
240040c6:	d506      	bpl.n	240040d6 <HAL_FLASHEx_Erase_IT+0x52>
240040c8:	4a1a      	ldr	r2, [pc, #104]	; (24004134 <HAL_FLASHEx_Erase_IT+0xb0>)
240040ca:	f8d2 310c 	ldr.w	r3, [r2, #268]	; 0x10c
240040ce:	f443 03de 	orr.w	r3, r3, #7274496	; 0x6f0000
240040d2:	f8c2 310c 	str.w	r3, [r2, #268]	; 0x10c
240040d6:	6833      	ldr	r3, [r6, #0]
240040d8:	2b01      	cmp	r3, #1
240040da:	d118      	bne.n	2400410e <HAL_FLASHEx_Erase_IT+0x8a>
240040dc:	2901      	cmp	r1, #1
240040de:	d111      	bne.n	24004104 <HAL_FLASHEx_Erase_IT+0x80>
240040e0:	2302      	movs	r3, #2
240040e2:	702b      	strb	r3, [r5, #0]
240040e4:	6930      	ldr	r0, [r6, #16]
240040e6:	f7ff fc59 	bl	2400399c <FLASH_MassErase>
240040ea:	e009      	b.n	24004100 <HAL_FLASHEx_Erase_IT+0x7c>
240040ec:	2102      	movs	r1, #2
240040ee:	f24c 3050 	movw	r0, #50000	; 0xc350
240040f2:	f7ff fab7 	bl	24003664 <FLASH_WaitForLastOperation>
240040f6:	2800      	cmp	r0, #0
240040f8:	d0db      	beq.n	240040b2 <HAL_FLASHEx_Erase_IT+0x2e>
240040fa:	2300      	movs	r3, #0
240040fc:	2401      	movs	r4, #1
240040fe:	752b      	strb	r3, [r5, #20]
24004100:	4620      	mov	r0, r4
24004102:	bd70      	pop	{r4, r5, r6, pc}
24004104:	2902      	cmp	r1, #2
24004106:	bf0c      	ite	eq
24004108:	2305      	moveq	r3, #5
2400410a:	2307      	movne	r3, #7
2400410c:	e7e9      	b.n	240040e2 <HAL_FLASHEx_Erase_IT+0x5e>
2400410e:	2901      	cmp	r1, #1
24004110:	d109      	bne.n	24004126 <HAL_FLASHEx_Erase_IT+0xa2>
24004112:	7029      	strb	r1, [r5, #0]
24004114:	68f3      	ldr	r3, [r6, #12]
24004116:	68b0      	ldr	r0, [r6, #8]
24004118:	6932      	ldr	r2, [r6, #16]
2400411a:	606b      	str	r3, [r5, #4]
2400411c:	60e8      	str	r0, [r5, #12]
2400411e:	60aa      	str	r2, [r5, #8]
24004120:	f7ff fef6 	bl	24003f10 <FLASH_Erase_Sector>
24004124:	e7ec      	b.n	24004100 <HAL_FLASHEx_Erase_IT+0x7c>
24004126:	2304      	movs	r3, #4
24004128:	702b      	strb	r3, [r5, #0]
2400412a:	e7f3      	b.n	24004114 <HAL_FLASHEx_Erase_IT+0x90>
2400412c:	2402      	movs	r4, #2
2400412e:	e7e7      	b.n	24004100 <HAL_FLASHEx_Erase_IT+0x7c>
24004130:	24000544 	.word	0x24000544
24004134:	52002000 	.word	0x52002000

24004138 <HAL_GPIO_Init>:
24004138:	e92d 4ff7 	stmdb	sp!, {r0, r1, r2, r4, r5, r6, r7, r8, r9, sl, fp, lr}
2400413c:	2300      	movs	r3, #0
2400413e:	f8df 81c4 	ldr.w	r8, [pc, #452]	; 24004304 <HAL_GPIO_Init+0x1cc>
24004142:	f04f 44b0 	mov.w	r4, #1476395008	; 0x58000000
24004146:	f8df 91c0 	ldr.w	r9, [pc, #448]	; 24004308 <HAL_GPIO_Init+0x1d0>
2400414a:	680a      	ldr	r2, [r1, #0]
2400414c:	fa32 f503 	lsrs.w	r5, r2, r3
24004150:	d102      	bne.n	24004158 <HAL_GPIO_Init+0x20>
24004152:	b003      	add	sp, #12
24004154:	e8bd 8ff0 	ldmia.w	sp!, {r4, r5, r6, r7, r8, r9, sl, fp, pc}
24004158:	f04f 0c01 	mov.w	ip, #1
2400415c:	fa0c fc03 	lsl.w	ip, ip, r3
24004160:	ea1c 0202 	ands.w	r2, ip, r2
24004164:	f000 80b7 	beq.w	240042d6 <HAL_GPIO_Init+0x19e>
24004168:	684d      	ldr	r5, [r1, #4]
2400416a:	ea4f 0e43 	mov.w	lr, r3, lsl #1
2400416e:	2603      	movs	r6, #3
24004170:	f025 0a10 	bic.w	sl, r5, #16
24004174:	fa06 f60e 	lsl.w	r6, r6, lr
24004178:	f10a 37ff 	add.w	r7, sl, #4294967295
2400417c:	43f6      	mvns	r6, r6
2400417e:	2f01      	cmp	r7, #1
24004180:	d811      	bhi.n	240041a6 <HAL_GPIO_Init+0x6e>
24004182:	6887      	ldr	r7, [r0, #8]
24004184:	ea07 0b06 	and.w	fp, r7, r6
24004188:	68cf      	ldr	r7, [r1, #12]
2400418a:	fa07 f70e 	lsl.w	r7, r7, lr
2400418e:	ea47 070b 	orr.w	r7, r7, fp
24004192:	6087      	str	r7, [r0, #8]
24004194:	6847      	ldr	r7, [r0, #4]
24004196:	ea27 0c0c 	bic.w	ip, r7, ip
2400419a:	f3c5 1700 	ubfx	r7, r5, #4, #1
2400419e:	409f      	lsls	r7, r3
240041a0:	ea47 070c 	orr.w	r7, r7, ip
240041a4:	6047      	str	r7, [r0, #4]
240041a6:	68c7      	ldr	r7, [r0, #12]
240041a8:	f1ba 0f02 	cmp.w	sl, #2
240041ac:	ea07 0c06 	and.w	ip, r7, r6
240041b0:	688f      	ldr	r7, [r1, #8]
240041b2:	fa07 f70e 	lsl.w	r7, r7, lr
240041b6:	ea47 070c 	orr.w	r7, r7, ip
240041ba:	60c7      	str	r7, [r0, #12]
240041bc:	d116      	bne.n	240041ec <HAL_GPIO_Init+0xb4>
240041be:	ea4f 0ad3 	mov.w	sl, r3, lsr #3
240041c2:	f003 0b07 	and.w	fp, r3, #7
240041c6:	f04f 0c0f 	mov.w	ip, #15
240041ca:	eb00 0a8a 	add.w	sl, r0, sl, lsl #2
240041ce:	ea4f 0b8b 	mov.w	fp, fp, lsl #2
240041d2:	f8da 7020 	ldr.w	r7, [sl, #32]
240041d6:	fa0c fc0b 	lsl.w	ip, ip, fp
240041da:	ea27 0c0c 	bic.w	ip, r7, ip
240041de:	690f      	ldr	r7, [r1, #16]
240041e0:	fa07 f70b 	lsl.w	r7, r7, fp
240041e4:	ea47 070c 	orr.w	r7, r7, ip
240041e8:	f8ca 7020 	str.w	r7, [sl, #32]
240041ec:	6807      	ldr	r7, [r0, #0]
240041ee:	403e      	ands	r6, r7
240041f0:	f005 0703 	and.w	r7, r5, #3
240041f4:	fa07 f70e 	lsl.w	r7, r7, lr
240041f8:	433e      	orrs	r6, r7
240041fa:	6006      	str	r6, [r0, #0]
240041fc:	00ee      	lsls	r6, r5, #3
240041fe:	d56a      	bpl.n	240042d6 <HAL_GPIO_Init+0x19e>
24004200:	f8d8 60f4 	ldr.w	r6, [r8, #244]	; 0xf4
24004204:	f023 0703 	bic.w	r7, r3, #3
24004208:	f003 0c03 	and.w	ip, r3, #3
2400420c:	f04f 0e0f 	mov.w	lr, #15
24004210:	f046 0602 	orr.w	r6, r6, #2
24004214:	f107 47b0 	add.w	r7, r7, #1476395008	; 0x58000000
24004218:	ea4f 0c8c 	mov.w	ip, ip, lsl #2
2400421c:	f8c8 60f4 	str.w	r6, [r8, #244]	; 0xf4
24004220:	f507 6780 	add.w	r7, r7, #1024	; 0x400
24004224:	f8d8 60f4 	ldr.w	r6, [r8, #244]	; 0xf4
24004228:	f006 0602 	and.w	r6, r6, #2
2400422c:	9601      	str	r6, [sp, #4]
2400422e:	9e01      	ldr	r6, [sp, #4]
24004230:	fa0e f60c 	lsl.w	r6, lr, ip
24004234:	f8d7 a008 	ldr.w	sl, [r7, #8]
24004238:	ea2a 0e06 	bic.w	lr, sl, r6
2400423c:	4e30      	ldr	r6, [pc, #192]	; (24004300 <HAL_GPIO_Init+0x1c8>)
2400423e:	42b0      	cmp	r0, r6
24004240:	d04b      	beq.n	240042da <HAL_GPIO_Init+0x1a2>
24004242:	f506 6680 	add.w	r6, r6, #1024	; 0x400
24004246:	42b0      	cmp	r0, r6
24004248:	d049      	beq.n	240042de <HAL_GPIO_Init+0x1a6>
2400424a:	f506 6680 	add.w	r6, r6, #1024	; 0x400
2400424e:	42b0      	cmp	r0, r6
24004250:	d047      	beq.n	240042e2 <HAL_GPIO_Init+0x1aa>
24004252:	f506 6680 	add.w	r6, r6, #1024	; 0x400
24004256:	42b0      	cmp	r0, r6
24004258:	d045      	beq.n	240042e6 <HAL_GPIO_Init+0x1ae>
2400425a:	f506 6680 	add.w	r6, r6, #1024	; 0x400
2400425e:	42b0      	cmp	r0, r6
24004260:	d043      	beq.n	240042ea <HAL_GPIO_Init+0x1b2>
24004262:	4548      	cmp	r0, r9
24004264:	d043      	beq.n	240042ee <HAL_GPIO_Init+0x1b6>
24004266:	f506 6600 	add.w	r6, r6, #2048	; 0x800
2400426a:	42b0      	cmp	r0, r6
2400426c:	d041      	beq.n	240042f2 <HAL_GPIO_Init+0x1ba>
2400426e:	f506 6680 	add.w	r6, r6, #1024	; 0x400
24004272:	42b0      	cmp	r0, r6
24004274:	d03f      	beq.n	240042f6 <HAL_GPIO_Init+0x1be>
24004276:	f506 6680 	add.w	r6, r6, #1024	; 0x400
2400427a:	42b0      	cmp	r0, r6
2400427c:	d03d      	beq.n	240042fa <HAL_GPIO_Init+0x1c2>
2400427e:	f506 6680 	add.w	r6, r6, #1024	; 0x400
24004282:	42b0      	cmp	r0, r6
24004284:	bf0c      	ite	eq
24004286:	2609      	moveq	r6, #9
24004288:	260a      	movne	r6, #10
2400428a:	fa06 f60c 	lsl.w	r6, r6, ip
2400428e:	f415 3f80 	tst.w	r5, #65536	; 0x10000
24004292:	ea46 060e 	orr.w	r6, r6, lr
24004296:	60be      	str	r6, [r7, #8]
24004298:	ea6f 0702 	mvn.w	r7, r2
2400429c:	f8d4 6080 	ldr.w	r6, [r4, #128]	; 0x80
240042a0:	bf0c      	ite	eq
240042a2:	403e      	andeq	r6, r7
240042a4:	4316      	orrne	r6, r2
240042a6:	f415 3f00 	tst.w	r5, #131072	; 0x20000
240042aa:	f8c4 6080 	str.w	r6, [r4, #128]	; 0x80
240042ae:	f8d4 6084 	ldr.w	r6, [r4, #132]	; 0x84
240042b2:	bf0c      	ite	eq
240042b4:	403e      	andeq	r6, r7
240042b6:	4316      	orrne	r6, r2
240042b8:	f415 1f80 	tst.w	r5, #1048576	; 0x100000
240042bc:	f8c4 6084 	str.w	r6, [r4, #132]	; 0x84
240042c0:	6826      	ldr	r6, [r4, #0]
240042c2:	bf0c      	ite	eq
240042c4:	403e      	andeq	r6, r7
240042c6:	4316      	orrne	r6, r2
240042c8:	02ad      	lsls	r5, r5, #10
240042ca:	6026      	str	r6, [r4, #0]
240042cc:	6866      	ldr	r6, [r4, #4]
240042ce:	bf54      	ite	pl
240042d0:	403e      	andpl	r6, r7
240042d2:	4316      	orrmi	r6, r2
240042d4:	6066      	str	r6, [r4, #4]
240042d6:	3301      	adds	r3, #1
240042d8:	e737      	b.n	2400414a <HAL_GPIO_Init+0x12>
240042da:	2600      	movs	r6, #0
240042dc:	e7d5      	b.n	2400428a <HAL_GPIO_Init+0x152>
240042de:	2601      	movs	r6, #1
240042e0:	e7d3      	b.n	2400428a <HAL_GPIO_Init+0x152>
240042e2:	2602      	movs	r6, #2
240042e4:	e7d1      	b.n	2400428a <HAL_GPIO_Init+0x152>
240042e6:	2603      	movs	r6, #3
240042e8:	e7cf      	b.n	2400428a <HAL_GPIO_Init+0x152>
240042ea:	2604      	movs	r6, #4
240042ec:	e7cd      	b.n	2400428a <HAL_GPIO_Init+0x152>
240042ee:	2605      	movs	r6, #5
240042f0:	e7cb      	b.n	2400428a <HAL_GPIO_Init+0x152>
240042f2:	2606      	movs	r6, #6
240042f4:	e7c9      	b.n	2400428a <HAL_GPIO_Init+0x152>
240042f6:	2607      	movs	r6, #7
240042f8:	e7c7      	b.n	2400428a <HAL_GPIO_Init+0x152>
240042fa:	2608      	movs	r6, #8
240042fc:	e7c5      	b.n	2400428a <HAL_GPIO_Init+0x152>
240042fe:	bf00      	nop
24004300:	58020000 	.word	0x58020000
24004304:	58024400 	.word	0x58024400
24004308:	58021400 	.word	0x58021400

2400430c <HAL_GPIO_DeInit>:
2400430c:	e92d 4ff0 	stmdb	sp!, {r4, r5, r6, r7, r8, r9, sl, fp, lr}
24004310:	2200      	movs	r2, #0
24004312:	f8df 812c 	ldr.w	r8, [pc, #300]	; 24004440 <HAL_GPIO_DeInit+0x134>
24004316:	f8df 912c 	ldr.w	r9, [pc, #300]	; 24004444 <HAL_GPIO_DeInit+0x138>
2400431a:	f8df a12c 	ldr.w	sl, [pc, #300]	; 24004448 <HAL_GPIO_DeInit+0x13c>
2400431e:	f8df b12c 	ldr.w	fp, [pc, #300]	; 2400444c <HAL_GPIO_DeInit+0x140>
24004322:	fa31 f302 	lsrs.w	r3, r1, r2
24004326:	d101      	bne.n	2400432c <HAL_GPIO_DeInit+0x20>
24004328:	e8bd 8ff0 	ldmia.w	sp!, {r4, r5, r6, r7, r8, r9, sl, fp, pc}
2400432c:	2301      	movs	r3, #1
2400432e:	fa03 fc02 	lsl.w	ip, r3, r2
24004332:	ea1c 0601 	ands.w	r6, ip, r1
24004336:	d06d      	beq.n	24004414 <HAL_GPIO_DeInit+0x108>
24004338:	f022 0403 	bic.w	r4, r2, #3
2400433c:	f002 0703 	and.w	r7, r2, #3
24004340:	250f      	movs	r5, #15
24004342:	4b3e      	ldr	r3, [pc, #248]	; (2400443c <HAL_GPIO_DeInit+0x130>)
24004344:	f104 44b0 	add.w	r4, r4, #1476395008	; 0x58000000
24004348:	00bf      	lsls	r7, r7, #2
2400434a:	4298      	cmp	r0, r3
2400434c:	fa05 f507 	lsl.w	r5, r5, r7
24004350:	f8d4 e408 	ldr.w	lr, [r4, #1032]	; 0x408
24004354:	f504 6480 	add.w	r4, r4, #1024	; 0x400
24004358:	ea05 0e0e 	and.w	lr, r5, lr
2400435c:	d05c      	beq.n	24004418 <HAL_GPIO_DeInit+0x10c>
2400435e:	f503 6380 	add.w	r3, r3, #1024	; 0x400
24004362:	4298      	cmp	r0, r3
24004364:	d05a      	beq.n	2400441c <HAL_GPIO_DeInit+0x110>
24004366:	f503 6380 	add.w	r3, r3, #1024	; 0x400
2400436a:	4298      	cmp	r0, r3
2400436c:	d058      	beq.n	24004420 <HAL_GPIO_DeInit+0x114>
2400436e:	f503 6380 	add.w	r3, r3, #1024	; 0x400
24004372:	4298      	cmp	r0, r3
24004374:	d056      	beq.n	24004424 <HAL_GPIO_DeInit+0x118>
24004376:	f503 6380 	add.w	r3, r3, #1024	; 0x400
2400437a:	4298      	cmp	r0, r3
2400437c:	d054      	beq.n	24004428 <HAL_GPIO_DeInit+0x11c>
2400437e:	4540      	cmp	r0, r8
24004380:	d054      	beq.n	2400442c <HAL_GPIO_DeInit+0x120>
24004382:	4548      	cmp	r0, r9
24004384:	d054      	beq.n	24004430 <HAL_GPIO_DeInit+0x124>
24004386:	4550      	cmp	r0, sl
24004388:	d054      	beq.n	24004434 <HAL_GPIO_DeInit+0x128>
2400438a:	4558      	cmp	r0, fp
2400438c:	d054      	beq.n	24004438 <HAL_GPIO_DeInit+0x12c>
2400438e:	f503 53a0 	add.w	r3, r3, #5120	; 0x1400
24004392:	4298      	cmp	r0, r3
24004394:	bf0c      	ite	eq
24004396:	2309      	moveq	r3, #9
24004398:	230a      	movne	r3, #10
2400439a:	40bb      	lsls	r3, r7
2400439c:	4573      	cmp	r3, lr
2400439e:	d119      	bne.n	240043d4 <HAL_GPIO_DeInit+0xc8>
240043a0:	f04f 43b0 	mov.w	r3, #1476395008	; 0x58000000
240043a4:	f8d3 7080 	ldr.w	r7, [r3, #128]	; 0x80
240043a8:	ea27 0706 	bic.w	r7, r7, r6
240043ac:	f8c3 7080 	str.w	r7, [r3, #128]	; 0x80
240043b0:	f8d3 7084 	ldr.w	r7, [r3, #132]	; 0x84
240043b4:	ea27 0706 	bic.w	r7, r7, r6
240043b8:	f8c3 7084 	str.w	r7, [r3, #132]	; 0x84
240043bc:	681f      	ldr	r7, [r3, #0]
240043be:	ea27 0706 	bic.w	r7, r7, r6
240043c2:	601f      	str	r7, [r3, #0]
240043c4:	685f      	ldr	r7, [r3, #4]
240043c6:	ea27 0606 	bic.w	r6, r7, r6
240043ca:	605e      	str	r6, [r3, #4]
240043cc:	68a3      	ldr	r3, [r4, #8]
240043ce:	ea23 0305 	bic.w	r3, r3, r5
240043d2:	60a3      	str	r3, [r4, #8]
240043d4:	2503      	movs	r5, #3
240043d6:	0053      	lsls	r3, r2, #1
240043d8:	6804      	ldr	r4, [r0, #0]
240043da:	f002 0707 	and.w	r7, r2, #7
240043de:	fa05 f303 	lsl.w	r3, r5, r3
240043e2:	260f      	movs	r6, #15
240043e4:	00bf      	lsls	r7, r7, #2
240043e6:	431c      	orrs	r4, r3
240043e8:	40be      	lsls	r6, r7
240043ea:	6004      	str	r4, [r0, #0]
240043ec:	fa22 f405 	lsr.w	r4, r2, r5
240043f0:	eb00 0484 	add.w	r4, r0, r4, lsl #2
240043f4:	6a25      	ldr	r5, [r4, #32]
240043f6:	ea25 0606 	bic.w	r6, r5, r6
240043fa:	6226      	str	r6, [r4, #32]
240043fc:	68c4      	ldr	r4, [r0, #12]
240043fe:	ea24 0403 	bic.w	r4, r4, r3
24004402:	60c4      	str	r4, [r0, #12]
24004404:	6844      	ldr	r4, [r0, #4]
24004406:	ea24 040c 	bic.w	r4, r4, ip
2400440a:	6044      	str	r4, [r0, #4]
2400440c:	6884      	ldr	r4, [r0, #8]
2400440e:	ea24 0303 	bic.w	r3, r4, r3
24004412:	6083      	str	r3, [r0, #8]
24004414:	3201      	adds	r2, #1
24004416:	e784      	b.n	24004322 <HAL_GPIO_DeInit+0x16>
24004418:	2300      	movs	r3, #0
2400441a:	e7be      	b.n	2400439a <HAL_GPIO_DeInit+0x8e>
2400441c:	2301      	movs	r3, #1
2400441e:	e7bc      	b.n	2400439a <HAL_GPIO_DeInit+0x8e>
24004420:	2302      	movs	r3, #2
24004422:	e7ba      	b.n	2400439a <HAL_GPIO_DeInit+0x8e>
24004424:	2303      	movs	r3, #3
24004426:	e7b8      	b.n	2400439a <HAL_GPIO_DeInit+0x8e>
24004428:	2304      	movs	r3, #4
2400442a:	e7b6      	b.n	2400439a <HAL_GPIO_DeInit+0x8e>
2400442c:	2305      	movs	r3, #5
2400442e:	e7b4      	b.n	2400439a <HAL_GPIO_DeInit+0x8e>
24004430:	2306      	movs	r3, #6
24004432:	e7b2      	b.n	2400439a <HAL_GPIO_DeInit+0x8e>
24004434:	2307      	movs	r3, #7
24004436:	e7b0      	b.n	2400439a <HAL_GPIO_DeInit+0x8e>
24004438:	2308      	movs	r3, #8
2400443a:	e7ae      	b.n	2400439a <HAL_GPIO_DeInit+0x8e>
2400443c:	58020000 	.word	0x58020000
24004440:	58021400 	.word	0x58021400
24004444:	58021800 	.word	0x58021800
24004448:	58021c00 	.word	0x58021c00
2400444c:	58022000 	.word	0x58022000

24004450 <HAL_GPIO_ReadPin>:
24004450:	6903      	ldr	r3, [r0, #16]
24004452:	4219      	tst	r1, r3
24004454:	bf14      	ite	ne
24004456:	2001      	movne	r0, #1
24004458:	2000      	moveq	r0, #0
2400445a:	4770      	bx	lr

2400445c <HAL_GPIO_WritePin>:
2400445c:	b10a      	cbz	r2, 24004462 <HAL_GPIO_WritePin+0x6>
2400445e:	6181      	str	r1, [r0, #24]
24004460:	4770      	bx	lr
24004462:	0409      	lsls	r1, r1, #16
24004464:	e7fb      	b.n	2400445e <HAL_GPIO_WritePin+0x2>

24004466 <HAL_GPIO_TogglePin>:
24004466:	6943      	ldr	r3, [r0, #20]
24004468:	ea31 0303 	bics.w	r3, r1, r3
2400446c:	bf08      	it	eq
2400446e:	0409      	lsleq	r1, r1, #16
24004470:	6181      	str	r1, [r0, #24]
24004472:	4770      	bx	lr

24004474 <HAL_GPIO_LockPin>:
24004474:	b082      	sub	sp, #8
24004476:	f44f 3380 	mov.w	r3, #65536	; 0x10000
2400447a:	9301      	str	r3, [sp, #4]
2400447c:	9b01      	ldr	r3, [sp, #4]
2400447e:	430b      	orrs	r3, r1
24004480:	9301      	str	r3, [sp, #4]
24004482:	9b01      	ldr	r3, [sp, #4]
24004484:	61c3      	str	r3, [r0, #28]
24004486:	61c1      	str	r1, [r0, #28]
24004488:	9b01      	ldr	r3, [sp, #4]
2400448a:	61c3      	str	r3, [r0, #28]
2400448c:	69c3      	ldr	r3, [r0, #28]
2400448e:	9301      	str	r3, [sp, #4]
24004490:	69c0      	ldr	r0, [r0, #28]
24004492:	f480 3080 	eor.w	r0, r0, #65536	; 0x10000
24004496:	f3c0 4000 	ubfx	r0, r0, #16, #1
2400449a:	b002      	add	sp, #8
2400449c:	4770      	bx	lr

2400449e <HAL_GPIO_EXTI_Callback>:
2400449e:	4770      	bx	lr

240044a0 <HAL_GPIO_EXTI_IRQHandler>:
240044a0:	f04f 42b0 	mov.w	r2, #1476395008	; 0x58000000
240044a4:	f8d2 1088 	ldr.w	r1, [r2, #136]	; 0x88
240044a8:	4201      	tst	r1, r0
240044aa:	b508      	push	{r3, lr}
240044ac:	d003      	beq.n	240044b6 <HAL_GPIO_EXTI_IRQHandler+0x16>
240044ae:	f8c2 0088 	str.w	r0, [r2, #136]	; 0x88
240044b2:	f7ff fff4 	bl	2400449e <HAL_GPIO_EXTI_Callback>
240044b6:	bd08      	pop	{r3, pc}

240044b8 <HAL_HSEM_Take>:
240044b8:	f041 4100 	orr.w	r1, r1, #2147483648	; 0x80000000
240044bc:	4b05      	ldr	r3, [pc, #20]	; (240044d4 <HAL_HSEM_Take+0x1c>)
240044be:	f441 7140 	orr.w	r1, r1, #768	; 0x300
240044c2:	f843 1020 	str.w	r1, [r3, r0, lsl #2]
240044c6:	f853 0020 	ldr.w	r0, [r3, r0, lsl #2]
240044ca:	1a08      	subs	r0, r1, r0
240044cc:	bf18      	it	ne
240044ce:	2001      	movne	r0, #1
240044d0:	4770      	bx	lr
240044d2:	bf00      	nop
240044d4:	58026400 	.word	0x58026400

240044d8 <HAL_HSEM_FastTake>:
240044d8:	4b04      	ldr	r3, [pc, #16]	; (240044ec <HAL_HSEM_FastTake+0x14>)
240044da:	3020      	adds	r0, #32
240044dc:	f853 0020 	ldr.w	r0, [r3, r0, lsl #2]
240044e0:	4b03      	ldr	r3, [pc, #12]	; (240044f0 <HAL_HSEM_FastTake+0x18>)
240044e2:	1ac0      	subs	r0, r0, r3
240044e4:	bf18      	it	ne
240044e6:	2001      	movne	r0, #1
240044e8:	4770      	bx	lr
240044ea:	bf00      	nop
240044ec:	58026400 	.word	0x58026400
240044f0:	80000300 	.word	0x80000300

240044f4 <HAL_HSEM_IsSemTaken>:
240044f4:	4b02      	ldr	r3, [pc, #8]	; (24004500 <HAL_HSEM_IsSemTaken+0xc>)
240044f6:	f853 0020 	ldr.w	r0, [r3, r0, lsl #2]
240044fa:	0fc0      	lsrs	r0, r0, #31
240044fc:	4770      	bx	lr
240044fe:	bf00      	nop
24004500:	58026400 	.word	0x58026400

24004504 <HAL_HSEM_Release>:
24004504:	f441 7140 	orr.w	r1, r1, #768	; 0x300
24004508:	4b01      	ldr	r3, [pc, #4]	; (24004510 <HAL_HSEM_Release+0xc>)
2400450a:	f843 1020 	str.w	r1, [r3, r0, lsl #2]
2400450e:	4770      	bx	lr
24004510:	58026400 	.word	0x58026400

24004514 <HAL_HSEM_ReleaseAll>:
24004514:	0209      	lsls	r1, r1, #8
24004516:	4b03      	ldr	r3, [pc, #12]	; (24004524 <HAL_HSEM_ReleaseAll+0x10>)
24004518:	ea41 4000 	orr.w	r0, r1, r0, lsl #16
2400451c:	f8c3 0140 	str.w	r0, [r3, #320]	; 0x140
24004520:	4770      	bx	lr
24004522:	bf00      	nop
24004524:	58026400 	.word	0x58026400

24004528 <HAL_HSEM_SetClearKey>:
24004528:	4a04      	ldr	r2, [pc, #16]	; (2400453c <HAL_HSEM_SetClearKey+0x14>)
2400452a:	f8d2 3144 	ldr.w	r3, [r2, #324]	; 0x144
2400452e:	b29b      	uxth	r3, r3
24004530:	ea43 4000 	orr.w	r0, r3, r0, lsl #16
24004534:	f8c2 0144 	str.w	r0, [r2, #324]	; 0x144
24004538:	4770      	bx	lr
2400453a:	bf00      	nop
2400453c:	58026400 	.word	0x58026400

24004540 <HAL_HSEM_GetClearKey>:
24004540:	4b02      	ldr	r3, [pc, #8]	; (2400454c <HAL_HSEM_GetClearKey+0xc>)
24004542:	f8d3 0144 	ldr.w	r0, [r3, #324]	; 0x144
24004546:	0c00      	lsrs	r0, r0, #16
24004548:	4770      	bx	lr
2400454a:	bf00      	nop
2400454c:	58026400 	.word	0x58026400

24004550 <HAL_HSEM_ActivateNotification>:
24004550:	4a02      	ldr	r2, [pc, #8]	; (2400455c <HAL_HSEM_ActivateNotification+0xc>)
24004552:	6813      	ldr	r3, [r2, #0]
24004554:	4318      	orrs	r0, r3
24004556:	6010      	str	r0, [r2, #0]
24004558:	4770      	bx	lr
2400455a:	bf00      	nop
2400455c:	58026500 	.word	0x58026500

24004560 <HAL_HSEM_DeactivateNotification>:
24004560:	4a02      	ldr	r2, [pc, #8]	; (2400456c <HAL_HSEM_DeactivateNotification+0xc>)
24004562:	6813      	ldr	r3, [r2, #0]
24004564:	ea23 0000 	bic.w	r0, r3, r0
24004568:	6010      	str	r0, [r2, #0]
2400456a:	4770      	bx	lr
2400456c:	58026500 	.word	0x58026500

24004570 <HAL_HSEM_FreeCallback>:
24004570:	4770      	bx	lr
	...

24004574 <HAL_HSEM_IRQHandler>:
24004574:	b508      	push	{r3, lr}
24004576:	4b05      	ldr	r3, [pc, #20]	; (2400458c <HAL_HSEM_IRQHandler+0x18>)
24004578:	68d8      	ldr	r0, [r3, #12]
2400457a:	681a      	ldr	r2, [r3, #0]
2400457c:	ea22 0200 	bic.w	r2, r2, r0
24004580:	601a      	str	r2, [r3, #0]
24004582:	6058      	str	r0, [r3, #4]
24004584:	f7ff fff4 	bl	24004570 <HAL_HSEM_FreeCallback>
24004588:	bd08      	pop	{r3, pc}
2400458a:	bf00      	nop
2400458c:	58026500 	.word	0x58026500

24004590 <I2C_Flush_TXDR>:
24004590:	6803      	ldr	r3, [r0, #0]
24004592:	699a      	ldr	r2, [r3, #24]
24004594:	0791      	lsls	r1, r2, #30
24004596:	d501      	bpl.n	2400459c <I2C_Flush_TXDR+0xc>
24004598:	2200      	movs	r2, #0
2400459a:	629a      	str	r2, [r3, #40]	; 0x28
2400459c:	699a      	ldr	r2, [r3, #24]
2400459e:	07d2      	lsls	r2, r2, #31
240045a0:	d403      	bmi.n	240045aa <I2C_Flush_TXDR+0x1a>
240045a2:	699a      	ldr	r2, [r3, #24]
240045a4:	f042 0201 	orr.w	r2, r2, #1
240045a8:	619a      	str	r2, [r3, #24]
240045aa:	4770      	bx	lr

240045ac <I2C_TransferConfig>:
240045ac:	b530      	push	{r4, r5, lr}
240045ae:	9d03      	ldr	r5, [sp, #12]
240045b0:	f3c1 0109 	ubfx	r1, r1, #0, #10
240045b4:	6804      	ldr	r4, [r0, #0]
240045b6:	ea45 4202 	orr.w	r2, r5, r2, lsl #16
240045ba:	6860      	ldr	r0, [r4, #4]
240045bc:	431a      	orrs	r2, r3
240045be:	4b04      	ldr	r3, [pc, #16]	; (240045d0 <I2C_TransferConfig+0x24>)
240045c0:	ea43 5355 	orr.w	r3, r3, r5, lsr #21
240045c4:	430a      	orrs	r2, r1
240045c6:	ea20 0003 	bic.w	r0, r0, r3
240045ca:	4302      	orrs	r2, r0
240045cc:	6062      	str	r2, [r4, #4]
240045ce:	bd30      	pop	{r4, r5, pc}
240045d0:	03ff63ff 	.word	0x03ff63ff

240045d4 <I2C_Enable_IRQ>:
240045d4:	6b42      	ldr	r2, [r0, #52]	; 0x34
240045d6:	b20b      	sxth	r3, r1
240045d8:	b510      	push	{r4, lr}
240045da:	4c16      	ldr	r4, [pc, #88]	; (24004634 <I2C_Enable_IRQ+0x60>)
240045dc:	42a2      	cmp	r2, r4
240045de:	d002      	beq.n	240045e6 <I2C_Enable_IRQ+0x12>
240045e0:	4c15      	ldr	r4, [pc, #84]	; (24004638 <I2C_Enable_IRQ+0x64>)
240045e2:	42a2      	cmp	r2, r4
240045e4:	d111      	bne.n	2400460a <I2C_Enable_IRQ+0x36>
240045e6:	2b00      	cmp	r3, #0
240045e8:	db0d      	blt.n	24004606 <I2C_Enable_IRQ+0x32>
240045ea:	2910      	cmp	r1, #16
240045ec:	d01e      	beq.n	2400462c <I2C_Enable_IRQ+0x58>
240045ee:	2920      	cmp	r1, #32
240045f0:	d01e      	beq.n	24004630 <I2C_Enable_IRQ+0x5c>
240045f2:	2300      	movs	r3, #0
240045f4:	2940      	cmp	r1, #64	; 0x40
240045f6:	d101      	bne.n	240045fc <I2C_Enable_IRQ+0x28>
240045f8:	f043 0340 	orr.w	r3, r3, #64	; 0x40
240045fc:	6801      	ldr	r1, [r0, #0]
240045fe:	680a      	ldr	r2, [r1, #0]
24004600:	4313      	orrs	r3, r2
24004602:	600b      	str	r3, [r1, #0]
24004604:	bd10      	pop	{r4, pc}
24004606:	23b8      	movs	r3, #184	; 0xb8
24004608:	e7f4      	b.n	240045f4 <I2C_Enable_IRQ+0x20>
2400460a:	2b00      	cmp	r3, #0
2400460c:	bfac      	ite	ge
2400460e:	2300      	movge	r3, #0
24004610:	23b8      	movlt	r3, #184	; 0xb8
24004612:	07cc      	lsls	r4, r1, #31
24004614:	bf48      	it	mi
24004616:	f043 03f2 	orrmi.w	r3, r3, #242	; 0xf2
2400461a:	078a      	lsls	r2, r1, #30
2400461c:	bf48      	it	mi
2400461e:	f043 03f4 	orrmi.w	r3, r3, #244	; 0xf4
24004622:	2920      	cmp	r1, #32
24004624:	d1ea      	bne.n	240045fc <I2C_Enable_IRQ+0x28>
24004626:	f043 0320 	orr.w	r3, r3, #32
2400462a:	e7e7      	b.n	240045fc <I2C_Enable_IRQ+0x28>
2400462c:	2390      	movs	r3, #144	; 0x90
2400462e:	e7e5      	b.n	240045fc <I2C_Enable_IRQ+0x28>
24004630:	2360      	movs	r3, #96	; 0x60
24004632:	e7e3      	b.n	240045fc <I2C_Enable_IRQ+0x28>
24004634:	24006f7d 	.word	0x24006f7d
24004638:	24006df9 	.word	0x24006df9

2400463c <I2C_Disable_IRQ>:
2400463c:	f011 0301 	ands.w	r3, r1, #1
24004640:	d007      	beq.n	24004652 <I2C_Disable_IRQ+0x16>
24004642:	f890 3041 	ldrb.w	r3, [r0, #65]	; 0x41
24004646:	f003 0328 	and.w	r3, r3, #40	; 0x28
2400464a:	2b28      	cmp	r3, #40	; 0x28
2400464c:	bf0c      	ite	eq
2400464e:	2342      	moveq	r3, #66	; 0x42
24004650:	23f2      	movne	r3, #242	; 0xf2
24004652:	078a      	lsls	r2, r1, #30
24004654:	d509      	bpl.n	2400466a <I2C_Disable_IRQ+0x2e>
24004656:	f890 2041 	ldrb.w	r2, [r0, #65]	; 0x41
2400465a:	f002 0228 	and.w	r2, r2, #40	; 0x28
2400465e:	2a28      	cmp	r2, #40	; 0x28
24004660:	bf0c      	ite	eq
24004662:	f043 0344 	orreq.w	r3, r3, #68	; 0x44
24004666:	f043 03f4 	orrne.w	r3, r3, #244	; 0xf4
2400466a:	040a      	lsls	r2, r1, #16
2400466c:	6801      	ldr	r1, [r0, #0]
2400466e:	bf48      	it	mi
24004670:	f043 03b8 	orrmi.w	r3, r3, #184	; 0xb8
24004674:	680a      	ldr	r2, [r1, #0]
24004676:	ea22 0303 	bic.w	r3, r2, r3
2400467a:	600b      	str	r3, [r1, #0]
2400467c:	4770      	bx	lr

2400467e <I2C_ConvertOtherXferOptions>:
2400467e:	6ac3      	ldr	r3, [r0, #44]	; 0x2c
24004680:	2baa      	cmp	r3, #170	; 0xaa
24004682:	d102      	bne.n	2400468a <I2C_ConvertOtherXferOptions+0xc>
24004684:	2300      	movs	r3, #0
24004686:	62c3      	str	r3, [r0, #44]	; 0x2c
24004688:	4770      	bx	lr
2400468a:	6ac3      	ldr	r3, [r0, #44]	; 0x2c
2400468c:	f5b3 4f2a 	cmp.w	r3, #43520	; 0xaa00
24004690:	d1fa      	bne.n	24004688 <I2C_ConvertOtherXferOptions+0xa>
24004692:	f04f 7300 	mov.w	r3, #33554432	; 0x2000000
24004696:	e7f6      	b.n	24004686 <I2C_ConvertOtherXferOptions+0x8>

24004698 <I2C_IsAcknowledgeFailed>:
24004698:	6803      	ldr	r3, [r0, #0]
2400469a:	b570      	push	{r4, r5, r6, lr}
2400469c:	4604      	mov	r4, r0
2400469e:	6998      	ldr	r0, [r3, #24]
240046a0:	460d      	mov	r5, r1
240046a2:	4616      	mov	r6, r2
240046a4:	f010 0010 	ands.w	r0, r0, #16
240046a8:	d116      	bne.n	240046d8 <I2C_IsAcknowledgeFailed+0x40>
240046aa:	bd70      	pop	{r4, r5, r6, pc}
240046ac:	1c69      	adds	r1, r5, #1
240046ae:	d014      	beq.n	240046da <I2C_IsAcknowledgeFailed+0x42>
240046b0:	f7fc f878 	bl	240007a4 <HAL_GetTick>
240046b4:	1b80      	subs	r0, r0, r6
240046b6:	4285      	cmp	r5, r0
240046b8:	d300      	bcc.n	240046bc <I2C_IsAcknowledgeFailed+0x24>
240046ba:	b96d      	cbnz	r5, 240046d8 <I2C_IsAcknowledgeFailed+0x40>
240046bc:	6c63      	ldr	r3, [r4, #68]	; 0x44
240046be:	f043 0320 	orr.w	r3, r3, #32
240046c2:	6463      	str	r3, [r4, #68]	; 0x44
240046c4:	2320      	movs	r3, #32
240046c6:	f884 3041 	strb.w	r3, [r4, #65]	; 0x41
240046ca:	2300      	movs	r3, #0
240046cc:	f884 3042 	strb.w	r3, [r4, #66]	; 0x42
240046d0:	f884 3040 	strb.w	r3, [r4, #64]	; 0x40
240046d4:	2001      	movs	r0, #1
240046d6:	e7e8      	b.n	240046aa <I2C_IsAcknowledgeFailed+0x12>
240046d8:	6823      	ldr	r3, [r4, #0]
240046da:	699a      	ldr	r2, [r3, #24]
240046dc:	0692      	lsls	r2, r2, #26
240046de:	d5e5      	bpl.n	240046ac <I2C_IsAcknowledgeFailed+0x14>
240046e0:	2210      	movs	r2, #16
240046e2:	2520      	movs	r5, #32
240046e4:	4620      	mov	r0, r4
240046e6:	61da      	str	r2, [r3, #28]
240046e8:	61dd      	str	r5, [r3, #28]
240046ea:	f7ff ff51 	bl	24004590 <I2C_Flush_TXDR>
240046ee:	6822      	ldr	r2, [r4, #0]
240046f0:	6853      	ldr	r3, [r2, #4]
240046f2:	f023 73ff 	bic.w	r3, r3, #33423360	; 0x1fe0000
240046f6:	f423 338b 	bic.w	r3, r3, #71168	; 0x11600
240046fa:	f423 73ff 	bic.w	r3, r3, #510	; 0x1fe
240046fe:	f023 0301 	bic.w	r3, r3, #1
24004702:	6053      	str	r3, [r2, #4]
24004704:	6c63      	ldr	r3, [r4, #68]	; 0x44
24004706:	f043 0304 	orr.w	r3, r3, #4
2400470a:	6463      	str	r3, [r4, #68]	; 0x44
2400470c:	2300      	movs	r3, #0
2400470e:	f884 5041 	strb.w	r5, [r4, #65]	; 0x41
24004712:	f884 3040 	strb.w	r3, [r4, #64]	; 0x40
24004716:	f884 3042 	strb.w	r3, [r4, #66]	; 0x42
2400471a:	e7db      	b.n	240046d4 <I2C_IsAcknowledgeFailed+0x3c>

2400471c <I2C_WaitOnTXISFlagUntilTimeout>:
2400471c:	b570      	push	{r4, r5, r6, lr}
2400471e:	4604      	mov	r4, r0
24004720:	460d      	mov	r5, r1
24004722:	4616      	mov	r6, r2
24004724:	6823      	ldr	r3, [r4, #0]
24004726:	699b      	ldr	r3, [r3, #24]
24004728:	079b      	lsls	r3, r3, #30
2400472a:	d501      	bpl.n	24004730 <I2C_WaitOnTXISFlagUntilTimeout+0x14>
2400472c:	2000      	movs	r0, #0
2400472e:	bd70      	pop	{r4, r5, r6, pc}
24004730:	4632      	mov	r2, r6
24004732:	4629      	mov	r1, r5
24004734:	4620      	mov	r0, r4
24004736:	f7ff ffaf 	bl	24004698 <I2C_IsAcknowledgeFailed>
2400473a:	b9a0      	cbnz	r0, 24004766 <I2C_WaitOnTXISFlagUntilTimeout+0x4a>
2400473c:	1c6a      	adds	r2, r5, #1
2400473e:	d0f1      	beq.n	24004724 <I2C_WaitOnTXISFlagUntilTimeout+0x8>
24004740:	f7fc f830 	bl	240007a4 <HAL_GetTick>
24004744:	1b80      	subs	r0, r0, r6
24004746:	42a8      	cmp	r0, r5
24004748:	d801      	bhi.n	2400474e <I2C_WaitOnTXISFlagUntilTimeout+0x32>
2400474a:	2d00      	cmp	r5, #0
2400474c:	d1ea      	bne.n	24004724 <I2C_WaitOnTXISFlagUntilTimeout+0x8>
2400474e:	6c63      	ldr	r3, [r4, #68]	; 0x44
24004750:	f043 0320 	orr.w	r3, r3, #32
24004754:	6463      	str	r3, [r4, #68]	; 0x44
24004756:	2320      	movs	r3, #32
24004758:	f884 3041 	strb.w	r3, [r4, #65]	; 0x41
2400475c:	2300      	movs	r3, #0
2400475e:	f884 3042 	strb.w	r3, [r4, #66]	; 0x42
24004762:	f884 3040 	strb.w	r3, [r4, #64]	; 0x40
24004766:	2001      	movs	r0, #1
24004768:	e7e1      	b.n	2400472e <I2C_WaitOnTXISFlagUntilTimeout+0x12>

2400476a <I2C_WaitOnRXNEFlagUntilTimeout>:
2400476a:	b570      	push	{r4, r5, r6, lr}
2400476c:	4604      	mov	r4, r0
2400476e:	460d      	mov	r5, r1
24004770:	4616      	mov	r6, r2
24004772:	6823      	ldr	r3, [r4, #0]
24004774:	699b      	ldr	r3, [r3, #24]
24004776:	075b      	lsls	r3, r3, #29
24004778:	d40e      	bmi.n	24004798 <I2C_WaitOnRXNEFlagUntilTimeout+0x2e>
2400477a:	4632      	mov	r2, r6
2400477c:	4629      	mov	r1, r5
2400477e:	4620      	mov	r0, r4
24004780:	f7ff ff8a 	bl	24004698 <I2C_IsAcknowledgeFailed>
24004784:	b9f0      	cbnz	r0, 240047c4 <I2C_WaitOnRXNEFlagUntilTimeout+0x5a>
24004786:	6823      	ldr	r3, [r4, #0]
24004788:	699a      	ldr	r2, [r3, #24]
2400478a:	0691      	lsls	r1, r2, #26
2400478c:	d51c      	bpl.n	240047c8 <I2C_WaitOnRXNEFlagUntilTimeout+0x5e>
2400478e:	699a      	ldr	r2, [r3, #24]
24004790:	0752      	lsls	r2, r2, #29
24004792:	d503      	bpl.n	2400479c <I2C_WaitOnRXNEFlagUntilTimeout+0x32>
24004794:	8d22      	ldrh	r2, [r4, #40]	; 0x28
24004796:	b10a      	cbz	r2, 2400479c <I2C_WaitOnRXNEFlagUntilTimeout+0x32>
24004798:	2000      	movs	r0, #0
2400479a:	bd70      	pop	{r4, r5, r6, pc}
2400479c:	2120      	movs	r1, #32
2400479e:	61d9      	str	r1, [r3, #28]
240047a0:	685a      	ldr	r2, [r3, #4]
240047a2:	f022 72ff 	bic.w	r2, r2, #33423360	; 0x1fe0000
240047a6:	f422 328b 	bic.w	r2, r2, #71168	; 0x11600
240047aa:	f422 72ff 	bic.w	r2, r2, #510	; 0x1fe
240047ae:	f022 0201 	bic.w	r2, r2, #1
240047b2:	605a      	str	r2, [r3, #4]
240047b4:	2300      	movs	r3, #0
240047b6:	6463      	str	r3, [r4, #68]	; 0x44
240047b8:	f884 1041 	strb.w	r1, [r4, #65]	; 0x41
240047bc:	f884 3042 	strb.w	r3, [r4, #66]	; 0x42
240047c0:	f884 3040 	strb.w	r3, [r4, #64]	; 0x40
240047c4:	2001      	movs	r0, #1
240047c6:	e7e8      	b.n	2400479a <I2C_WaitOnRXNEFlagUntilTimeout+0x30>
240047c8:	f7fb ffec 	bl	240007a4 <HAL_GetTick>
240047cc:	1b80      	subs	r0, r0, r6
240047ce:	42a8      	cmp	r0, r5
240047d0:	d801      	bhi.n	240047d6 <I2C_WaitOnRXNEFlagUntilTimeout+0x6c>
240047d2:	2d00      	cmp	r5, #0
240047d4:	d1cd      	bne.n	24004772 <I2C_WaitOnRXNEFlagUntilTimeout+0x8>
240047d6:	6c63      	ldr	r3, [r4, #68]	; 0x44
240047d8:	f043 0320 	orr.w	r3, r3, #32
240047dc:	6463      	str	r3, [r4, #68]	; 0x44
240047de:	2320      	movs	r3, #32
240047e0:	f884 3041 	strb.w	r3, [r4, #65]	; 0x41
240047e4:	2300      	movs	r3, #0
240047e6:	e7eb      	b.n	240047c0 <I2C_WaitOnRXNEFlagUntilTimeout+0x56>

240047e8 <I2C_WaitOnFlagUntilTimeout>:
240047e8:	e92d 41f0 	stmdb	sp!, {r4, r5, r6, r7, r8, lr}
240047ec:	9f06      	ldr	r7, [sp, #24]
240047ee:	4604      	mov	r4, r0
240047f0:	4688      	mov	r8, r1
240047f2:	4616      	mov	r6, r2
240047f4:	461d      	mov	r5, r3
240047f6:	6822      	ldr	r2, [r4, #0]
240047f8:	6993      	ldr	r3, [r2, #24]
240047fa:	ea38 0303 	bics.w	r3, r8, r3
240047fe:	bf0c      	ite	eq
24004800:	2301      	moveq	r3, #1
24004802:	2300      	movne	r3, #0
24004804:	42b3      	cmp	r3, r6
24004806:	d001      	beq.n	2400480c <I2C_WaitOnFlagUntilTimeout+0x24>
24004808:	2000      	movs	r0, #0
2400480a:	e015      	b.n	24004838 <I2C_WaitOnFlagUntilTimeout+0x50>
2400480c:	1c6b      	adds	r3, r5, #1
2400480e:	d0f3      	beq.n	240047f8 <I2C_WaitOnFlagUntilTimeout+0x10>
24004810:	f7fb ffc8 	bl	240007a4 <HAL_GetTick>
24004814:	1bc0      	subs	r0, r0, r7
24004816:	42a8      	cmp	r0, r5
24004818:	d801      	bhi.n	2400481e <I2C_WaitOnFlagUntilTimeout+0x36>
2400481a:	2d00      	cmp	r5, #0
2400481c:	d1eb      	bne.n	240047f6 <I2C_WaitOnFlagUntilTimeout+0xe>
2400481e:	6c63      	ldr	r3, [r4, #68]	; 0x44
24004820:	2001      	movs	r0, #1
24004822:	f043 0320 	orr.w	r3, r3, #32
24004826:	6463      	str	r3, [r4, #68]	; 0x44
24004828:	2320      	movs	r3, #32
2400482a:	f884 3041 	strb.w	r3, [r4, #65]	; 0x41
2400482e:	2300      	movs	r3, #0
24004830:	f884 3042 	strb.w	r3, [r4, #66]	; 0x42
24004834:	f884 3040 	strb.w	r3, [r4, #64]	; 0x40
24004838:	e8bd 81f0 	ldmia.w	sp!, {r4, r5, r6, r7, r8, pc}

2400483c <I2C_RequestMemoryWrite>:
2400483c:	e92d 41f3 	stmdb	sp!, {r0, r1, r4, r5, r6, r7, r8, lr}
24004840:	461e      	mov	r6, r3
24004842:	4b18      	ldr	r3, [pc, #96]	; (240048a4 <I2C_RequestMemoryWrite+0x68>)
24004844:	4605      	mov	r5, r0
24004846:	4614      	mov	r4, r2
24004848:	9300      	str	r3, [sp, #0]
2400484a:	b2f2      	uxtb	r2, r6
2400484c:	f04f 7380 	mov.w	r3, #16777216	; 0x1000000
24004850:	e9dd 7808 	ldrd	r7, r8, [sp, #32]
24004854:	f7ff feaa 	bl	240045ac <I2C_TransferConfig>
24004858:	4628      	mov	r0, r5
2400485a:	4642      	mov	r2, r8
2400485c:	4639      	mov	r1, r7
2400485e:	f7ff ff5d 	bl	2400471c <I2C_WaitOnTXISFlagUntilTimeout>
24004862:	b118      	cbz	r0, 2400486c <I2C_RequestMemoryWrite+0x30>
24004864:	2001      	movs	r0, #1
24004866:	b002      	add	sp, #8
24004868:	e8bd 81f0 	ldmia.w	sp!, {r4, r5, r6, r7, r8, pc}
2400486c:	2e01      	cmp	r6, #1
2400486e:	682b      	ldr	r3, [r5, #0]
24004870:	d10d      	bne.n	2400488e <I2C_RequestMemoryWrite+0x52>
24004872:	b2e4      	uxtb	r4, r4
24004874:	2200      	movs	r2, #0
24004876:	2180      	movs	r1, #128	; 0x80
24004878:	4628      	mov	r0, r5
2400487a:	629c      	str	r4, [r3, #40]	; 0x28
2400487c:	463b      	mov	r3, r7
2400487e:	f8cd 8000 	str.w	r8, [sp]
24004882:	f7ff ffb1 	bl	240047e8 <I2C_WaitOnFlagUntilTimeout>
24004886:	3800      	subs	r0, #0
24004888:	bf18      	it	ne
2400488a:	2001      	movne	r0, #1
2400488c:	e7eb      	b.n	24004866 <I2C_RequestMemoryWrite+0x2a>
2400488e:	0a22      	lsrs	r2, r4, #8
24004890:	4639      	mov	r1, r7
24004892:	4628      	mov	r0, r5
24004894:	629a      	str	r2, [r3, #40]	; 0x28
24004896:	4642      	mov	r2, r8
24004898:	f7ff ff40 	bl	2400471c <I2C_WaitOnTXISFlagUntilTimeout>
2400489c:	2800      	cmp	r0, #0
2400489e:	d1e1      	bne.n	24004864 <I2C_RequestMemoryWrite+0x28>
240048a0:	682b      	ldr	r3, [r5, #0]
240048a2:	e7e6      	b.n	24004872 <I2C_RequestMemoryWrite+0x36>
240048a4:	80002000 	.word	0x80002000

240048a8 <I2C_RequestMemoryRead>:
240048a8:	e92d 41f3 	stmdb	sp!, {r0, r1, r4, r5, r6, r7, r8, lr}
240048ac:	461e      	mov	r6, r3
240048ae:	4b18      	ldr	r3, [pc, #96]	; (24004910 <I2C_RequestMemoryRead+0x68>)
240048b0:	4605      	mov	r5, r0
240048b2:	4614      	mov	r4, r2
240048b4:	9300      	str	r3, [sp, #0]
240048b6:	b2f2      	uxtb	r2, r6
240048b8:	2300      	movs	r3, #0
240048ba:	e9dd 7808 	ldrd	r7, r8, [sp, #32]
240048be:	f7ff fe75 	bl	240045ac <I2C_TransferConfig>
240048c2:	4628      	mov	r0, r5
240048c4:	4642      	mov	r2, r8
240048c6:	4639      	mov	r1, r7
240048c8:	f7ff ff28 	bl	2400471c <I2C_WaitOnTXISFlagUntilTimeout>
240048cc:	b118      	cbz	r0, 240048d6 <I2C_RequestMemoryRead+0x2e>
240048ce:	2001      	movs	r0, #1
240048d0:	b002      	add	sp, #8
240048d2:	e8bd 81f0 	ldmia.w	sp!, {r4, r5, r6, r7, r8, pc}
240048d6:	2e01      	cmp	r6, #1
240048d8:	682b      	ldr	r3, [r5, #0]
240048da:	d10d      	bne.n	240048f8 <I2C_RequestMemoryRead+0x50>
240048dc:	b2e4      	uxtb	r4, r4
240048de:	2200      	movs	r2, #0
240048e0:	2140      	movs	r1, #64	; 0x40
240048e2:	4628      	mov	r0, r5
240048e4:	629c      	str	r4, [r3, #40]	; 0x28
240048e6:	463b      	mov	r3, r7
240048e8:	f8cd 8000 	str.w	r8, [sp]
240048ec:	f7ff ff7c 	bl	240047e8 <I2C_WaitOnFlagUntilTimeout>
240048f0:	3800      	subs	r0, #0
240048f2:	bf18      	it	ne
240048f4:	2001      	movne	r0, #1
240048f6:	e7eb      	b.n	240048d0 <I2C_RequestMemoryRead+0x28>
240048f8:	0a22      	lsrs	r2, r4, #8
240048fa:	4639      	mov	r1, r7
240048fc:	4628      	mov	r0, r5
240048fe:	629a      	str	r2, [r3, #40]	; 0x28
24004900:	4642      	mov	r2, r8
24004902:	f7ff ff0b 	bl	2400471c <I2C_WaitOnTXISFlagUntilTimeout>
24004906:	2800      	cmp	r0, #0
24004908:	d1e1      	bne.n	240048ce <I2C_RequestMemoryRead+0x26>
2400490a:	682b      	ldr	r3, [r5, #0]
2400490c:	e7e6      	b.n	240048dc <I2C_RequestMemoryRead+0x34>
2400490e:	bf00      	nop
24004910:	80002000 	.word	0x80002000

24004914 <I2C_WaitOnSTOPFlagUntilTimeout>:
24004914:	b570      	push	{r4, r5, r6, lr}
24004916:	4604      	mov	r4, r0
24004918:	460d      	mov	r5, r1
2400491a:	4616      	mov	r6, r2
2400491c:	6823      	ldr	r3, [r4, #0]
2400491e:	699b      	ldr	r3, [r3, #24]
24004920:	069b      	lsls	r3, r3, #26
24004922:	d501      	bpl.n	24004928 <I2C_WaitOnSTOPFlagUntilTimeout+0x14>
24004924:	2000      	movs	r0, #0
24004926:	bd70      	pop	{r4, r5, r6, pc}
24004928:	4632      	mov	r2, r6
2400492a:	4629      	mov	r1, r5
2400492c:	4620      	mov	r0, r4
2400492e:	f7ff feb3 	bl	24004698 <I2C_IsAcknowledgeFailed>
24004932:	b990      	cbnz	r0, 2400495a <I2C_WaitOnSTOPFlagUntilTimeout+0x46>
24004934:	f7fb ff36 	bl	240007a4 <HAL_GetTick>
24004938:	1b80      	subs	r0, r0, r6
2400493a:	42a8      	cmp	r0, r5
2400493c:	d801      	bhi.n	24004942 <I2C_WaitOnSTOPFlagUntilTimeout+0x2e>
2400493e:	2d00      	cmp	r5, #0
24004940:	d1ec      	bne.n	2400491c <I2C_WaitOnSTOPFlagUntilTimeout+0x8>
24004942:	6c63      	ldr	r3, [r4, #68]	; 0x44
24004944:	f043 0320 	orr.w	r3, r3, #32
24004948:	6463      	str	r3, [r4, #68]	; 0x44
2400494a:	2320      	movs	r3, #32
2400494c:	f884 3041 	strb.w	r3, [r4, #65]	; 0x41
24004950:	2300      	movs	r3, #0
24004952:	f884 3042 	strb.w	r3, [r4, #66]	; 0x42
24004956:	f884 3040 	strb.w	r3, [r4, #64]	; 0x40
2400495a:	2001      	movs	r0, #1
2400495c:	e7e3      	b.n	24004926 <I2C_WaitOnSTOPFlagUntilTimeout+0x12>

2400495e <HAL_I2C_MspInit>:
2400495e:	4770      	bx	lr

24004960 <HAL_I2C_Init>:
24004960:	b510      	push	{r4, lr}
24004962:	4604      	mov	r4, r0
24004964:	2800      	cmp	r0, #0
24004966:	d04a      	beq.n	240049fe <HAL_I2C_Init+0x9e>
24004968:	f890 3041 	ldrb.w	r3, [r0, #65]	; 0x41
2400496c:	f003 02ff 	and.w	r2, r3, #255	; 0xff
24004970:	b91b      	cbnz	r3, 2400497a <HAL_I2C_Init+0x1a>
24004972:	f880 2040 	strb.w	r2, [r0, #64]	; 0x40
24004976:	f7ff fff2 	bl	2400495e <HAL_I2C_MspInit>
2400497a:	2324      	movs	r3, #36	; 0x24
2400497c:	f884 3041 	strb.w	r3, [r4, #65]	; 0x41
24004980:	6823      	ldr	r3, [r4, #0]
24004982:	681a      	ldr	r2, [r3, #0]
24004984:	f022 0201 	bic.w	r2, r2, #1
24004988:	601a      	str	r2, [r3, #0]
2400498a:	6862      	ldr	r2, [r4, #4]
2400498c:	f022 6270 	bic.w	r2, r2, #251658240	; 0xf000000
24004990:	611a      	str	r2, [r3, #16]
24004992:	689a      	ldr	r2, [r3, #8]
24004994:	f422 4200 	bic.w	r2, r2, #32768	; 0x8000
24004998:	609a      	str	r2, [r3, #8]
2400499a:	e9d4 2102 	ldrd	r2, r1, [r4, #8]
2400499e:	2901      	cmp	r1, #1
240049a0:	d124      	bne.n	240049ec <HAL_I2C_Init+0x8c>
240049a2:	f442 4200 	orr.w	r2, r2, #32768	; 0x8000
240049a6:	609a      	str	r2, [r3, #8]
240049a8:	685a      	ldr	r2, [r3, #4]
240049aa:	2000      	movs	r0, #0
240049ac:	f042 7200 	orr.w	r2, r2, #33554432	; 0x2000000
240049b0:	f442 4200 	orr.w	r2, r2, #32768	; 0x8000
240049b4:	605a      	str	r2, [r3, #4]
240049b6:	68da      	ldr	r2, [r3, #12]
240049b8:	f422 4200 	bic.w	r2, r2, #32768	; 0x8000
240049bc:	60da      	str	r2, [r3, #12]
240049be:	e9d4 2104 	ldrd	r2, r1, [r4, #16]
240049c2:	430a      	orrs	r2, r1
240049c4:	69a1      	ldr	r1, [r4, #24]
240049c6:	ea42 2201 	orr.w	r2, r2, r1, lsl #8
240049ca:	60da      	str	r2, [r3, #12]
240049cc:	e9d4 2107 	ldrd	r2, r1, [r4, #28]
240049d0:	430a      	orrs	r2, r1
240049d2:	601a      	str	r2, [r3, #0]
240049d4:	681a      	ldr	r2, [r3, #0]
240049d6:	f042 0201 	orr.w	r2, r2, #1
240049da:	601a      	str	r2, [r3, #0]
240049dc:	2320      	movs	r3, #32
240049de:	6460      	str	r0, [r4, #68]	; 0x44
240049e0:	f884 3041 	strb.w	r3, [r4, #65]	; 0x41
240049e4:	6320      	str	r0, [r4, #48]	; 0x30
240049e6:	f884 0042 	strb.w	r0, [r4, #66]	; 0x42
240049ea:	bd10      	pop	{r4, pc}
240049ec:	f442 4204 	orr.w	r2, r2, #33792	; 0x8400
240049f0:	2902      	cmp	r1, #2
240049f2:	609a      	str	r2, [r3, #8]
240049f4:	d1d8      	bne.n	240049a8 <HAL_I2C_Init+0x48>
240049f6:	f44f 6200 	mov.w	r2, #2048	; 0x800
240049fa:	605a      	str	r2, [r3, #4]
240049fc:	e7d4      	b.n	240049a8 <HAL_I2C_Init+0x48>
240049fe:	2001      	movs	r0, #1
24004a00:	e7f3      	b.n	240049ea <HAL_I2C_Init+0x8a>

24004a02 <HAL_I2C_MspDeInit>:
24004a02:	4770      	bx	lr

24004a04 <HAL_I2C_DeInit>:
24004a04:	b510      	push	{r4, lr}
24004a06:	4604      	mov	r4, r0
24004a08:	b198      	cbz	r0, 24004a32 <HAL_I2C_DeInit+0x2e>
24004a0a:	6802      	ldr	r2, [r0, #0]
24004a0c:	2324      	movs	r3, #36	; 0x24
24004a0e:	f880 3041 	strb.w	r3, [r0, #65]	; 0x41
24004a12:	6813      	ldr	r3, [r2, #0]
24004a14:	f023 0301 	bic.w	r3, r3, #1
24004a18:	6013      	str	r3, [r2, #0]
24004a1a:	f7ff fff2 	bl	24004a02 <HAL_I2C_MspDeInit>
24004a1e:	2000      	movs	r0, #0
24004a20:	6460      	str	r0, [r4, #68]	; 0x44
24004a22:	f884 0040 	strb.w	r0, [r4, #64]	; 0x40
24004a26:	f884 0041 	strb.w	r0, [r4, #65]	; 0x41
24004a2a:	6320      	str	r0, [r4, #48]	; 0x30
24004a2c:	f884 0042 	strb.w	r0, [r4, #66]	; 0x42
24004a30:	bd10      	pop	{r4, pc}
24004a32:	2001      	movs	r0, #1
24004a34:	e7fc      	b.n	24004a30 <HAL_I2C_DeInit+0x2c>
	...

24004a38 <HAL_I2C_Master_Transmit>:
24004a38:	e92d 47f3 	stmdb	sp!, {r0, r1, r4, r5, r6, r7, r8, r9, sl, lr}
24004a3c:	4698      	mov	r8, r3
24004a3e:	f890 3041 	ldrb.w	r3, [r0, #65]	; 0x41
24004a42:	4604      	mov	r4, r0
24004a44:	460e      	mov	r6, r1
24004a46:	2b20      	cmp	r3, #32
24004a48:	4691      	mov	r9, r2
24004a4a:	9f0a      	ldr	r7, [sp, #40]	; 0x28
24004a4c:	f040 8086 	bne.w	24004b5c <HAL_I2C_Master_Transmit+0x124>
24004a50:	f890 3040 	ldrb.w	r3, [r0, #64]	; 0x40
24004a54:	2b01      	cmp	r3, #1
24004a56:	f000 8081 	beq.w	24004b5c <HAL_I2C_Master_Transmit+0x124>
24004a5a:	f04f 0a01 	mov.w	sl, #1
24004a5e:	f880 a040 	strb.w	sl, [r0, #64]	; 0x40
24004a62:	f7fb fe9f 	bl	240007a4 <HAL_GetTick>
24004a66:	2319      	movs	r3, #25
24004a68:	4605      	mov	r5, r0
24004a6a:	9000      	str	r0, [sp, #0]
24004a6c:	4652      	mov	r2, sl
24004a6e:	f44f 4100 	mov.w	r1, #32768	; 0x8000
24004a72:	4620      	mov	r0, r4
24004a74:	f7ff feb8 	bl	240047e8 <I2C_WaitOnFlagUntilTimeout>
24004a78:	b118      	cbz	r0, 24004a82 <HAL_I2C_Master_Transmit+0x4a>
24004a7a:	2001      	movs	r0, #1
24004a7c:	b002      	add	sp, #8
24004a7e:	e8bd 87f0 	ldmia.w	sp!, {r4, r5, r6, r7, r8, r9, sl, pc}
24004a82:	2321      	movs	r3, #33	; 0x21
24004a84:	f8c4 9024 	str.w	r9, [r4, #36]	; 0x24
24004a88:	6360      	str	r0, [r4, #52]	; 0x34
24004a8a:	f884 3041 	strb.w	r3, [r4, #65]	; 0x41
24004a8e:	2310      	movs	r3, #16
24004a90:	f884 3042 	strb.w	r3, [r4, #66]	; 0x42
24004a94:	6460      	str	r0, [r4, #68]	; 0x44
24004a96:	f8a4 802a 	strh.w	r8, [r4, #42]	; 0x2a
24004a9a:	8d63      	ldrh	r3, [r4, #42]	; 0x2a
24004a9c:	b29b      	uxth	r3, r3
24004a9e:	2bff      	cmp	r3, #255	; 0xff
24004aa0:	4b2f      	ldr	r3, [pc, #188]	; (24004b60 <HAL_I2C_Master_Transmit+0x128>)
24004aa2:	d926      	bls.n	24004af2 <HAL_I2C_Master_Transmit+0xba>
24004aa4:	22ff      	movs	r2, #255	; 0xff
24004aa6:	9300      	str	r3, [sp, #0]
24004aa8:	8522      	strh	r2, [r4, #40]	; 0x28
24004aaa:	f04f 7380 	mov.w	r3, #16777216	; 0x1000000
24004aae:	4631      	mov	r1, r6
24004ab0:	4620      	mov	r0, r4
24004ab2:	f7ff fd7b 	bl	240045ac <I2C_TransferConfig>
24004ab6:	8d63      	ldrh	r3, [r4, #42]	; 0x2a
24004ab8:	462a      	mov	r2, r5
24004aba:	4639      	mov	r1, r7
24004abc:	4620      	mov	r0, r4
24004abe:	b29b      	uxth	r3, r3
24004ac0:	b9fb      	cbnz	r3, 24004b02 <HAL_I2C_Master_Transmit+0xca>
24004ac2:	f7ff ff27 	bl	24004914 <I2C_WaitOnSTOPFlagUntilTimeout>
24004ac6:	2800      	cmp	r0, #0
24004ac8:	d1d7      	bne.n	24004a7a <HAL_I2C_Master_Transmit+0x42>
24004aca:	6823      	ldr	r3, [r4, #0]
24004acc:	2120      	movs	r1, #32
24004ace:	61d9      	str	r1, [r3, #28]
24004ad0:	685a      	ldr	r2, [r3, #4]
24004ad2:	f022 72ff 	bic.w	r2, r2, #33423360	; 0x1fe0000
24004ad6:	f422 328b 	bic.w	r2, r2, #71168	; 0x11600
24004ada:	f422 72ff 	bic.w	r2, r2, #510	; 0x1fe
24004ade:	f022 0201 	bic.w	r2, r2, #1
24004ae2:	605a      	str	r2, [r3, #4]
24004ae4:	f884 1041 	strb.w	r1, [r4, #65]	; 0x41
24004ae8:	f884 0040 	strb.w	r0, [r4, #64]	; 0x40
24004aec:	f884 0042 	strb.w	r0, [r4, #66]	; 0x42
24004af0:	e7c4      	b.n	24004a7c <HAL_I2C_Master_Transmit+0x44>
24004af2:	8d62      	ldrh	r2, [r4, #42]	; 0x2a
24004af4:	9300      	str	r3, [sp, #0]
24004af6:	b292      	uxth	r2, r2
24004af8:	8522      	strh	r2, [r4, #40]	; 0x28
24004afa:	f04f 7300 	mov.w	r3, #33554432	; 0x2000000
24004afe:	b2d2      	uxtb	r2, r2
24004b00:	e7d5      	b.n	24004aae <HAL_I2C_Master_Transmit+0x76>
24004b02:	f7ff fe0b 	bl	2400471c <I2C_WaitOnTXISFlagUntilTimeout>
24004b06:	2800      	cmp	r0, #0
24004b08:	d1b7      	bne.n	24004a7a <HAL_I2C_Master_Transmit+0x42>
24004b0a:	6a63      	ldr	r3, [r4, #36]	; 0x24
24004b0c:	6822      	ldr	r2, [r4, #0]
24004b0e:	f813 1b01 	ldrb.w	r1, [r3], #1
24004b12:	6291      	str	r1, [r2, #40]	; 0x28
24004b14:	6263      	str	r3, [r4, #36]	; 0x24
24004b16:	8d63      	ldrh	r3, [r4, #42]	; 0x2a
24004b18:	8d22      	ldrh	r2, [r4, #40]	; 0x28
24004b1a:	3b01      	subs	r3, #1
24004b1c:	3a01      	subs	r2, #1
24004b1e:	b29b      	uxth	r3, r3
24004b20:	b292      	uxth	r2, r2
24004b22:	8563      	strh	r3, [r4, #42]	; 0x2a
24004b24:	8d63      	ldrh	r3, [r4, #42]	; 0x2a
24004b26:	8522      	strh	r2, [r4, #40]	; 0x28
24004b28:	b29b      	uxth	r3, r3
24004b2a:	2b00      	cmp	r3, #0
24004b2c:	d0c3      	beq.n	24004ab6 <HAL_I2C_Master_Transmit+0x7e>
24004b2e:	2a00      	cmp	r2, #0
24004b30:	d1c1      	bne.n	24004ab6 <HAL_I2C_Master_Transmit+0x7e>
24004b32:	463b      	mov	r3, r7
24004b34:	2180      	movs	r1, #128	; 0x80
24004b36:	4620      	mov	r0, r4
24004b38:	9500      	str	r5, [sp, #0]
24004b3a:	f7ff fe55 	bl	240047e8 <I2C_WaitOnFlagUntilTimeout>
24004b3e:	2800      	cmp	r0, #0
24004b40:	d19b      	bne.n	24004a7a <HAL_I2C_Master_Transmit+0x42>
24004b42:	8d63      	ldrh	r3, [r4, #42]	; 0x2a
24004b44:	b29b      	uxth	r3, r3
24004b46:	2bff      	cmp	r3, #255	; 0xff
24004b48:	d903      	bls.n	24004b52 <HAL_I2C_Master_Transmit+0x11a>
24004b4a:	22ff      	movs	r2, #255	; 0xff
24004b4c:	9000      	str	r0, [sp, #0]
24004b4e:	8522      	strh	r2, [r4, #40]	; 0x28
24004b50:	e7ab      	b.n	24004aaa <HAL_I2C_Master_Transmit+0x72>
24004b52:	8d62      	ldrh	r2, [r4, #42]	; 0x2a
24004b54:	9000      	str	r0, [sp, #0]
24004b56:	b292      	uxth	r2, r2
24004b58:	8522      	strh	r2, [r4, #40]	; 0x28
24004b5a:	e7ce      	b.n	24004afa <HAL_I2C_Master_Transmit+0xc2>
24004b5c:	2002      	movs	r0, #2
24004b5e:	e78d      	b.n	24004a7c <HAL_I2C_Master_Transmit+0x44>
24004b60:	80002000 	.word	0x80002000

24004b64 <HAL_I2C_Master_Receive>:
24004b64:	e92d 47f3 	stmdb	sp!, {r0, r1, r4, r5, r6, r7, r8, r9, sl, lr}
24004b68:	4698      	mov	r8, r3
24004b6a:	f890 3041 	ldrb.w	r3, [r0, #65]	; 0x41
24004b6e:	4604      	mov	r4, r0
24004b70:	460e      	mov	r6, r1
24004b72:	2b20      	cmp	r3, #32
24004b74:	4691      	mov	r9, r2
24004b76:	9f0a      	ldr	r7, [sp, #40]	; 0x28
24004b78:	f040 8087 	bne.w	24004c8a <HAL_I2C_Master_Receive+0x126>
24004b7c:	f890 3040 	ldrb.w	r3, [r0, #64]	; 0x40
24004b80:	2b01      	cmp	r3, #1
24004b82:	f000 8082 	beq.w	24004c8a <HAL_I2C_Master_Receive+0x126>
24004b86:	f04f 0a01 	mov.w	sl, #1
24004b8a:	f880 a040 	strb.w	sl, [r0, #64]	; 0x40
24004b8e:	f7fb fe09 	bl	240007a4 <HAL_GetTick>
24004b92:	2319      	movs	r3, #25
24004b94:	4605      	mov	r5, r0
24004b96:	9000      	str	r0, [sp, #0]
24004b98:	4652      	mov	r2, sl
24004b9a:	f44f 4100 	mov.w	r1, #32768	; 0x8000
24004b9e:	4620      	mov	r0, r4
24004ba0:	f7ff fe22 	bl	240047e8 <I2C_WaitOnFlagUntilTimeout>
24004ba4:	b118      	cbz	r0, 24004bae <HAL_I2C_Master_Receive+0x4a>
24004ba6:	2001      	movs	r0, #1
24004ba8:	b002      	add	sp, #8
24004baa:	e8bd 87f0 	ldmia.w	sp!, {r4, r5, r6, r7, r8, r9, sl, pc}
24004bae:	2322      	movs	r3, #34	; 0x22
24004bb0:	f8c4 9024 	str.w	r9, [r4, #36]	; 0x24
24004bb4:	6360      	str	r0, [r4, #52]	; 0x34
24004bb6:	f884 3041 	strb.w	r3, [r4, #65]	; 0x41
24004bba:	2310      	movs	r3, #16
24004bbc:	f884 3042 	strb.w	r3, [r4, #66]	; 0x42
24004bc0:	6460      	str	r0, [r4, #68]	; 0x44
24004bc2:	f8a4 802a 	strh.w	r8, [r4, #42]	; 0x2a
24004bc6:	8d63      	ldrh	r3, [r4, #42]	; 0x2a
24004bc8:	b29b      	uxth	r3, r3
24004bca:	2bff      	cmp	r3, #255	; 0xff
24004bcc:	4b30      	ldr	r3, [pc, #192]	; (24004c90 <HAL_I2C_Master_Receive+0x12c>)
24004bce:	d926      	bls.n	24004c1e <HAL_I2C_Master_Receive+0xba>
24004bd0:	22ff      	movs	r2, #255	; 0xff
24004bd2:	9300      	str	r3, [sp, #0]
24004bd4:	8522      	strh	r2, [r4, #40]	; 0x28
24004bd6:	f04f 7380 	mov.w	r3, #16777216	; 0x1000000
24004bda:	4631      	mov	r1, r6
24004bdc:	4620      	mov	r0, r4
24004bde:	f7ff fce5 	bl	240045ac <I2C_TransferConfig>
24004be2:	8d63      	ldrh	r3, [r4, #42]	; 0x2a
24004be4:	462a      	mov	r2, r5
24004be6:	4639      	mov	r1, r7
24004be8:	4620      	mov	r0, r4
24004bea:	b29b      	uxth	r3, r3
24004bec:	b9fb      	cbnz	r3, 24004c2e <HAL_I2C_Master_Receive+0xca>
24004bee:	f7ff fe91 	bl	24004914 <I2C_WaitOnSTOPFlagUntilTimeout>
24004bf2:	2800      	cmp	r0, #0
24004bf4:	d1d7      	bne.n	24004ba6 <HAL_I2C_Master_Receive+0x42>
24004bf6:	6823      	ldr	r3, [r4, #0]
24004bf8:	2120      	movs	r1, #32
24004bfa:	61d9      	str	r1, [r3, #28]
24004bfc:	685a      	ldr	r2, [r3, #4]
24004bfe:	f022 72ff 	bic.w	r2, r2, #33423360	; 0x1fe0000
24004c02:	f422 328b 	bic.w	r2, r2, #71168	; 0x11600
24004c06:	f422 72ff 	bic.w	r2, r2, #510	; 0x1fe
24004c0a:	f022 0201 	bic.w	r2, r2, #1
24004c0e:	605a      	str	r2, [r3, #4]
24004c10:	f884 1041 	strb.w	r1, [r4, #65]	; 0x41
24004c14:	f884 0040 	strb.w	r0, [r4, #64]	; 0x40
24004c18:	f884 0042 	strb.w	r0, [r4, #66]	; 0x42
24004c1c:	e7c4      	b.n	24004ba8 <HAL_I2C_Master_Receive+0x44>
24004c1e:	8d62      	ldrh	r2, [r4, #42]	; 0x2a
24004c20:	9300      	str	r3, [sp, #0]
24004c22:	b292      	uxth	r2, r2
24004c24:	8522      	strh	r2, [r4, #40]	; 0x28
24004c26:	f04f 7300 	mov.w	r3, #33554432	; 0x2000000
24004c2a:	b2d2      	uxtb	r2, r2
24004c2c:	e7d5      	b.n	24004bda <HAL_I2C_Master_Receive+0x76>
24004c2e:	f7ff fd9c 	bl	2400476a <I2C_WaitOnRXNEFlagUntilTimeout>
24004c32:	2800      	cmp	r0, #0
24004c34:	d1b7      	bne.n	24004ba6 <HAL_I2C_Master_Receive+0x42>
24004c36:	6823      	ldr	r3, [r4, #0]
24004c38:	6a5a      	ldr	r2, [r3, #36]	; 0x24
24004c3a:	6a63      	ldr	r3, [r4, #36]	; 0x24
24004c3c:	701a      	strb	r2, [r3, #0]
24004c3e:	6a63      	ldr	r3, [r4, #36]	; 0x24
24004c40:	8d22      	ldrh	r2, [r4, #40]	; 0x28
24004c42:	3301      	adds	r3, #1
24004c44:	3a01      	subs	r2, #1
24004c46:	6263      	str	r3, [r4, #36]	; 0x24
24004c48:	8d63      	ldrh	r3, [r4, #42]	; 0x2a
24004c4a:	b292      	uxth	r2, r2
24004c4c:	3b01      	subs	r3, #1
24004c4e:	8522      	strh	r2, [r4, #40]	; 0x28
24004c50:	b29b      	uxth	r3, r3
24004c52:	8563      	strh	r3, [r4, #42]	; 0x2a
24004c54:	8d63      	ldrh	r3, [r4, #42]	; 0x2a
24004c56:	b29b      	uxth	r3, r3
24004c58:	2b00      	cmp	r3, #0
24004c5a:	d0c2      	beq.n	24004be2 <HAL_I2C_Master_Receive+0x7e>
24004c5c:	2a00      	cmp	r2, #0
24004c5e:	d1c0      	bne.n	24004be2 <HAL_I2C_Master_Receive+0x7e>
24004c60:	463b      	mov	r3, r7
24004c62:	2180      	movs	r1, #128	; 0x80
24004c64:	4620      	mov	r0, r4
24004c66:	9500      	str	r5, [sp, #0]
24004c68:	f7ff fdbe 	bl	240047e8 <I2C_WaitOnFlagUntilTimeout>
24004c6c:	2800      	cmp	r0, #0
24004c6e:	d19a      	bne.n	24004ba6 <HAL_I2C_Master_Receive+0x42>
24004c70:	8d63      	ldrh	r3, [r4, #42]	; 0x2a
24004c72:	b29b      	uxth	r3, r3
24004c74:	2bff      	cmp	r3, #255	; 0xff
24004c76:	d903      	bls.n	24004c80 <HAL_I2C_Master_Receive+0x11c>
24004c78:	22ff      	movs	r2, #255	; 0xff
24004c7a:	9000      	str	r0, [sp, #0]
24004c7c:	8522      	strh	r2, [r4, #40]	; 0x28
24004c7e:	e7aa      	b.n	24004bd6 <HAL_I2C_Master_Receive+0x72>
24004c80:	8d62      	ldrh	r2, [r4, #42]	; 0x2a
24004c82:	9000      	str	r0, [sp, #0]
24004c84:	b292      	uxth	r2, r2
24004c86:	8522      	strh	r2, [r4, #40]	; 0x28
24004c88:	e7cd      	b.n	24004c26 <HAL_I2C_Master_Receive+0xc2>
24004c8a:	2002      	movs	r0, #2
24004c8c:	e78c      	b.n	24004ba8 <HAL_I2C_Master_Receive+0x44>
24004c8e:	bf00      	nop
24004c90:	80002400 	.word	0x80002400

24004c94 <HAL_I2C_Slave_Transmit>:
24004c94:	e92d 47f3 	stmdb	sp!, {r0, r1, r4, r5, r6, r7, r8, r9, sl, lr}
24004c98:	461e      	mov	r6, r3
24004c9a:	f890 3041 	ldrb.w	r3, [r0, #65]	; 0x41
24004c9e:	4604      	mov	r4, r0
24004ca0:	4689      	mov	r9, r1
24004ca2:	2b20      	cmp	r3, #32
24004ca4:	4690      	mov	r8, r2
24004ca6:	fa5f fa83 	uxtb.w	sl, r3
24004caa:	f040 808d 	bne.w	24004dc8 <HAL_I2C_Slave_Transmit+0x134>
24004cae:	b101      	cbz	r1, 24004cb2 <HAL_I2C_Slave_Transmit+0x1e>
24004cb0:	b922      	cbnz	r2, 24004cbc <HAL_I2C_Slave_Transmit+0x28>
24004cb2:	f44f 7300 	mov.w	r3, #512	; 0x200
24004cb6:	6463      	str	r3, [r4, #68]	; 0x44
24004cb8:	2001      	movs	r0, #1
24004cba:	e082      	b.n	24004dc2 <HAL_I2C_Slave_Transmit+0x12e>
24004cbc:	f890 3040 	ldrb.w	r3, [r0, #64]	; 0x40
24004cc0:	2b01      	cmp	r3, #1
24004cc2:	f000 8081 	beq.w	24004dc8 <HAL_I2C_Slave_Transmit+0x134>
24004cc6:	2501      	movs	r5, #1
24004cc8:	f880 5040 	strb.w	r5, [r0, #64]	; 0x40
24004ccc:	f7fb fd6a 	bl	240007a4 <HAL_GetTick>
24004cd0:	2200      	movs	r2, #0
24004cd2:	6821      	ldr	r1, [r4, #0]
24004cd4:	2321      	movs	r3, #33	; 0x21
24004cd6:	6362      	str	r2, [r4, #52]	; 0x34
24004cd8:	4607      	mov	r7, r0
24004cda:	f884 3041 	strb.w	r3, [r4, #65]	; 0x41
24004cde:	f884 a042 	strb.w	sl, [r4, #66]	; 0x42
24004ce2:	6462      	str	r2, [r4, #68]	; 0x44
24004ce4:	f8a4 802a 	strh.w	r8, [r4, #42]	; 0x2a
24004ce8:	684b      	ldr	r3, [r1, #4]
24004cea:	f8c4 9024 	str.w	r9, [r4, #36]	; 0x24
24004cee:	f423 4300 	bic.w	r3, r3, #32768	; 0x8000
24004cf2:	604b      	str	r3, [r1, #4]
24004cf4:	4633      	mov	r3, r6
24004cf6:	9000      	str	r0, [sp, #0]
24004cf8:	2108      	movs	r1, #8
24004cfa:	4620      	mov	r0, r4
24004cfc:	f7ff fd74 	bl	240047e8 <I2C_WaitOnFlagUntilTimeout>
24004d00:	6823      	ldr	r3, [r4, #0]
24004d02:	4602      	mov	r2, r0
24004d04:	b120      	cbz	r0, 24004d10 <HAL_I2C_Slave_Transmit+0x7c>
24004d06:	685a      	ldr	r2, [r3, #4]
24004d08:	f442 4200 	orr.w	r2, r2, #32768	; 0x8000
24004d0c:	605a      	str	r2, [r3, #4]
24004d0e:	e7d3      	b.n	24004cb8 <HAL_I2C_Slave_Transmit+0x24>
24004d10:	f04f 0808 	mov.w	r8, #8
24004d14:	f8c3 801c 	str.w	r8, [r3, #28]
24004d18:	68e3      	ldr	r3, [r4, #12]
24004d1a:	2b02      	cmp	r3, #2
24004d1c:	d10a      	bne.n	24004d34 <HAL_I2C_Slave_Transmit+0xa0>
24004d1e:	4633      	mov	r3, r6
24004d20:	4641      	mov	r1, r8
24004d22:	4620      	mov	r0, r4
24004d24:	9700      	str	r7, [sp, #0]
24004d26:	f7ff fd5f 	bl	240047e8 <I2C_WaitOnFlagUntilTimeout>
24004d2a:	6823      	ldr	r3, [r4, #0]
24004d2c:	2800      	cmp	r0, #0
24004d2e:	d1ea      	bne.n	24004d06 <HAL_I2C_Slave_Transmit+0x72>
24004d30:	f8c3 801c 	str.w	r8, [r3, #28]
24004d34:	4633      	mov	r3, r6
24004d36:	2200      	movs	r2, #0
24004d38:	f44f 3180 	mov.w	r1, #65536	; 0x10000
24004d3c:	4620      	mov	r0, r4
24004d3e:	9700      	str	r7, [sp, #0]
24004d40:	f7ff fd52 	bl	240047e8 <I2C_WaitOnFlagUntilTimeout>
24004d44:	b198      	cbz	r0, 24004d6e <HAL_I2C_Slave_Transmit+0xda>
24004d46:	6822      	ldr	r2, [r4, #0]
24004d48:	6853      	ldr	r3, [r2, #4]
24004d4a:	f443 4300 	orr.w	r3, r3, #32768	; 0x8000
24004d4e:	6053      	str	r3, [r2, #4]
24004d50:	e7b2      	b.n	24004cb8 <HAL_I2C_Slave_Transmit+0x24>
24004d52:	f7ff fce3 	bl	2400471c <I2C_WaitOnTXISFlagUntilTimeout>
24004d56:	6822      	ldr	r2, [r4, #0]
24004d58:	2800      	cmp	r0, #0
24004d5a:	d1f5      	bne.n	24004d48 <HAL_I2C_Slave_Transmit+0xb4>
24004d5c:	6a63      	ldr	r3, [r4, #36]	; 0x24
24004d5e:	f813 1b01 	ldrb.w	r1, [r3], #1
24004d62:	6291      	str	r1, [r2, #40]	; 0x28
24004d64:	6263      	str	r3, [r4, #36]	; 0x24
24004d66:	8d63      	ldrh	r3, [r4, #42]	; 0x2a
24004d68:	3b01      	subs	r3, #1
24004d6a:	b29b      	uxth	r3, r3
24004d6c:	8563      	strh	r3, [r4, #42]	; 0x2a
24004d6e:	8d65      	ldrh	r5, [r4, #42]	; 0x2a
24004d70:	463a      	mov	r2, r7
24004d72:	4631      	mov	r1, r6
24004d74:	4620      	mov	r0, r4
24004d76:	b2ad      	uxth	r5, r5
24004d78:	2d00      	cmp	r5, #0
24004d7a:	d1ea      	bne.n	24004d52 <HAL_I2C_Slave_Transmit+0xbe>
24004d7c:	f7ff fdca 	bl	24004914 <I2C_WaitOnSTOPFlagUntilTimeout>
24004d80:	6823      	ldr	r3, [r4, #0]
24004d82:	b138      	cbz	r0, 24004d94 <HAL_I2C_Slave_Transmit+0x100>
24004d84:	685a      	ldr	r2, [r3, #4]
24004d86:	f442 4200 	orr.w	r2, r2, #32768	; 0x8000
24004d8a:	605a      	str	r2, [r3, #4]
24004d8c:	6c62      	ldr	r2, [r4, #68]	; 0x44
24004d8e:	2a04      	cmp	r2, #4
24004d90:	d192      	bne.n	24004cb8 <HAL_I2C_Slave_Transmit+0x24>
24004d92:	6465      	str	r5, [r4, #68]	; 0x44
24004d94:	2520      	movs	r5, #32
24004d96:	2201      	movs	r2, #1
24004d98:	f44f 4100 	mov.w	r1, #32768	; 0x8000
24004d9c:	4620      	mov	r0, r4
24004d9e:	61dd      	str	r5, [r3, #28]
24004da0:	4633      	mov	r3, r6
24004da2:	9700      	str	r7, [sp, #0]
24004da4:	f7ff fd20 	bl	240047e8 <I2C_WaitOnFlagUntilTimeout>
24004da8:	6823      	ldr	r3, [r4, #0]
24004daa:	685a      	ldr	r2, [r3, #4]
24004dac:	f442 4200 	orr.w	r2, r2, #32768	; 0x8000
24004db0:	605a      	str	r2, [r3, #4]
24004db2:	2800      	cmp	r0, #0
24004db4:	d180      	bne.n	24004cb8 <HAL_I2C_Slave_Transmit+0x24>
24004db6:	f884 5041 	strb.w	r5, [r4, #65]	; 0x41
24004dba:	f884 0040 	strb.w	r0, [r4, #64]	; 0x40
24004dbe:	f884 0042 	strb.w	r0, [r4, #66]	; 0x42
24004dc2:	b002      	add	sp, #8
24004dc4:	e8bd 87f0 	ldmia.w	sp!, {r4, r5, r6, r7, r8, r9, sl, pc}
24004dc8:	2002      	movs	r0, #2
24004dca:	e7fa      	b.n	24004dc2 <HAL_I2C_Slave_Transmit+0x12e>

24004dcc <HAL_I2C_Slave_Receive>:
24004dcc:	e92d 47f3 	stmdb	sp!, {r0, r1, r4, r5, r6, r7, r8, r9, sl, lr}
24004dd0:	461e      	mov	r6, r3
24004dd2:	f890 3041 	ldrb.w	r3, [r0, #65]	; 0x41
24004dd6:	4604      	mov	r4, r0
24004dd8:	4689      	mov	r9, r1
24004dda:	2b20      	cmp	r3, #32
24004ddc:	4690      	mov	r8, r2
24004dde:	fa5f fa83 	uxtb.w	sl, r3
24004de2:	f040 8086 	bne.w	24004ef2 <HAL_I2C_Slave_Receive+0x126>
24004de6:	b101      	cbz	r1, 24004dea <HAL_I2C_Slave_Receive+0x1e>
24004de8:	b922      	cbnz	r2, 24004df4 <HAL_I2C_Slave_Receive+0x28>
24004dea:	f44f 7300 	mov.w	r3, #512	; 0x200
24004dee:	6463      	str	r3, [r4, #68]	; 0x44
24004df0:	2001      	movs	r0, #1
24004df2:	e07b      	b.n	24004eec <HAL_I2C_Slave_Receive+0x120>
24004df4:	f890 3040 	ldrb.w	r3, [r0, #64]	; 0x40
24004df8:	2b01      	cmp	r3, #1
24004dfa:	d07a      	beq.n	24004ef2 <HAL_I2C_Slave_Receive+0x126>
24004dfc:	2501      	movs	r5, #1
24004dfe:	f880 5040 	strb.w	r5, [r0, #64]	; 0x40
24004e02:	f7fb fccf 	bl	240007a4 <HAL_GetTick>
24004e06:	6821      	ldr	r1, [r4, #0]
24004e08:	2200      	movs	r2, #0
24004e0a:	2322      	movs	r3, #34	; 0x22
24004e0c:	f8c4 9024 	str.w	r9, [r4, #36]	; 0x24
24004e10:	4607      	mov	r7, r0
24004e12:	f884 3041 	strb.w	r3, [r4, #65]	; 0x41
24004e16:	f884 a042 	strb.w	sl, [r4, #66]	; 0x42
24004e1a:	6462      	str	r2, [r4, #68]	; 0x44
24004e1c:	f8a4 802a 	strh.w	r8, [r4, #42]	; 0x2a
24004e20:	684b      	ldr	r3, [r1, #4]
24004e22:	6362      	str	r2, [r4, #52]	; 0x34
24004e24:	f423 4300 	bic.w	r3, r3, #32768	; 0x8000
24004e28:	604b      	str	r3, [r1, #4]
24004e2a:	4633      	mov	r3, r6
24004e2c:	9000      	str	r0, [sp, #0]
24004e2e:	2108      	movs	r1, #8
24004e30:	4620      	mov	r0, r4
24004e32:	f7ff fcd9 	bl	240047e8 <I2C_WaitOnFlagUntilTimeout>
24004e36:	6823      	ldr	r3, [r4, #0]
24004e38:	b120      	cbz	r0, 24004e44 <HAL_I2C_Slave_Receive+0x78>
24004e3a:	685a      	ldr	r2, [r3, #4]
24004e3c:	f442 4200 	orr.w	r2, r2, #32768	; 0x8000
24004e40:	605a      	str	r2, [r3, #4]
24004e42:	e7d5      	b.n	24004df0 <HAL_I2C_Slave_Receive+0x24>
24004e44:	2208      	movs	r2, #8
24004e46:	f44f 3180 	mov.w	r1, #65536	; 0x10000
24004e4a:	4620      	mov	r0, r4
24004e4c:	61da      	str	r2, [r3, #28]
24004e4e:	4633      	mov	r3, r6
24004e50:	462a      	mov	r2, r5
24004e52:	9700      	str	r7, [sp, #0]
24004e54:	f7ff fcc8 	bl	240047e8 <I2C_WaitOnFlagUntilTimeout>
24004e58:	b328      	cbz	r0, 24004ea6 <HAL_I2C_Slave_Receive+0xda>
24004e5a:	6822      	ldr	r2, [r4, #0]
24004e5c:	6853      	ldr	r3, [r2, #4]
24004e5e:	f443 4300 	orr.w	r3, r3, #32768	; 0x8000
24004e62:	6053      	str	r3, [r2, #4]
24004e64:	e7c4      	b.n	24004df0 <HAL_I2C_Slave_Receive+0x24>
24004e66:	f7ff fc80 	bl	2400476a <I2C_WaitOnRXNEFlagUntilTimeout>
24004e6a:	6823      	ldr	r3, [r4, #0]
24004e6c:	b188      	cbz	r0, 24004e92 <HAL_I2C_Slave_Receive+0xc6>
24004e6e:	685a      	ldr	r2, [r3, #4]
24004e70:	f442 4200 	orr.w	r2, r2, #32768	; 0x8000
24004e74:	605a      	str	r2, [r3, #4]
24004e76:	699a      	ldr	r2, [r3, #24]
24004e78:	0752      	lsls	r2, r2, #29
24004e7a:	d5b9      	bpl.n	24004df0 <HAL_I2C_Slave_Receive+0x24>
24004e7c:	6a5a      	ldr	r2, [r3, #36]	; 0x24
24004e7e:	6a63      	ldr	r3, [r4, #36]	; 0x24
24004e80:	701a      	strb	r2, [r3, #0]
24004e82:	6a63      	ldr	r3, [r4, #36]	; 0x24
24004e84:	3301      	adds	r3, #1
24004e86:	6263      	str	r3, [r4, #36]	; 0x24
24004e88:	8d63      	ldrh	r3, [r4, #42]	; 0x2a
24004e8a:	3b01      	subs	r3, #1
24004e8c:	b29b      	uxth	r3, r3
24004e8e:	8563      	strh	r3, [r4, #42]	; 0x2a
24004e90:	e7ae      	b.n	24004df0 <HAL_I2C_Slave_Receive+0x24>
24004e92:	6a5a      	ldr	r2, [r3, #36]	; 0x24
24004e94:	6a63      	ldr	r3, [r4, #36]	; 0x24
24004e96:	701a      	strb	r2, [r3, #0]
24004e98:	6a63      	ldr	r3, [r4, #36]	; 0x24
24004e9a:	3301      	adds	r3, #1
24004e9c:	6263      	str	r3, [r4, #36]	; 0x24
24004e9e:	8d63      	ldrh	r3, [r4, #42]	; 0x2a
24004ea0:	3b01      	subs	r3, #1
24004ea2:	b29b      	uxth	r3, r3
24004ea4:	8563      	strh	r3, [r4, #42]	; 0x2a
24004ea6:	8d63      	ldrh	r3, [r4, #42]	; 0x2a
24004ea8:	463a      	mov	r2, r7
24004eaa:	4631      	mov	r1, r6
24004eac:	4620      	mov	r0, r4
24004eae:	b29b      	uxth	r3, r3
24004eb0:	2b00      	cmp	r3, #0
24004eb2:	d1d8      	bne.n	24004e66 <HAL_I2C_Slave_Receive+0x9a>
24004eb4:	f7ff fd2e 	bl	24004914 <I2C_WaitOnSTOPFlagUntilTimeout>
24004eb8:	6823      	ldr	r3, [r4, #0]
24004eba:	2800      	cmp	r0, #0
24004ebc:	d1bd      	bne.n	24004e3a <HAL_I2C_Slave_Receive+0x6e>
24004ebe:	2520      	movs	r5, #32
24004ec0:	2201      	movs	r2, #1
24004ec2:	f44f 4100 	mov.w	r1, #32768	; 0x8000
24004ec6:	4620      	mov	r0, r4
24004ec8:	61dd      	str	r5, [r3, #28]
24004eca:	4633      	mov	r3, r6
24004ecc:	9700      	str	r7, [sp, #0]
24004ece:	f7ff fc8b 	bl	240047e8 <I2C_WaitOnFlagUntilTimeout>
24004ed2:	6823      	ldr	r3, [r4, #0]
24004ed4:	685a      	ldr	r2, [r3, #4]
24004ed6:	f442 4200 	orr.w	r2, r2, #32768	; 0x8000
24004eda:	605a      	str	r2, [r3, #4]
24004edc:	2800      	cmp	r0, #0
24004ede:	d187      	bne.n	24004df0 <HAL_I2C_Slave_Receive+0x24>
24004ee0:	f884 5041 	strb.w	r5, [r4, #65]	; 0x41
24004ee4:	f884 0040 	strb.w	r0, [r4, #64]	; 0x40
24004ee8:	f884 0042 	strb.w	r0, [r4, #66]	; 0x42
24004eec:	b002      	add	sp, #8
24004eee:	e8bd 87f0 	ldmia.w	sp!, {r4, r5, r6, r7, r8, r9, sl, pc}
24004ef2:	2002      	movs	r0, #2
24004ef4:	e7fa      	b.n	24004eec <HAL_I2C_Slave_Receive+0x120>
	...

24004ef8 <HAL_I2C_Master_Transmit_IT>:
24004ef8:	b537      	push	{r0, r1, r2, r4, r5, lr}
24004efa:	4604      	mov	r4, r0
24004efc:	f890 0041 	ldrb.w	r0, [r0, #65]	; 0x41
24004f00:	2820      	cmp	r0, #32
24004f02:	d135      	bne.n	24004f70 <HAL_I2C_Master_Transmit_IT+0x78>
24004f04:	6820      	ldr	r0, [r4, #0]
24004f06:	6980      	ldr	r0, [r0, #24]
24004f08:	f410 4000 	ands.w	r0, r0, #32768	; 0x8000
24004f0c:	d130      	bne.n	24004f70 <HAL_I2C_Master_Transmit_IT+0x78>
24004f0e:	f894 5040 	ldrb.w	r5, [r4, #64]	; 0x40
24004f12:	2d01      	cmp	r5, #1
24004f14:	d02c      	beq.n	24004f70 <HAL_I2C_Master_Transmit_IT+0x78>
24004f16:	2501      	movs	r5, #1
24004f18:	6262      	str	r2, [r4, #36]	; 0x24
24004f1a:	f884 5040 	strb.w	r5, [r4, #64]	; 0x40
24004f1e:	2521      	movs	r5, #33	; 0x21
24004f20:	f884 5041 	strb.w	r5, [r4, #65]	; 0x41
24004f24:	2510      	movs	r5, #16
24004f26:	f884 5042 	strb.w	r5, [r4, #66]	; 0x42
24004f2a:	6460      	str	r0, [r4, #68]	; 0x44
24004f2c:	8563      	strh	r3, [r4, #42]	; 0x2a
24004f2e:	4b11      	ldr	r3, [pc, #68]	; (24004f74 <HAL_I2C_Master_Transmit_IT+0x7c>)
24004f30:	62e3      	str	r3, [r4, #44]	; 0x2c
24004f32:	4b11      	ldr	r3, [pc, #68]	; (24004f78 <HAL_I2C_Master_Transmit_IT+0x80>)
24004f34:	6363      	str	r3, [r4, #52]	; 0x34
24004f36:	8d63      	ldrh	r3, [r4, #42]	; 0x2a
24004f38:	b29b      	uxth	r3, r3
24004f3a:	2bff      	cmp	r3, #255	; 0xff
24004f3c:	d814      	bhi.n	24004f68 <HAL_I2C_Master_Transmit_IT+0x70>
24004f3e:	8d62      	ldrh	r2, [r4, #42]	; 0x2a
24004f40:	f04f 7300 	mov.w	r3, #33554432	; 0x2000000
24004f44:	b292      	uxth	r2, r2
24004f46:	480d      	ldr	r0, [pc, #52]	; (24004f7c <HAL_I2C_Master_Transmit_IT+0x84>)
24004f48:	2500      	movs	r5, #0
24004f4a:	8522      	strh	r2, [r4, #40]	; 0x28
24004f4c:	b2d2      	uxtb	r2, r2
24004f4e:	9000      	str	r0, [sp, #0]
24004f50:	4620      	mov	r0, r4
24004f52:	f7ff fb2b 	bl	240045ac <I2C_TransferConfig>
24004f56:	4620      	mov	r0, r4
24004f58:	2101      	movs	r1, #1
24004f5a:	f884 5040 	strb.w	r5, [r4, #64]	; 0x40
24004f5e:	f7ff fb39 	bl	240045d4 <I2C_Enable_IRQ>
24004f62:	4628      	mov	r0, r5
24004f64:	b003      	add	sp, #12
24004f66:	bd30      	pop	{r4, r5, pc}
24004f68:	22ff      	movs	r2, #255	; 0xff
24004f6a:	f04f 7380 	mov.w	r3, #16777216	; 0x1000000
24004f6e:	e7ea      	b.n	24004f46 <HAL_I2C_Master_Transmit_IT+0x4e>
24004f70:	2002      	movs	r0, #2
24004f72:	e7f7      	b.n	24004f64 <HAL_I2C_Master_Transmit_IT+0x6c>
24004f74:	ffff0000 	.word	0xffff0000
24004f78:	24006cd5 	.word	0x24006cd5
24004f7c:	80002000 	.word	0x80002000

24004f80 <HAL_I2C_Master_Receive_IT>:
24004f80:	b537      	push	{r0, r1, r2, r4, r5, lr}
24004f82:	4604      	mov	r4, r0
24004f84:	f890 0041 	ldrb.w	r0, [r0, #65]	; 0x41
24004f88:	2820      	cmp	r0, #32
24004f8a:	d135      	bne.n	24004ff8 <HAL_I2C_Master_Receive_IT+0x78>
24004f8c:	6820      	ldr	r0, [r4, #0]
24004f8e:	6980      	ldr	r0, [r0, #24]
24004f90:	f410 4000 	ands.w	r0, r0, #32768	; 0x8000
24004f94:	d130      	bne.n	24004ff8 <HAL_I2C_Master_Receive_IT+0x78>
24004f96:	f894 5040 	ldrb.w	r5, [r4, #64]	; 0x40
24004f9a:	2d01      	cmp	r5, #1
24004f9c:	d02c      	beq.n	24004ff8 <HAL_I2C_Master_Receive_IT+0x78>
24004f9e:	2501      	movs	r5, #1
24004fa0:	6262      	str	r2, [r4, #36]	; 0x24
24004fa2:	f884 5040 	strb.w	r5, [r4, #64]	; 0x40
24004fa6:	2522      	movs	r5, #34	; 0x22
24004fa8:	f884 5041 	strb.w	r5, [r4, #65]	; 0x41
24004fac:	2510      	movs	r5, #16
24004fae:	f884 5042 	strb.w	r5, [r4, #66]	; 0x42
24004fb2:	6460      	str	r0, [r4, #68]	; 0x44
24004fb4:	8563      	strh	r3, [r4, #42]	; 0x2a
24004fb6:	4b11      	ldr	r3, [pc, #68]	; (24004ffc <HAL_I2C_Master_Receive_IT+0x7c>)
24004fb8:	62e3      	str	r3, [r4, #44]	; 0x2c
24004fba:	4b11      	ldr	r3, [pc, #68]	; (24005000 <HAL_I2C_Master_Receive_IT+0x80>)
24004fbc:	6363      	str	r3, [r4, #52]	; 0x34
24004fbe:	8d63      	ldrh	r3, [r4, #42]	; 0x2a
24004fc0:	b29b      	uxth	r3, r3
24004fc2:	2bff      	cmp	r3, #255	; 0xff
24004fc4:	d814      	bhi.n	24004ff0 <HAL_I2C_Master_Receive_IT+0x70>
24004fc6:	8d62      	ldrh	r2, [r4, #42]	; 0x2a
24004fc8:	f04f 7300 	mov.w	r3, #33554432	; 0x2000000
24004fcc:	b292      	uxth	r2, r2
24004fce:	480d      	ldr	r0, [pc, #52]	; (24005004 <HAL_I2C_Master_Receive_IT+0x84>)
24004fd0:	2500      	movs	r5, #0
24004fd2:	8522      	strh	r2, [r4, #40]	; 0x28
24004fd4:	b2d2      	uxtb	r2, r2
24004fd6:	9000      	str	r0, [sp, #0]
24004fd8:	4620      	mov	r0, r4
24004fda:	f7ff fae7 	bl	240045ac <I2C_TransferConfig>
24004fde:	4620      	mov	r0, r4
24004fe0:	2102      	movs	r1, #2
24004fe2:	f884 5040 	strb.w	r5, [r4, #64]	; 0x40
24004fe6:	f7ff faf5 	bl	240045d4 <I2C_Enable_IRQ>
24004fea:	4628      	mov	r0, r5
24004fec:	b003      	add	sp, #12
24004fee:	bd30      	pop	{r4, r5, pc}
24004ff0:	22ff      	movs	r2, #255	; 0xff
24004ff2:	f04f 7380 	mov.w	r3, #16777216	; 0x1000000
24004ff6:	e7ea      	b.n	24004fce <HAL_I2C_Master_Receive_IT+0x4e>
24004ff8:	2002      	movs	r0, #2
24004ffa:	e7f7      	b.n	24004fec <HAL_I2C_Master_Receive_IT+0x6c>
24004ffc:	ffff0000 	.word	0xffff0000
24005000:	24006cd5 	.word	0x24006cd5
24005004:	80002400 	.word	0x80002400

24005008 <HAL_I2C_Slave_Transmit_IT>:
24005008:	b570      	push	{r4, r5, r6, lr}
2400500a:	f890 4041 	ldrb.w	r4, [r0, #65]	; 0x41
2400500e:	2c20      	cmp	r4, #32
24005010:	b2e5      	uxtb	r5, r4
24005012:	d11f      	bne.n	24005054 <HAL_I2C_Slave_Transmit_IT+0x4c>
24005014:	f890 4040 	ldrb.w	r4, [r0, #64]	; 0x40
24005018:	2c01      	cmp	r4, #1
2400501a:	d01b      	beq.n	24005054 <HAL_I2C_Slave_Transmit_IT+0x4c>
2400501c:	2421      	movs	r4, #33	; 0x21
2400501e:	6806      	ldr	r6, [r0, #0]
24005020:	f880 4041 	strb.w	r4, [r0, #65]	; 0x41
24005024:	2400      	movs	r4, #0
24005026:	f880 5042 	strb.w	r5, [r0, #66]	; 0x42
2400502a:	6444      	str	r4, [r0, #68]	; 0x44
2400502c:	6875      	ldr	r5, [r6, #4]
2400502e:	f425 4500 	bic.w	r5, r5, #32768	; 0x8000
24005032:	6075      	str	r5, [r6, #4]
24005034:	8542      	strh	r2, [r0, #42]	; 0x2a
24005036:	8d42      	ldrh	r2, [r0, #42]	; 0x2a
24005038:	6241      	str	r1, [r0, #36]	; 0x24
2400503a:	f248 0101 	movw	r1, #32769	; 0x8001
2400503e:	8502      	strh	r2, [r0, #40]	; 0x28
24005040:	4a05      	ldr	r2, [pc, #20]	; (24005058 <HAL_I2C_Slave_Transmit_IT+0x50>)
24005042:	f880 4040 	strb.w	r4, [r0, #64]	; 0x40
24005046:	62c2      	str	r2, [r0, #44]	; 0x2c
24005048:	4a04      	ldr	r2, [pc, #16]	; (2400505c <HAL_I2C_Slave_Transmit_IT+0x54>)
2400504a:	6342      	str	r2, [r0, #52]	; 0x34
2400504c:	f7ff fac2 	bl	240045d4 <I2C_Enable_IRQ>
24005050:	4620      	mov	r0, r4
24005052:	bd70      	pop	{r4, r5, r6, pc}
24005054:	2002      	movs	r0, #2
24005056:	e7fc      	b.n	24005052 <HAL_I2C_Slave_Transmit_IT+0x4a>
24005058:	ffff0000 	.word	0xffff0000
2400505c:	24006add 	.word	0x24006add

24005060 <HAL_I2C_Slave_Receive_IT>:
24005060:	b570      	push	{r4, r5, r6, lr}
24005062:	f890 4041 	ldrb.w	r4, [r0, #65]	; 0x41
24005066:	2c20      	cmp	r4, #32
24005068:	b2e5      	uxtb	r5, r4
2400506a:	d11f      	bne.n	240050ac <HAL_I2C_Slave_Receive_IT+0x4c>
2400506c:	f890 4040 	ldrb.w	r4, [r0, #64]	; 0x40
24005070:	2c01      	cmp	r4, #1
24005072:	d01b      	beq.n	240050ac <HAL_I2C_Slave_Receive_IT+0x4c>
24005074:	2422      	movs	r4, #34	; 0x22
24005076:	6806      	ldr	r6, [r0, #0]
24005078:	f880 4041 	strb.w	r4, [r0, #65]	; 0x41
2400507c:	2400      	movs	r4, #0
2400507e:	f880 5042 	strb.w	r5, [r0, #66]	; 0x42
24005082:	6444      	str	r4, [r0, #68]	; 0x44
24005084:	6875      	ldr	r5, [r6, #4]
24005086:	f425 4500 	bic.w	r5, r5, #32768	; 0x8000
2400508a:	6075      	str	r5, [r6, #4]
2400508c:	8542      	strh	r2, [r0, #42]	; 0x2a
2400508e:	8d42      	ldrh	r2, [r0, #42]	; 0x2a
24005090:	6241      	str	r1, [r0, #36]	; 0x24
24005092:	f248 0102 	movw	r1, #32770	; 0x8002
24005096:	8502      	strh	r2, [r0, #40]	; 0x28
24005098:	4a05      	ldr	r2, [pc, #20]	; (240050b0 <HAL_I2C_Slave_Receive_IT+0x50>)
2400509a:	f880 4040 	strb.w	r4, [r0, #64]	; 0x40
2400509e:	62c2      	str	r2, [r0, #44]	; 0x2c
240050a0:	4a04      	ldr	r2, [pc, #16]	; (240050b4 <HAL_I2C_Slave_Receive_IT+0x54>)
240050a2:	6342      	str	r2, [r0, #52]	; 0x34
240050a4:	f7ff fa96 	bl	240045d4 <I2C_Enable_IRQ>
240050a8:	4620      	mov	r0, r4
240050aa:	bd70      	pop	{r4, r5, r6, pc}
240050ac:	2002      	movs	r0, #2
240050ae:	e7fc      	b.n	240050aa <HAL_I2C_Slave_Receive_IT+0x4a>
240050b0:	ffff0000 	.word	0xffff0000
240050b4:	24006add 	.word	0x24006add

240050b8 <HAL_I2C_Master_Transmit_DMA>:
240050b8:	e92d 41f3 	stmdb	sp!, {r0, r1, r4, r5, r6, r7, r8, lr}
240050bc:	460e      	mov	r6, r1
240050be:	4611      	mov	r1, r2
240050c0:	f890 2041 	ldrb.w	r2, [r0, #65]	; 0x41
240050c4:	4604      	mov	r4, r0
240050c6:	2a20      	cmp	r2, #32
240050c8:	d17e      	bne.n	240051c8 <HAL_I2C_Master_Transmit_DMA+0x110>
240050ca:	6802      	ldr	r2, [r0, #0]
240050cc:	6990      	ldr	r0, [r2, #24]
240050ce:	f410 4000 	ands.w	r0, r0, #32768	; 0x8000
240050d2:	d179      	bne.n	240051c8 <HAL_I2C_Master_Transmit_DMA+0x110>
240050d4:	f894 5040 	ldrb.w	r5, [r4, #64]	; 0x40
240050d8:	2d01      	cmp	r5, #1
240050da:	d075      	beq.n	240051c8 <HAL_I2C_Master_Transmit_DMA+0x110>
240050dc:	2501      	movs	r5, #1
240050de:	6261      	str	r1, [r4, #36]	; 0x24
240050e0:	f884 5040 	strb.w	r5, [r4, #64]	; 0x40
240050e4:	2521      	movs	r5, #33	; 0x21
240050e6:	f884 5041 	strb.w	r5, [r4, #65]	; 0x41
240050ea:	2510      	movs	r5, #16
240050ec:	f884 5042 	strb.w	r5, [r4, #66]	; 0x42
240050f0:	6460      	str	r0, [r4, #68]	; 0x44
240050f2:	8563      	strh	r3, [r4, #42]	; 0x2a
240050f4:	4b35      	ldr	r3, [pc, #212]	; (240051cc <HAL_I2C_Master_Transmit_DMA+0x114>)
240050f6:	62e3      	str	r3, [r4, #44]	; 0x2c
240050f8:	4b35      	ldr	r3, [pc, #212]	; (240051d0 <HAL_I2C_Master_Transmit_DMA+0x118>)
240050fa:	6363      	str	r3, [r4, #52]	; 0x34
240050fc:	8d63      	ldrh	r3, [r4, #42]	; 0x2a
240050fe:	b29b      	uxth	r3, r3
24005100:	2bff      	cmp	r3, #255	; 0xff
24005102:	d832      	bhi.n	2400516a <HAL_I2C_Master_Transmit_DMA+0xb2>
24005104:	8d65      	ldrh	r5, [r4, #42]	; 0x2a
24005106:	f04f 7800 	mov.w	r8, #33554432	; 0x2000000
2400510a:	b2ad      	uxth	r5, r5
2400510c:	8525      	strh	r5, [r4, #40]	; 0x28
2400510e:	2d00      	cmp	r5, #0
24005110:	d048      	beq.n	240051a4 <HAL_I2C_Master_Transmit_DMA+0xec>
24005112:	6ba0      	ldr	r0, [r4, #56]	; 0x38
24005114:	b368      	cbz	r0, 24005172 <HAL_I2C_Master_Transmit_DMA+0xba>
24005116:	4b2f      	ldr	r3, [pc, #188]	; (240051d4 <HAL_I2C_Master_Transmit_DMA+0x11c>)
24005118:	2700      	movs	r7, #0
2400511a:	3228      	adds	r2, #40	; 0x28
2400511c:	63c3      	str	r3, [r0, #60]	; 0x3c
2400511e:	4b2e      	ldr	r3, [pc, #184]	; (240051d8 <HAL_I2C_Master_Transmit_DMA+0x120>)
24005120:	6407      	str	r7, [r0, #64]	; 0x40
24005122:	64c3      	str	r3, [r0, #76]	; 0x4c
24005124:	462b      	mov	r3, r5
24005126:	6507      	str	r7, [r0, #80]	; 0x50
24005128:	f7fc fb92 	bl	24001850 <HAL_DMA_Start_IT>
2400512c:	4605      	mov	r5, r0
2400512e:	bb68      	cbnz	r0, 2400518c <HAL_I2C_Master_Transmit_DMA+0xd4>
24005130:	4b2a      	ldr	r3, [pc, #168]	; (240051dc <HAL_I2C_Master_Transmit_DMA+0x124>)
24005132:	4631      	mov	r1, r6
24005134:	f894 2028 	ldrb.w	r2, [r4, #40]	; 0x28
24005138:	4620      	mov	r0, r4
2400513a:	9300      	str	r3, [sp, #0]
2400513c:	4643      	mov	r3, r8
2400513e:	f7ff fa35 	bl	240045ac <I2C_TransferConfig>
24005142:	8d63      	ldrh	r3, [r4, #42]	; 0x2a
24005144:	8d22      	ldrh	r2, [r4, #40]	; 0x28
24005146:	2110      	movs	r1, #16
24005148:	4620      	mov	r0, r4
2400514a:	f884 5040 	strb.w	r5, [r4, #64]	; 0x40
2400514e:	1a9b      	subs	r3, r3, r2
24005150:	b29b      	uxth	r3, r3
24005152:	8563      	strh	r3, [r4, #42]	; 0x2a
24005154:	f7ff fa3e 	bl	240045d4 <I2C_Enable_IRQ>
24005158:	6822      	ldr	r2, [r4, #0]
2400515a:	6813      	ldr	r3, [r2, #0]
2400515c:	f443 4380 	orr.w	r3, r3, #16384	; 0x4000
24005160:	6013      	str	r3, [r2, #0]
24005162:	4628      	mov	r0, r5
24005164:	b002      	add	sp, #8
24005166:	e8bd 81f0 	ldmia.w	sp!, {r4, r5, r6, r7, r8, pc}
2400516a:	25ff      	movs	r5, #255	; 0xff
2400516c:	f04f 7880 	mov.w	r8, #16777216	; 0x1000000
24005170:	e7cc      	b.n	2400510c <HAL_I2C_Master_Transmit_DMA+0x54>
24005172:	2320      	movs	r3, #32
24005174:	f884 0040 	strb.w	r0, [r4, #64]	; 0x40
24005178:	f884 3041 	strb.w	r3, [r4, #65]	; 0x41
2400517c:	f884 0042 	strb.w	r0, [r4, #66]	; 0x42
24005180:	6c63      	ldr	r3, [r4, #68]	; 0x44
24005182:	f043 0380 	orr.w	r3, r3, #128	; 0x80
24005186:	6463      	str	r3, [r4, #68]	; 0x44
24005188:	2501      	movs	r5, #1
2400518a:	e7ea      	b.n	24005162 <HAL_I2C_Master_Transmit_DMA+0xaa>
2400518c:	2320      	movs	r3, #32
2400518e:	f884 7040 	strb.w	r7, [r4, #64]	; 0x40
24005192:	f884 3041 	strb.w	r3, [r4, #65]	; 0x41
24005196:	f884 7042 	strb.w	r7, [r4, #66]	; 0x42
2400519a:	6c63      	ldr	r3, [r4, #68]	; 0x44
2400519c:	f043 0310 	orr.w	r3, r3, #16
240051a0:	6463      	str	r3, [r4, #68]	; 0x44
240051a2:	e7f1      	b.n	24005188 <HAL_I2C_Master_Transmit_DMA+0xd0>
240051a4:	4b0e      	ldr	r3, [pc, #56]	; (240051e0 <HAL_I2C_Master_Transmit_DMA+0x128>)
240051a6:	4631      	mov	r1, r6
240051a8:	4620      	mov	r0, r4
240051aa:	462a      	mov	r2, r5
240051ac:	6363      	str	r3, [r4, #52]	; 0x34
240051ae:	4b0b      	ldr	r3, [pc, #44]	; (240051dc <HAL_I2C_Master_Transmit_DMA+0x124>)
240051b0:	9300      	str	r3, [sp, #0]
240051b2:	f04f 7300 	mov.w	r3, #33554432	; 0x2000000
240051b6:	f7ff f9f9 	bl	240045ac <I2C_TransferConfig>
240051ba:	2101      	movs	r1, #1
240051bc:	4620      	mov	r0, r4
240051be:	f884 5040 	strb.w	r5, [r4, #64]	; 0x40
240051c2:	f7ff fa07 	bl	240045d4 <I2C_Enable_IRQ>
240051c6:	e7cc      	b.n	24005162 <HAL_I2C_Master_Transmit_DMA+0xaa>
240051c8:	2502      	movs	r5, #2
240051ca:	e7ca      	b.n	24005162 <HAL_I2C_Master_Transmit_DMA+0xaa>
240051cc:	ffff0000 	.word	0xffff0000
240051d0:	24006f7d 	.word	0x24006f7d
240051d4:	24007161 	.word	0x24007161
240051d8:	24007085 	.word	0x24007085
240051dc:	80002000 	.word	0x80002000
240051e0:	24006cd5 	.word	0x24006cd5

240051e4 <HAL_I2C_Master_Receive_DMA>:
240051e4:	e92d 41f3 	stmdb	sp!, {r0, r1, r4, r5, r6, r7, r8, lr}
240051e8:	460e      	mov	r6, r1
240051ea:	f890 1041 	ldrb.w	r1, [r0, #65]	; 0x41
240051ee:	4604      	mov	r4, r0
240051f0:	2920      	cmp	r1, #32
240051f2:	d17e      	bne.n	240052f2 <HAL_I2C_Master_Receive_DMA+0x10e>
240051f4:	6801      	ldr	r1, [r0, #0]
240051f6:	6988      	ldr	r0, [r1, #24]
240051f8:	f410 4000 	ands.w	r0, r0, #32768	; 0x8000
240051fc:	d179      	bne.n	240052f2 <HAL_I2C_Master_Receive_DMA+0x10e>
240051fe:	f894 5040 	ldrb.w	r5, [r4, #64]	; 0x40
24005202:	2d01      	cmp	r5, #1
24005204:	d075      	beq.n	240052f2 <HAL_I2C_Master_Receive_DMA+0x10e>
24005206:	2501      	movs	r5, #1
24005208:	6262      	str	r2, [r4, #36]	; 0x24
2400520a:	f884 5040 	strb.w	r5, [r4, #64]	; 0x40
2400520e:	2522      	movs	r5, #34	; 0x22
24005210:	f884 5041 	strb.w	r5, [r4, #65]	; 0x41
24005214:	2510      	movs	r5, #16
24005216:	f884 5042 	strb.w	r5, [r4, #66]	; 0x42
2400521a:	6460      	str	r0, [r4, #68]	; 0x44
2400521c:	8563      	strh	r3, [r4, #42]	; 0x2a
2400521e:	4b36      	ldr	r3, [pc, #216]	; (240052f8 <HAL_I2C_Master_Receive_DMA+0x114>)
24005220:	62e3      	str	r3, [r4, #44]	; 0x2c
24005222:	4b36      	ldr	r3, [pc, #216]	; (240052fc <HAL_I2C_Master_Receive_DMA+0x118>)
24005224:	6363      	str	r3, [r4, #52]	; 0x34
24005226:	8d63      	ldrh	r3, [r4, #42]	; 0x2a
24005228:	b29b      	uxth	r3, r3
2400522a:	2bff      	cmp	r3, #255	; 0xff
2400522c:	d832      	bhi.n	24005294 <HAL_I2C_Master_Receive_DMA+0xb0>
2400522e:	8d65      	ldrh	r5, [r4, #42]	; 0x2a
24005230:	f04f 7800 	mov.w	r8, #33554432	; 0x2000000
24005234:	b2ad      	uxth	r5, r5
24005236:	8525      	strh	r5, [r4, #40]	; 0x28
24005238:	2d00      	cmp	r5, #0
2400523a:	d048      	beq.n	240052ce <HAL_I2C_Master_Receive_DMA+0xea>
2400523c:	6be0      	ldr	r0, [r4, #60]	; 0x3c
2400523e:	b368      	cbz	r0, 2400529c <HAL_I2C_Master_Receive_DMA+0xb8>
24005240:	4b2f      	ldr	r3, [pc, #188]	; (24005300 <HAL_I2C_Master_Receive_DMA+0x11c>)
24005242:	2700      	movs	r7, #0
24005244:	3124      	adds	r1, #36	; 0x24
24005246:	63c3      	str	r3, [r0, #60]	; 0x3c
24005248:	4b2e      	ldr	r3, [pc, #184]	; (24005304 <HAL_I2C_Master_Receive_DMA+0x120>)
2400524a:	6407      	str	r7, [r0, #64]	; 0x40
2400524c:	64c3      	str	r3, [r0, #76]	; 0x4c
2400524e:	462b      	mov	r3, r5
24005250:	6507      	str	r7, [r0, #80]	; 0x50
24005252:	f7fc fafd 	bl	24001850 <HAL_DMA_Start_IT>
24005256:	4605      	mov	r5, r0
24005258:	bb68      	cbnz	r0, 240052b6 <HAL_I2C_Master_Receive_DMA+0xd2>
2400525a:	4b2b      	ldr	r3, [pc, #172]	; (24005308 <HAL_I2C_Master_Receive_DMA+0x124>)
2400525c:	4631      	mov	r1, r6
2400525e:	f894 2028 	ldrb.w	r2, [r4, #40]	; 0x28
24005262:	4620      	mov	r0, r4
24005264:	9300      	str	r3, [sp, #0]
24005266:	4643      	mov	r3, r8
24005268:	f7ff f9a0 	bl	240045ac <I2C_TransferConfig>
2400526c:	8d63      	ldrh	r3, [r4, #42]	; 0x2a
2400526e:	8d22      	ldrh	r2, [r4, #40]	; 0x28
24005270:	2110      	movs	r1, #16
24005272:	4620      	mov	r0, r4
24005274:	f884 5040 	strb.w	r5, [r4, #64]	; 0x40
24005278:	1a9b      	subs	r3, r3, r2
2400527a:	b29b      	uxth	r3, r3
2400527c:	8563      	strh	r3, [r4, #42]	; 0x2a
2400527e:	f7ff f9a9 	bl	240045d4 <I2C_Enable_IRQ>
24005282:	6822      	ldr	r2, [r4, #0]
24005284:	6813      	ldr	r3, [r2, #0]
24005286:	f443 4300 	orr.w	r3, r3, #32768	; 0x8000
2400528a:	6013      	str	r3, [r2, #0]
2400528c:	4628      	mov	r0, r5
2400528e:	b002      	add	sp, #8
24005290:	e8bd 81f0 	ldmia.w	sp!, {r4, r5, r6, r7, r8, pc}
24005294:	25ff      	movs	r5, #255	; 0xff
24005296:	f04f 7880 	mov.w	r8, #16777216	; 0x1000000
2400529a:	e7cc      	b.n	24005236 <HAL_I2C_Master_Receive_DMA+0x52>
2400529c:	2320      	movs	r3, #32
2400529e:	f884 0040 	strb.w	r0, [r4, #64]	; 0x40
240052a2:	f884 3041 	strb.w	r3, [r4, #65]	; 0x41
240052a6:	f884 0042 	strb.w	r0, [r4, #66]	; 0x42
240052aa:	6c63      	ldr	r3, [r4, #68]	; 0x44
240052ac:	f043 0380 	orr.w	r3, r3, #128	; 0x80
240052b0:	6463      	str	r3, [r4, #68]	; 0x44
240052b2:	2501      	movs	r5, #1
240052b4:	e7ea      	b.n	2400528c <HAL_I2C_Master_Receive_DMA+0xa8>
240052b6:	2320      	movs	r3, #32
240052b8:	f884 7040 	strb.w	r7, [r4, #64]	; 0x40
240052bc:	f884 3041 	strb.w	r3, [r4, #65]	; 0x41
240052c0:	f884 7042 	strb.w	r7, [r4, #66]	; 0x42
240052c4:	6c63      	ldr	r3, [r4, #68]	; 0x44
240052c6:	f043 0310 	orr.w	r3, r3, #16
240052ca:	6463      	str	r3, [r4, #68]	; 0x44
240052cc:	e7f1      	b.n	240052b2 <HAL_I2C_Master_Receive_DMA+0xce>
240052ce:	4b0f      	ldr	r3, [pc, #60]	; (2400530c <HAL_I2C_Master_Receive_DMA+0x128>)
240052d0:	4631      	mov	r1, r6
240052d2:	4620      	mov	r0, r4
240052d4:	462a      	mov	r2, r5
240052d6:	6363      	str	r3, [r4, #52]	; 0x34
240052d8:	4b0b      	ldr	r3, [pc, #44]	; (24005308 <HAL_I2C_Master_Receive_DMA+0x124>)
240052da:	9300      	str	r3, [sp, #0]
240052dc:	f04f 7300 	mov.w	r3, #33554432	; 0x2000000
240052e0:	f7ff f964 	bl	240045ac <I2C_TransferConfig>
240052e4:	2101      	movs	r1, #1
240052e6:	4620      	mov	r0, r4
240052e8:	f884 5040 	strb.w	r5, [r4, #64]	; 0x40
240052ec:	f7ff f972 	bl	240045d4 <I2C_Enable_IRQ>
240052f0:	e7cc      	b.n	2400528c <HAL_I2C_Master_Receive_DMA+0xa8>
240052f2:	2502      	movs	r5, #2
240052f4:	e7ca      	b.n	2400528c <HAL_I2C_Master_Receive_DMA+0xa8>
240052f6:	bf00      	nop
240052f8:	ffff0000 	.word	0xffff0000
240052fc:	24006f7d 	.word	0x24006f7d
24005300:	240071b5 	.word	0x240071b5
24005304:	24007085 	.word	0x24007085
24005308:	80002400 	.word	0x80002400
2400530c:	24006cd5 	.word	0x24006cd5

24005310 <HAL_I2C_Slave_Transmit_DMA>:
24005310:	b5f8      	push	{r3, r4, r5, r6, r7, lr}
24005312:	4604      	mov	r4, r0
24005314:	f890 0041 	ldrb.w	r0, [r0, #65]	; 0x41
24005318:	2820      	cmp	r0, #32
2400531a:	b2c5      	uxtb	r5, r0
2400531c:	d156      	bne.n	240053cc <HAL_I2C_Slave_Transmit_DMA+0xbc>
2400531e:	b101      	cbz	r1, 24005322 <HAL_I2C_Slave_Transmit_DMA+0x12>
24005320:	b92a      	cbnz	r2, 2400532e <HAL_I2C_Slave_Transmit_DMA+0x1e>
24005322:	f44f 7300 	mov.w	r3, #512	; 0x200
24005326:	6463      	str	r3, [r4, #68]	; 0x44
24005328:	2501      	movs	r5, #1
2400532a:	4628      	mov	r0, r5
2400532c:	bdf8      	pop	{r3, r4, r5, r6, r7, pc}
2400532e:	f894 0040 	ldrb.w	r0, [r4, #64]	; 0x40
24005332:	2801      	cmp	r0, #1
24005334:	d04a      	beq.n	240053cc <HAL_I2C_Slave_Transmit_DMA+0xbc>
24005336:	2021      	movs	r0, #33	; 0x21
24005338:	2600      	movs	r6, #0
2400533a:	2701      	movs	r7, #1
2400533c:	6261      	str	r1, [r4, #36]	; 0x24
2400533e:	f884 0041 	strb.w	r0, [r4, #65]	; 0x41
24005342:	f884 5042 	strb.w	r5, [r4, #66]	; 0x42
24005346:	6466      	str	r6, [r4, #68]	; 0x44
24005348:	8562      	strh	r2, [r4, #42]	; 0x2a
2400534a:	4a21      	ldr	r2, [pc, #132]	; (240053d0 <HAL_I2C_Slave_Transmit_DMA+0xc0>)
2400534c:	8d63      	ldrh	r3, [r4, #42]	; 0x2a
2400534e:	6ba0      	ldr	r0, [r4, #56]	; 0x38
24005350:	b29b      	uxth	r3, r3
24005352:	62e2      	str	r2, [r4, #44]	; 0x2c
24005354:	4a1f      	ldr	r2, [pc, #124]	; (240053d4 <HAL_I2C_Slave_Transmit_DMA+0xc4>)
24005356:	f884 7040 	strb.w	r7, [r4, #64]	; 0x40
2400535a:	8523      	strh	r3, [r4, #40]	; 0x28
2400535c:	6362      	str	r2, [r4, #52]	; 0x34
2400535e:	b1e8      	cbz	r0, 2400539c <HAL_I2C_Slave_Transmit_DMA+0x8c>
24005360:	4a1d      	ldr	r2, [pc, #116]	; (240053d8 <HAL_I2C_Slave_Transmit_DMA+0xc8>)
24005362:	6406      	str	r6, [r0, #64]	; 0x40
24005364:	63c2      	str	r2, [r0, #60]	; 0x3c
24005366:	4a1d      	ldr	r2, [pc, #116]	; (240053dc <HAL_I2C_Slave_Transmit_DMA+0xcc>)
24005368:	6506      	str	r6, [r0, #80]	; 0x50
2400536a:	64c2      	str	r2, [r0, #76]	; 0x4c
2400536c:	6822      	ldr	r2, [r4, #0]
2400536e:	3228      	adds	r2, #40	; 0x28
24005370:	f7fc fa6e 	bl	24001850 <HAL_DMA_Start_IT>
24005374:	4605      	mov	r5, r0
24005376:	b9e8      	cbnz	r0, 240053b4 <HAL_I2C_Slave_Transmit_DMA+0xa4>
24005378:	6822      	ldr	r2, [r4, #0]
2400537a:	f44f 4100 	mov.w	r1, #32768	; 0x8000
2400537e:	6853      	ldr	r3, [r2, #4]
24005380:	f423 4300 	bic.w	r3, r3, #32768	; 0x8000
24005384:	6053      	str	r3, [r2, #4]
24005386:	f884 0040 	strb.w	r0, [r4, #64]	; 0x40
2400538a:	4620      	mov	r0, r4
2400538c:	f7ff f922 	bl	240045d4 <I2C_Enable_IRQ>
24005390:	6822      	ldr	r2, [r4, #0]
24005392:	6813      	ldr	r3, [r2, #0]
24005394:	f443 4380 	orr.w	r3, r3, #16384	; 0x4000
24005398:	6013      	str	r3, [r2, #0]
2400539a:	e7c6      	b.n	2400532a <HAL_I2C_Slave_Transmit_DMA+0x1a>
2400539c:	2328      	movs	r3, #40	; 0x28
2400539e:	f884 0040 	strb.w	r0, [r4, #64]	; 0x40
240053a2:	f884 3041 	strb.w	r3, [r4, #65]	; 0x41
240053a6:	f884 0042 	strb.w	r0, [r4, #66]	; 0x42
240053aa:	6c63      	ldr	r3, [r4, #68]	; 0x44
240053ac:	f043 0380 	orr.w	r3, r3, #128	; 0x80
240053b0:	6463      	str	r3, [r4, #68]	; 0x44
240053b2:	e7b9      	b.n	24005328 <HAL_I2C_Slave_Transmit_DMA+0x18>
240053b4:	2328      	movs	r3, #40	; 0x28
240053b6:	f884 6040 	strb.w	r6, [r4, #64]	; 0x40
240053ba:	f884 3041 	strb.w	r3, [r4, #65]	; 0x41
240053be:	f884 6042 	strb.w	r6, [r4, #66]	; 0x42
240053c2:	6c63      	ldr	r3, [r4, #68]	; 0x44
240053c4:	f043 0310 	orr.w	r3, r3, #16
240053c8:	6463      	str	r3, [r4, #68]	; 0x44
240053ca:	e7ad      	b.n	24005328 <HAL_I2C_Slave_Transmit_DMA+0x18>
240053cc:	2502      	movs	r5, #2
240053ce:	e7ac      	b.n	2400532a <HAL_I2C_Slave_Transmit_DMA+0x1a>
240053d0:	ffff0000 	.word	0xffff0000
240053d4:	24006df9 	.word	0x24006df9
240053d8:	240066bf 	.word	0x240066bf
240053dc:	24007085 	.word	0x24007085

240053e0 <HAL_I2C_Slave_Receive_DMA>:
240053e0:	b5f8      	push	{r3, r4, r5, r6, r7, lr}
240053e2:	f890 3041 	ldrb.w	r3, [r0, #65]	; 0x41
240053e6:	4604      	mov	r4, r0
240053e8:	2b20      	cmp	r3, #32
240053ea:	b2d8      	uxtb	r0, r3
240053ec:	d158      	bne.n	240054a0 <HAL_I2C_Slave_Receive_DMA+0xc0>
240053ee:	b101      	cbz	r1, 240053f2 <HAL_I2C_Slave_Receive_DMA+0x12>
240053f0:	b92a      	cbnz	r2, 240053fe <HAL_I2C_Slave_Receive_DMA+0x1e>
240053f2:	f44f 7300 	mov.w	r3, #512	; 0x200
240053f6:	6463      	str	r3, [r4, #68]	; 0x44
240053f8:	2501      	movs	r5, #1
240053fa:	4628      	mov	r0, r5
240053fc:	bdf8      	pop	{r3, r4, r5, r6, r7, pc}
240053fe:	f894 3040 	ldrb.w	r3, [r4, #64]	; 0x40
24005402:	2b01      	cmp	r3, #1
24005404:	d04c      	beq.n	240054a0 <HAL_I2C_Slave_Receive_DMA+0xc0>
24005406:	2322      	movs	r3, #34	; 0x22
24005408:	2600      	movs	r6, #0
2400540a:	2701      	movs	r7, #1
2400540c:	6261      	str	r1, [r4, #36]	; 0x24
2400540e:	f884 3041 	strb.w	r3, [r4, #65]	; 0x41
24005412:	f884 0042 	strb.w	r0, [r4, #66]	; 0x42
24005416:	6466      	str	r6, [r4, #68]	; 0x44
24005418:	8562      	strh	r2, [r4, #42]	; 0x2a
2400541a:	4a22      	ldr	r2, [pc, #136]	; (240054a4 <HAL_I2C_Slave_Receive_DMA+0xc4>)
2400541c:	8d63      	ldrh	r3, [r4, #42]	; 0x2a
2400541e:	6be0      	ldr	r0, [r4, #60]	; 0x3c
24005420:	b29b      	uxth	r3, r3
24005422:	62e2      	str	r2, [r4, #44]	; 0x2c
24005424:	4a20      	ldr	r2, [pc, #128]	; (240054a8 <HAL_I2C_Slave_Receive_DMA+0xc8>)
24005426:	f884 7040 	strb.w	r7, [r4, #64]	; 0x40
2400542a:	8523      	strh	r3, [r4, #40]	; 0x28
2400542c:	6362      	str	r2, [r4, #52]	; 0x34
2400542e:	b1f8      	cbz	r0, 24005470 <HAL_I2C_Slave_Receive_DMA+0x90>
24005430:	4a1e      	ldr	r2, [pc, #120]	; (240054ac <HAL_I2C_Slave_Receive_DMA+0xcc>)
24005432:	6825      	ldr	r5, [r4, #0]
24005434:	63c2      	str	r2, [r0, #60]	; 0x3c
24005436:	4a1e      	ldr	r2, [pc, #120]	; (240054b0 <HAL_I2C_Slave_Receive_DMA+0xd0>)
24005438:	6406      	str	r6, [r0, #64]	; 0x40
2400543a:	64c2      	str	r2, [r0, #76]	; 0x4c
2400543c:	460a      	mov	r2, r1
2400543e:	6506      	str	r6, [r0, #80]	; 0x50
24005440:	f105 0124 	add.w	r1, r5, #36	; 0x24
24005444:	f7fc fa04 	bl	24001850 <HAL_DMA_Start_IT>
24005448:	4605      	mov	r5, r0
2400544a:	b9e8      	cbnz	r0, 24005488 <HAL_I2C_Slave_Receive_DMA+0xa8>
2400544c:	6822      	ldr	r2, [r4, #0]
2400544e:	f44f 4100 	mov.w	r1, #32768	; 0x8000
24005452:	6853      	ldr	r3, [r2, #4]
24005454:	f423 4300 	bic.w	r3, r3, #32768	; 0x8000
24005458:	6053      	str	r3, [r2, #4]
2400545a:	f884 0040 	strb.w	r0, [r4, #64]	; 0x40
2400545e:	4620      	mov	r0, r4
24005460:	f7ff f8b8 	bl	240045d4 <I2C_Enable_IRQ>
24005464:	6822      	ldr	r2, [r4, #0]
24005466:	6813      	ldr	r3, [r2, #0]
24005468:	f443 4300 	orr.w	r3, r3, #32768	; 0x8000
2400546c:	6013      	str	r3, [r2, #0]
2400546e:	e7c4      	b.n	240053fa <HAL_I2C_Slave_Receive_DMA+0x1a>
24005470:	2328      	movs	r3, #40	; 0x28
24005472:	f884 0040 	strb.w	r0, [r4, #64]	; 0x40
24005476:	f884 3041 	strb.w	r3, [r4, #65]	; 0x41
2400547a:	f884 0042 	strb.w	r0, [r4, #66]	; 0x42
2400547e:	6c63      	ldr	r3, [r4, #68]	; 0x44
24005480:	f043 0380 	orr.w	r3, r3, #128	; 0x80
24005484:	6463      	str	r3, [r4, #68]	; 0x44
24005486:	e7b7      	b.n	240053f8 <HAL_I2C_Slave_Receive_DMA+0x18>
24005488:	2328      	movs	r3, #40	; 0x28
2400548a:	f884 6040 	strb.w	r6, [r4, #64]	; 0x40
2400548e:	f884 3041 	strb.w	r3, [r4, #65]	; 0x41
24005492:	f884 6042 	strb.w	r6, [r4, #66]	; 0x42
24005496:	6c63      	ldr	r3, [r4, #68]	; 0x44
24005498:	f043 0310 	orr.w	r3, r3, #16
2400549c:	6463      	str	r3, [r4, #68]	; 0x44
2400549e:	e7ab      	b.n	240053f8 <HAL_I2C_Slave_Receive_DMA+0x18>
240054a0:	2502      	movs	r5, #2
240054a2:	e7aa      	b.n	240053fa <HAL_I2C_Slave_Receive_DMA+0x1a>
240054a4:	ffff0000 	.word	0xffff0000
240054a8:	24006df9 	.word	0x24006df9
240054ac:	240066d9 	.word	0x240066d9
240054b0:	24007085 	.word	0x24007085

240054b4 <HAL_I2C_Mem_Write>:
240054b4:	e92d 4ff0 	stmdb	sp!, {r4, r5, r6, r7, r8, r9, sl, fp, lr}
240054b8:	b085      	sub	sp, #20
240054ba:	469b      	mov	fp, r3
240054bc:	4604      	mov	r4, r0
240054be:	460f      	mov	r7, r1
240054c0:	f8bd 303c 	ldrh.w	r3, [sp, #60]	; 0x3c
240054c4:	4692      	mov	sl, r2
240054c6:	f8dd 9040 	ldr.w	r9, [sp, #64]	; 0x40
240054ca:	9303      	str	r3, [sp, #12]
240054cc:	f890 3041 	ldrb.w	r3, [r0, #65]	; 0x41
240054d0:	2b20      	cmp	r3, #32
240054d2:	f040 80a3 	bne.w	2400561c <HAL_I2C_Mem_Write+0x168>
240054d6:	9b0e      	ldr	r3, [sp, #56]	; 0x38
240054d8:	b10b      	cbz	r3, 240054de <HAL_I2C_Mem_Write+0x2a>
240054da:	9b03      	ldr	r3, [sp, #12]
240054dc:	b933      	cbnz	r3, 240054ec <HAL_I2C_Mem_Write+0x38>
240054de:	f44f 7300 	mov.w	r3, #512	; 0x200
240054e2:	6463      	str	r3, [r4, #68]	; 0x44
240054e4:	2001      	movs	r0, #1
240054e6:	b005      	add	sp, #20
240054e8:	e8bd 8ff0 	ldmia.w	sp!, {r4, r5, r6, r7, r8, r9, sl, fp, pc}
240054ec:	f890 3040 	ldrb.w	r3, [r0, #64]	; 0x40
240054f0:	2b01      	cmp	r3, #1
240054f2:	f000 8093 	beq.w	2400561c <HAL_I2C_Mem_Write+0x168>
240054f6:	2501      	movs	r5, #1
240054f8:	f880 5040 	strb.w	r5, [r0, #64]	; 0x40
240054fc:	f7fb f952 	bl	240007a4 <HAL_GetTick>
24005500:	2319      	movs	r3, #25
24005502:	9000      	str	r0, [sp, #0]
24005504:	4606      	mov	r6, r0
24005506:	462a      	mov	r2, r5
24005508:	f44f 4100 	mov.w	r1, #32768	; 0x8000
2400550c:	4620      	mov	r0, r4
2400550e:	f7ff f96b 	bl	240047e8 <I2C_WaitOnFlagUntilTimeout>
24005512:	4680      	mov	r8, r0
24005514:	2800      	cmp	r0, #0
24005516:	d1e5      	bne.n	240054e4 <HAL_I2C_Mem_Write+0x30>
24005518:	2321      	movs	r3, #33	; 0x21
2400551a:	6360      	str	r0, [r4, #52]	; 0x34
2400551c:	4652      	mov	r2, sl
2400551e:	4639      	mov	r1, r7
24005520:	f884 3041 	strb.w	r3, [r4, #65]	; 0x41
24005524:	2340      	movs	r3, #64	; 0x40
24005526:	f884 3042 	strb.w	r3, [r4, #66]	; 0x42
2400552a:	9b0e      	ldr	r3, [sp, #56]	; 0x38
2400552c:	6460      	str	r0, [r4, #68]	; 0x44
2400552e:	4620      	mov	r0, r4
24005530:	6263      	str	r3, [r4, #36]	; 0x24
24005532:	9b03      	ldr	r3, [sp, #12]
24005534:	e9cd 9600 	strd	r9, r6, [sp]
24005538:	8563      	strh	r3, [r4, #42]	; 0x2a
2400553a:	465b      	mov	r3, fp
2400553c:	f7ff f97e 	bl	2400483c <I2C_RequestMemoryWrite>
24005540:	b110      	cbz	r0, 24005548 <HAL_I2C_Mem_Write+0x94>
24005542:	f884 8040 	strb.w	r8, [r4, #64]	; 0x40
24005546:	e7cd      	b.n	240054e4 <HAL_I2C_Mem_Write+0x30>
24005548:	8d63      	ldrh	r3, [r4, #42]	; 0x2a
2400554a:	b29b      	uxth	r3, r3
2400554c:	2bff      	cmp	r3, #255	; 0xff
2400554e:	d955      	bls.n	240055fc <HAL_I2C_Mem_Write+0x148>
24005550:	22ff      	movs	r2, #255	; 0xff
24005552:	f04f 7380 	mov.w	r3, #16777216	; 0x1000000
24005556:	9000      	str	r0, [sp, #0]
24005558:	8522      	strh	r2, [r4, #40]	; 0x28
2400555a:	4639      	mov	r1, r7
2400555c:	4620      	mov	r0, r4
2400555e:	f7ff f825 	bl	240045ac <I2C_TransferConfig>
24005562:	4632      	mov	r2, r6
24005564:	4649      	mov	r1, r9
24005566:	4620      	mov	r0, r4
24005568:	f7ff f8d8 	bl	2400471c <I2C_WaitOnTXISFlagUntilTimeout>
2400556c:	2800      	cmp	r0, #0
2400556e:	d1b9      	bne.n	240054e4 <HAL_I2C_Mem_Write+0x30>
24005570:	6a63      	ldr	r3, [r4, #36]	; 0x24
24005572:	6822      	ldr	r2, [r4, #0]
24005574:	f813 1b01 	ldrb.w	r1, [r3], #1
24005578:	6291      	str	r1, [r2, #40]	; 0x28
2400557a:	6263      	str	r3, [r4, #36]	; 0x24
2400557c:	8d63      	ldrh	r3, [r4, #42]	; 0x2a
2400557e:	8d22      	ldrh	r2, [r4, #40]	; 0x28
24005580:	3b01      	subs	r3, #1
24005582:	3a01      	subs	r2, #1
24005584:	b29b      	uxth	r3, r3
24005586:	b292      	uxth	r2, r2
24005588:	8563      	strh	r3, [r4, #42]	; 0x2a
2400558a:	8d63      	ldrh	r3, [r4, #42]	; 0x2a
2400558c:	8522      	strh	r2, [r4, #40]	; 0x28
2400558e:	b29b      	uxth	r3, r3
24005590:	b1ab      	cbz	r3, 240055be <HAL_I2C_Mem_Write+0x10a>
24005592:	b9a2      	cbnz	r2, 240055be <HAL_I2C_Mem_Write+0x10a>
24005594:	464b      	mov	r3, r9
24005596:	2180      	movs	r1, #128	; 0x80
24005598:	4620      	mov	r0, r4
2400559a:	9600      	str	r6, [sp, #0]
2400559c:	f7ff f924 	bl	240047e8 <I2C_WaitOnFlagUntilTimeout>
240055a0:	2800      	cmp	r0, #0
240055a2:	d19f      	bne.n	240054e4 <HAL_I2C_Mem_Write+0x30>
240055a4:	8d63      	ldrh	r3, [r4, #42]	; 0x2a
240055a6:	b29b      	uxth	r3, r3
240055a8:	2bff      	cmp	r3, #255	; 0xff
240055aa:	d92f      	bls.n	2400560c <HAL_I2C_Mem_Write+0x158>
240055ac:	22ff      	movs	r2, #255	; 0xff
240055ae:	f04f 7380 	mov.w	r3, #16777216	; 0x1000000
240055b2:	9000      	str	r0, [sp, #0]
240055b4:	8522      	strh	r2, [r4, #40]	; 0x28
240055b6:	4639      	mov	r1, r7
240055b8:	4620      	mov	r0, r4
240055ba:	f7fe fff7 	bl	240045ac <I2C_TransferConfig>
240055be:	8d63      	ldrh	r3, [r4, #42]	; 0x2a
240055c0:	b29b      	uxth	r3, r3
240055c2:	2b00      	cmp	r3, #0
240055c4:	d1cd      	bne.n	24005562 <HAL_I2C_Mem_Write+0xae>
240055c6:	4632      	mov	r2, r6
240055c8:	4649      	mov	r1, r9
240055ca:	4620      	mov	r0, r4
240055cc:	f7ff f9a2 	bl	24004914 <I2C_WaitOnSTOPFlagUntilTimeout>
240055d0:	2800      	cmp	r0, #0
240055d2:	d187      	bne.n	240054e4 <HAL_I2C_Mem_Write+0x30>
240055d4:	6823      	ldr	r3, [r4, #0]
240055d6:	2120      	movs	r1, #32
240055d8:	61d9      	str	r1, [r3, #28]
240055da:	685a      	ldr	r2, [r3, #4]
240055dc:	f022 72ff 	bic.w	r2, r2, #33423360	; 0x1fe0000
240055e0:	f422 328b 	bic.w	r2, r2, #71168	; 0x11600
240055e4:	f422 72ff 	bic.w	r2, r2, #510	; 0x1fe
240055e8:	f022 0201 	bic.w	r2, r2, #1
240055ec:	605a      	str	r2, [r3, #4]
240055ee:	f884 1041 	strb.w	r1, [r4, #65]	; 0x41
240055f2:	f884 0040 	strb.w	r0, [r4, #64]	; 0x40
240055f6:	f884 0042 	strb.w	r0, [r4, #66]	; 0x42
240055fa:	e774      	b.n	240054e6 <HAL_I2C_Mem_Write+0x32>
240055fc:	8d62      	ldrh	r2, [r4, #42]	; 0x2a
240055fe:	f04f 7300 	mov.w	r3, #33554432	; 0x2000000
24005602:	9000      	str	r0, [sp, #0]
24005604:	b292      	uxth	r2, r2
24005606:	8522      	strh	r2, [r4, #40]	; 0x28
24005608:	b2d2      	uxtb	r2, r2
2400560a:	e7a6      	b.n	2400555a <HAL_I2C_Mem_Write+0xa6>
2400560c:	8d62      	ldrh	r2, [r4, #42]	; 0x2a
2400560e:	f04f 7300 	mov.w	r3, #33554432	; 0x2000000
24005612:	9000      	str	r0, [sp, #0]
24005614:	b292      	uxth	r2, r2
24005616:	8522      	strh	r2, [r4, #40]	; 0x28
24005618:	b2d2      	uxtb	r2, r2
2400561a:	e7cc      	b.n	240055b6 <HAL_I2C_Mem_Write+0x102>
2400561c:	2002      	movs	r0, #2
2400561e:	e762      	b.n	240054e6 <HAL_I2C_Mem_Write+0x32>

24005620 <HAL_I2C_Mem_Read>:
24005620:	e92d 4ff0 	stmdb	sp!, {r4, r5, r6, r7, r8, r9, sl, fp, lr}
24005624:	b085      	sub	sp, #20
24005626:	469b      	mov	fp, r3
24005628:	4604      	mov	r4, r0
2400562a:	460f      	mov	r7, r1
2400562c:	f8bd 303c 	ldrh.w	r3, [sp, #60]	; 0x3c
24005630:	4692      	mov	sl, r2
24005632:	f8dd 9040 	ldr.w	r9, [sp, #64]	; 0x40
24005636:	9303      	str	r3, [sp, #12]
24005638:	f890 3041 	ldrb.w	r3, [r0, #65]	; 0x41
2400563c:	2b20      	cmp	r3, #32
2400563e:	f040 80a7 	bne.w	24005790 <HAL_I2C_Mem_Read+0x170>
24005642:	9b0e      	ldr	r3, [sp, #56]	; 0x38
24005644:	b10b      	cbz	r3, 2400564a <HAL_I2C_Mem_Read+0x2a>
24005646:	9b03      	ldr	r3, [sp, #12]
24005648:	b933      	cbnz	r3, 24005658 <HAL_I2C_Mem_Read+0x38>
2400564a:	f44f 7300 	mov.w	r3, #512	; 0x200
2400564e:	6463      	str	r3, [r4, #68]	; 0x44
24005650:	2001      	movs	r0, #1
24005652:	b005      	add	sp, #20
24005654:	e8bd 8ff0 	ldmia.w	sp!, {r4, r5, r6, r7, r8, r9, sl, fp, pc}
24005658:	f890 3040 	ldrb.w	r3, [r0, #64]	; 0x40
2400565c:	2b01      	cmp	r3, #1
2400565e:	f000 8097 	beq.w	24005790 <HAL_I2C_Mem_Read+0x170>
24005662:	2501      	movs	r5, #1
24005664:	f880 5040 	strb.w	r5, [r0, #64]	; 0x40
24005668:	f7fb f89c 	bl	240007a4 <HAL_GetTick>
2400566c:	2319      	movs	r3, #25
2400566e:	9000      	str	r0, [sp, #0]
24005670:	4606      	mov	r6, r0
24005672:	462a      	mov	r2, r5
24005674:	f44f 4100 	mov.w	r1, #32768	; 0x8000
24005678:	4620      	mov	r0, r4
2400567a:	f7ff f8b5 	bl	240047e8 <I2C_WaitOnFlagUntilTimeout>
2400567e:	4680      	mov	r8, r0
24005680:	2800      	cmp	r0, #0
24005682:	d1e5      	bne.n	24005650 <HAL_I2C_Mem_Read+0x30>
24005684:	2322      	movs	r3, #34	; 0x22
24005686:	6360      	str	r0, [r4, #52]	; 0x34
24005688:	4652      	mov	r2, sl
2400568a:	4639      	mov	r1, r7
2400568c:	f884 3041 	strb.w	r3, [r4, #65]	; 0x41
24005690:	2340      	movs	r3, #64	; 0x40
24005692:	f884 3042 	strb.w	r3, [r4, #66]	; 0x42
24005696:	9b0e      	ldr	r3, [sp, #56]	; 0x38
24005698:	6460      	str	r0, [r4, #68]	; 0x44
2400569a:	4620      	mov	r0, r4
2400569c:	6263      	str	r3, [r4, #36]	; 0x24
2400569e:	9b03      	ldr	r3, [sp, #12]
240056a0:	e9cd 9600 	strd	r9, r6, [sp]
240056a4:	8563      	strh	r3, [r4, #42]	; 0x2a
240056a6:	465b      	mov	r3, fp
240056a8:	f7ff f8fe 	bl	240048a8 <I2C_RequestMemoryRead>
240056ac:	b110      	cbz	r0, 240056b4 <HAL_I2C_Mem_Read+0x94>
240056ae:	f884 8040 	strb.w	r8, [r4, #64]	; 0x40
240056b2:	e7cd      	b.n	24005650 <HAL_I2C_Mem_Read+0x30>
240056b4:	8d63      	ldrh	r3, [r4, #42]	; 0x2a
240056b6:	b29b      	uxth	r3, r3
240056b8:	2bff      	cmp	r3, #255	; 0xff
240056ba:	4b36      	ldr	r3, [pc, #216]	; (24005794 <HAL_I2C_Mem_Read+0x174>)
240056bc:	d958      	bls.n	24005770 <HAL_I2C_Mem_Read+0x150>
240056be:	22ff      	movs	r2, #255	; 0xff
240056c0:	9300      	str	r3, [sp, #0]
240056c2:	f04f 7380 	mov.w	r3, #16777216	; 0x1000000
240056c6:	8522      	strh	r2, [r4, #40]	; 0x28
240056c8:	4639      	mov	r1, r7
240056ca:	4620      	mov	r0, r4
240056cc:	f7fe ff6e 	bl	240045ac <I2C_TransferConfig>
240056d0:	464b      	mov	r3, r9
240056d2:	2200      	movs	r2, #0
240056d4:	2104      	movs	r1, #4
240056d6:	4620      	mov	r0, r4
240056d8:	9600      	str	r6, [sp, #0]
240056da:	f7ff f885 	bl	240047e8 <I2C_WaitOnFlagUntilTimeout>
240056de:	2800      	cmp	r0, #0
240056e0:	d1b6      	bne.n	24005650 <HAL_I2C_Mem_Read+0x30>
240056e2:	6823      	ldr	r3, [r4, #0]
240056e4:	6a5a      	ldr	r2, [r3, #36]	; 0x24
240056e6:	6a63      	ldr	r3, [r4, #36]	; 0x24
240056e8:	701a      	strb	r2, [r3, #0]
240056ea:	6a63      	ldr	r3, [r4, #36]	; 0x24
240056ec:	8d22      	ldrh	r2, [r4, #40]	; 0x28
240056ee:	3301      	adds	r3, #1
240056f0:	3a01      	subs	r2, #1
240056f2:	6263      	str	r3, [r4, #36]	; 0x24
240056f4:	8d63      	ldrh	r3, [r4, #42]	; 0x2a
240056f6:	b292      	uxth	r2, r2
240056f8:	3b01      	subs	r3, #1
240056fa:	8522      	strh	r2, [r4, #40]	; 0x28
240056fc:	b29b      	uxth	r3, r3
240056fe:	8563      	strh	r3, [r4, #42]	; 0x2a
24005700:	8d63      	ldrh	r3, [r4, #42]	; 0x2a
24005702:	b29b      	uxth	r3, r3
24005704:	b1ab      	cbz	r3, 24005732 <HAL_I2C_Mem_Read+0x112>
24005706:	b9a2      	cbnz	r2, 24005732 <HAL_I2C_Mem_Read+0x112>
24005708:	464b      	mov	r3, r9
2400570a:	2180      	movs	r1, #128	; 0x80
2400570c:	4620      	mov	r0, r4
2400570e:	9600      	str	r6, [sp, #0]
24005710:	f7ff f86a 	bl	240047e8 <I2C_WaitOnFlagUntilTimeout>
24005714:	2800      	cmp	r0, #0
24005716:	d19b      	bne.n	24005650 <HAL_I2C_Mem_Read+0x30>
24005718:	8d63      	ldrh	r3, [r4, #42]	; 0x2a
2400571a:	b29b      	uxth	r3, r3
2400571c:	2bff      	cmp	r3, #255	; 0xff
2400571e:	d92f      	bls.n	24005780 <HAL_I2C_Mem_Read+0x160>
24005720:	22ff      	movs	r2, #255	; 0xff
24005722:	f04f 7380 	mov.w	r3, #16777216	; 0x1000000
24005726:	9000      	str	r0, [sp, #0]
24005728:	8522      	strh	r2, [r4, #40]	; 0x28
2400572a:	4639      	mov	r1, r7
2400572c:	4620      	mov	r0, r4
2400572e:	f7fe ff3d 	bl	240045ac <I2C_TransferConfig>
24005732:	8d63      	ldrh	r3, [r4, #42]	; 0x2a
24005734:	b29b      	uxth	r3, r3
24005736:	2b00      	cmp	r3, #0
24005738:	d1ca      	bne.n	240056d0 <HAL_I2C_Mem_Read+0xb0>
2400573a:	4632      	mov	r2, r6
2400573c:	4649      	mov	r1, r9
2400573e:	4620      	mov	r0, r4
24005740:	f7ff f8e8 	bl	24004914 <I2C_WaitOnSTOPFlagUntilTimeout>
24005744:	2800      	cmp	r0, #0
24005746:	d183      	bne.n	24005650 <HAL_I2C_Mem_Read+0x30>
24005748:	6823      	ldr	r3, [r4, #0]
2400574a:	2120      	movs	r1, #32
2400574c:	61d9      	str	r1, [r3, #28]
2400574e:	685a      	ldr	r2, [r3, #4]
24005750:	f022 72ff 	bic.w	r2, r2, #33423360	; 0x1fe0000
24005754:	f422 328b 	bic.w	r2, r2, #71168	; 0x11600
24005758:	f422 72ff 	bic.w	r2, r2, #510	; 0x1fe
2400575c:	f022 0201 	bic.w	r2, r2, #1
24005760:	605a      	str	r2, [r3, #4]
24005762:	f884 1041 	strb.w	r1, [r4, #65]	; 0x41
24005766:	f884 0040 	strb.w	r0, [r4, #64]	; 0x40
2400576a:	f884 0042 	strb.w	r0, [r4, #66]	; 0x42
2400576e:	e770      	b.n	24005652 <HAL_I2C_Mem_Read+0x32>
24005770:	8d62      	ldrh	r2, [r4, #42]	; 0x2a
24005772:	9300      	str	r3, [sp, #0]
24005774:	f04f 7300 	mov.w	r3, #33554432	; 0x2000000
24005778:	b292      	uxth	r2, r2
2400577a:	8522      	strh	r2, [r4, #40]	; 0x28
2400577c:	b2d2      	uxtb	r2, r2
2400577e:	e7a3      	b.n	240056c8 <HAL_I2C_Mem_Read+0xa8>
24005780:	8d62      	ldrh	r2, [r4, #42]	; 0x2a
24005782:	f04f 7300 	mov.w	r3, #33554432	; 0x2000000
24005786:	9000      	str	r0, [sp, #0]
24005788:	b292      	uxth	r2, r2
2400578a:	8522      	strh	r2, [r4, #40]	; 0x28
2400578c:	b2d2      	uxtb	r2, r2
2400578e:	e7cc      	b.n	2400572a <HAL_I2C_Mem_Read+0x10a>
24005790:	2002      	movs	r0, #2
24005792:	e75e      	b.n	24005652 <HAL_I2C_Mem_Read+0x32>
24005794:	80002400 	.word	0x80002400

24005798 <HAL_I2C_Mem_Write_IT>:
24005798:	b5f0      	push	{r4, r5, r6, r7, lr}
2400579a:	4604      	mov	r4, r0
2400579c:	f890 0041 	ldrb.w	r0, [r0, #65]	; 0x41
240057a0:	b087      	sub	sp, #28
240057a2:	2820      	cmp	r0, #32
240057a4:	9e0c      	ldr	r6, [sp, #48]	; 0x30
240057a6:	f8bd 7034 	ldrh.w	r7, [sp, #52]	; 0x34
240057aa:	d154      	bne.n	24005856 <HAL_I2C_Mem_Write_IT+0xbe>
240057ac:	b106      	cbz	r6, 240057b0 <HAL_I2C_Mem_Write_IT+0x18>
240057ae:	b937      	cbnz	r7, 240057be <HAL_I2C_Mem_Write_IT+0x26>
240057b0:	f44f 7300 	mov.w	r3, #512	; 0x200
240057b4:	6463      	str	r3, [r4, #68]	; 0x44
240057b6:	2501      	movs	r5, #1
240057b8:	4628      	mov	r0, r5
240057ba:	b007      	add	sp, #28
240057bc:	bdf0      	pop	{r4, r5, r6, r7, pc}
240057be:	6820      	ldr	r0, [r4, #0]
240057c0:	9103      	str	r1, [sp, #12]
240057c2:	6985      	ldr	r5, [r0, #24]
240057c4:	f415 4500 	ands.w	r5, r5, #32768	; 0x8000
240057c8:	e9cd 2304 	strd	r2, r3, [sp, #16]
240057cc:	d143      	bne.n	24005856 <HAL_I2C_Mem_Write_IT+0xbe>
240057ce:	f894 0040 	ldrb.w	r0, [r4, #64]	; 0x40
240057d2:	2801      	cmp	r0, #1
240057d4:	d03f      	beq.n	24005856 <HAL_I2C_Mem_Write_IT+0xbe>
240057d6:	2001      	movs	r0, #1
240057d8:	f884 0040 	strb.w	r0, [r4, #64]	; 0x40
240057dc:	f7fa ffe2 	bl	240007a4 <HAL_GetTick>
240057e0:	f04f 0c21 	mov.w	ip, #33	; 0x21
240057e4:	9b05      	ldr	r3, [sp, #20]
240057e6:	f884 c041 	strb.w	ip, [r4, #65]	; 0x41
240057ea:	f04f 0c40 	mov.w	ip, #64	; 0x40
240057ee:	6266      	str	r6, [r4, #36]	; 0x24
240057f0:	f884 c042 	strb.w	ip, [r4, #66]	; 0x42
240057f4:	6465      	str	r5, [r4, #68]	; 0x44
240057f6:	4d19      	ldr	r5, [pc, #100]	; (2400585c <HAL_I2C_Mem_Write_IT+0xc4>)
240057f8:	8567      	strh	r7, [r4, #42]	; 0x2a
240057fa:	62e5      	str	r5, [r4, #44]	; 0x2c
240057fc:	4d18      	ldr	r5, [pc, #96]	; (24005860 <HAL_I2C_Mem_Write_IT+0xc8>)
240057fe:	6365      	str	r5, [r4, #52]	; 0x34
24005800:	8d65      	ldrh	r5, [r4, #42]	; 0x2a
24005802:	b2ad      	uxth	r5, r5
24005804:	2dff      	cmp	r5, #255	; 0xff
24005806:	e9dd 1203 	ldrd	r1, r2, [sp, #12]
2400580a:	d812      	bhi.n	24005832 <HAL_I2C_Mem_Write_IT+0x9a>
2400580c:	8d65      	ldrh	r5, [r4, #42]	; 0x2a
2400580e:	f04f 7600 	mov.w	r6, #33554432	; 0x2000000
24005812:	b2ad      	uxth	r5, r5
24005814:	9001      	str	r0, [sp, #4]
24005816:	2019      	movs	r0, #25
24005818:	8525      	strh	r5, [r4, #40]	; 0x28
2400581a:	9000      	str	r0, [sp, #0]
2400581c:	4620      	mov	r0, r4
2400581e:	9103      	str	r1, [sp, #12]
24005820:	f7ff f80c 	bl	2400483c <I2C_RequestMemoryWrite>
24005824:	9903      	ldr	r1, [sp, #12]
24005826:	4605      	mov	r5, r0
24005828:	b138      	cbz	r0, 2400583a <HAL_I2C_Mem_Write_IT+0xa2>
2400582a:	2300      	movs	r3, #0
2400582c:	f884 3040 	strb.w	r3, [r4, #64]	; 0x40
24005830:	e7c1      	b.n	240057b6 <HAL_I2C_Mem_Write_IT+0x1e>
24005832:	25ff      	movs	r5, #255	; 0xff
24005834:	f04f 7680 	mov.w	r6, #16777216	; 0x1000000
24005838:	e7ec      	b.n	24005814 <HAL_I2C_Mem_Write_IT+0x7c>
2400583a:	9000      	str	r0, [sp, #0]
2400583c:	4633      	mov	r3, r6
2400583e:	4620      	mov	r0, r4
24005840:	f894 2028 	ldrb.w	r2, [r4, #40]	; 0x28
24005844:	f7fe feb2 	bl	240045ac <I2C_TransferConfig>
24005848:	2101      	movs	r1, #1
2400584a:	4620      	mov	r0, r4
2400584c:	f884 5040 	strb.w	r5, [r4, #64]	; 0x40
24005850:	f7fe fec0 	bl	240045d4 <I2C_Enable_IRQ>
24005854:	e7b0      	b.n	240057b8 <HAL_I2C_Mem_Write_IT+0x20>
24005856:	2502      	movs	r5, #2
24005858:	e7ae      	b.n	240057b8 <HAL_I2C_Mem_Write_IT+0x20>
2400585a:	bf00      	nop
2400585c:	ffff0000 	.word	0xffff0000
24005860:	24006cd5 	.word	0x24006cd5

24005864 <HAL_I2C_Mem_Read_IT>:
24005864:	b5f0      	push	{r4, r5, r6, r7, lr}
24005866:	4604      	mov	r4, r0
24005868:	f890 0041 	ldrb.w	r0, [r0, #65]	; 0x41
2400586c:	b087      	sub	sp, #28
2400586e:	2820      	cmp	r0, #32
24005870:	9e0c      	ldr	r6, [sp, #48]	; 0x30
24005872:	f8bd 7034 	ldrh.w	r7, [sp, #52]	; 0x34
24005876:	d155      	bne.n	24005924 <HAL_I2C_Mem_Read_IT+0xc0>
24005878:	b106      	cbz	r6, 2400587c <HAL_I2C_Mem_Read_IT+0x18>
2400587a:	b937      	cbnz	r7, 2400588a <HAL_I2C_Mem_Read_IT+0x26>
2400587c:	f44f 7300 	mov.w	r3, #512	; 0x200
24005880:	6463      	str	r3, [r4, #68]	; 0x44
24005882:	2501      	movs	r5, #1
24005884:	4628      	mov	r0, r5
24005886:	b007      	add	sp, #28
24005888:	bdf0      	pop	{r4, r5, r6, r7, pc}
2400588a:	6820      	ldr	r0, [r4, #0]
2400588c:	9103      	str	r1, [sp, #12]
2400588e:	6985      	ldr	r5, [r0, #24]
24005890:	f415 4500 	ands.w	r5, r5, #32768	; 0x8000
24005894:	e9cd 2304 	strd	r2, r3, [sp, #16]
24005898:	d144      	bne.n	24005924 <HAL_I2C_Mem_Read_IT+0xc0>
2400589a:	f894 0040 	ldrb.w	r0, [r4, #64]	; 0x40
2400589e:	2801      	cmp	r0, #1
240058a0:	d040      	beq.n	24005924 <HAL_I2C_Mem_Read_IT+0xc0>
240058a2:	2001      	movs	r0, #1
240058a4:	f884 0040 	strb.w	r0, [r4, #64]	; 0x40
240058a8:	f7fa ff7c 	bl	240007a4 <HAL_GetTick>
240058ac:	f04f 0c22 	mov.w	ip, #34	; 0x22
240058b0:	9b05      	ldr	r3, [sp, #20]
240058b2:	f884 c041 	strb.w	ip, [r4, #65]	; 0x41
240058b6:	f04f 0c40 	mov.w	ip, #64	; 0x40
240058ba:	6266      	str	r6, [r4, #36]	; 0x24
240058bc:	f884 c042 	strb.w	ip, [r4, #66]	; 0x42
240058c0:	6465      	str	r5, [r4, #68]	; 0x44
240058c2:	4d19      	ldr	r5, [pc, #100]	; (24005928 <HAL_I2C_Mem_Read_IT+0xc4>)
240058c4:	8567      	strh	r7, [r4, #42]	; 0x2a
240058c6:	62e5      	str	r5, [r4, #44]	; 0x2c
240058c8:	4d18      	ldr	r5, [pc, #96]	; (2400592c <HAL_I2C_Mem_Read_IT+0xc8>)
240058ca:	6365      	str	r5, [r4, #52]	; 0x34
240058cc:	8d65      	ldrh	r5, [r4, #42]	; 0x2a
240058ce:	b2ad      	uxth	r5, r5
240058d0:	2dff      	cmp	r5, #255	; 0xff
240058d2:	e9dd 1203 	ldrd	r1, r2, [sp, #12]
240058d6:	d812      	bhi.n	240058fe <HAL_I2C_Mem_Read_IT+0x9a>
240058d8:	8d65      	ldrh	r5, [r4, #42]	; 0x2a
240058da:	f04f 7600 	mov.w	r6, #33554432	; 0x2000000
240058de:	b2ad      	uxth	r5, r5
240058e0:	9001      	str	r0, [sp, #4]
240058e2:	2019      	movs	r0, #25
240058e4:	8525      	strh	r5, [r4, #40]	; 0x28
240058e6:	9000      	str	r0, [sp, #0]
240058e8:	4620      	mov	r0, r4
240058ea:	9103      	str	r1, [sp, #12]
240058ec:	f7fe ffdc 	bl	240048a8 <I2C_RequestMemoryRead>
240058f0:	9903      	ldr	r1, [sp, #12]
240058f2:	4605      	mov	r5, r0
240058f4:	b138      	cbz	r0, 24005906 <HAL_I2C_Mem_Read_IT+0xa2>
240058f6:	2300      	movs	r3, #0
240058f8:	f884 3040 	strb.w	r3, [r4, #64]	; 0x40
240058fc:	e7c1      	b.n	24005882 <HAL_I2C_Mem_Read_IT+0x1e>
240058fe:	25ff      	movs	r5, #255	; 0xff
24005900:	f04f 7680 	mov.w	r6, #16777216	; 0x1000000
24005904:	e7ec      	b.n	240058e0 <HAL_I2C_Mem_Read_IT+0x7c>
24005906:	4b0a      	ldr	r3, [pc, #40]	; (24005930 <HAL_I2C_Mem_Read_IT+0xcc>)
24005908:	4620      	mov	r0, r4
2400590a:	f894 2028 	ldrb.w	r2, [r4, #40]	; 0x28
2400590e:	9300      	str	r3, [sp, #0]
24005910:	4633      	mov	r3, r6
24005912:	f7fe fe4b 	bl	240045ac <I2C_TransferConfig>
24005916:	2102      	movs	r1, #2
24005918:	4620      	mov	r0, r4
2400591a:	f884 5040 	strb.w	r5, [r4, #64]	; 0x40
2400591e:	f7fe fe59 	bl	240045d4 <I2C_Enable_IRQ>
24005922:	e7af      	b.n	24005884 <HAL_I2C_Mem_Read_IT+0x20>
24005924:	2502      	movs	r5, #2
24005926:	e7ad      	b.n	24005884 <HAL_I2C_Mem_Read_IT+0x20>
24005928:	ffff0000 	.word	0xffff0000
2400592c:	24006cd5 	.word	0x24006cd5
24005930:	80002400 	.word	0x80002400

24005934 <HAL_I2C_Mem_Write_DMA>:
24005934:	e92d 41ff 	stmdb	sp!, {r0, r1, r2, r3, r4, r5, r6, r7, r8, lr}
24005938:	460f      	mov	r7, r1
2400593a:	f890 1041 	ldrb.w	r1, [r0, #65]	; 0x41
2400593e:	4604      	mov	r4, r0
24005940:	9d0a      	ldr	r5, [sp, #40]	; 0x28
24005942:	2920      	cmp	r1, #32
24005944:	f8bd 802c 	ldrh.w	r8, [sp, #44]	; 0x2c
24005948:	f040 8087 	bne.w	24005a5a <HAL_I2C_Mem_Write_DMA+0x126>
2400594c:	b115      	cbz	r5, 24005954 <HAL_I2C_Mem_Write_DMA+0x20>
2400594e:	f1b8 0f00 	cmp.w	r8, #0
24005952:	d104      	bne.n	2400595e <HAL_I2C_Mem_Write_DMA+0x2a>
24005954:	f44f 7300 	mov.w	r3, #512	; 0x200
24005958:	6463      	str	r3, [r4, #68]	; 0x44
2400595a:	2501      	movs	r5, #1
2400595c:	e061      	b.n	24005a22 <HAL_I2C_Mem_Write_DMA+0xee>
2400595e:	6801      	ldr	r1, [r0, #0]
24005960:	698e      	ldr	r6, [r1, #24]
24005962:	f416 4600 	ands.w	r6, r6, #32768	; 0x8000
24005966:	e9cd 2302 	strd	r2, r3, [sp, #8]
2400596a:	d176      	bne.n	24005a5a <HAL_I2C_Mem_Write_DMA+0x126>
2400596c:	f890 1040 	ldrb.w	r1, [r0, #64]	; 0x40
24005970:	2901      	cmp	r1, #1
24005972:	d072      	beq.n	24005a5a <HAL_I2C_Mem_Write_DMA+0x126>
24005974:	2101      	movs	r1, #1
24005976:	f880 1040 	strb.w	r1, [r0, #64]	; 0x40
2400597a:	f7fa ff13 	bl	240007a4 <HAL_GetTick>
2400597e:	2121      	movs	r1, #33	; 0x21
24005980:	6265      	str	r5, [r4, #36]	; 0x24
24005982:	f884 1041 	strb.w	r1, [r4, #65]	; 0x41
24005986:	2140      	movs	r1, #64	; 0x40
24005988:	f884 1042 	strb.w	r1, [r4, #66]	; 0x42
2400598c:	4934      	ldr	r1, [pc, #208]	; (24005a60 <HAL_I2C_Mem_Write_DMA+0x12c>)
2400598e:	6466      	str	r6, [r4, #68]	; 0x44
24005990:	f8a4 802a 	strh.w	r8, [r4, #42]	; 0x2a
24005994:	62e1      	str	r1, [r4, #44]	; 0x2c
24005996:	4933      	ldr	r1, [pc, #204]	; (24005a64 <HAL_I2C_Mem_Write_DMA+0x130>)
24005998:	6361      	str	r1, [r4, #52]	; 0x34
2400599a:	8d61      	ldrh	r1, [r4, #42]	; 0x2a
2400599c:	b289      	uxth	r1, r1
2400599e:	29ff      	cmp	r1, #255	; 0xff
240059a0:	e9dd 2302 	ldrd	r2, r3, [sp, #8]
240059a4:	d811      	bhi.n	240059ca <HAL_I2C_Mem_Write_DMA+0x96>
240059a6:	8d61      	ldrh	r1, [r4, #42]	; 0x2a
240059a8:	f04f 7800 	mov.w	r8, #33554432	; 0x2000000
240059ac:	b289      	uxth	r1, r1
240059ae:	8521      	strh	r1, [r4, #40]	; 0x28
240059b0:	2119      	movs	r1, #25
240059b2:	9001      	str	r0, [sp, #4]
240059b4:	4620      	mov	r0, r4
240059b6:	9100      	str	r1, [sp, #0]
240059b8:	4639      	mov	r1, r7
240059ba:	f7fe ff3f 	bl	2400483c <I2C_RequestMemoryWrite>
240059be:	4606      	mov	r6, r0
240059c0:	b138      	cbz	r0, 240059d2 <HAL_I2C_Mem_Write_DMA+0x9e>
240059c2:	2300      	movs	r3, #0
240059c4:	f884 3040 	strb.w	r3, [r4, #64]	; 0x40
240059c8:	e7c7      	b.n	2400595a <HAL_I2C_Mem_Write_DMA+0x26>
240059ca:	21ff      	movs	r1, #255	; 0xff
240059cc:	f04f 7880 	mov.w	r8, #16777216	; 0x1000000
240059d0:	e7ed      	b.n	240059ae <HAL_I2C_Mem_Write_DMA+0x7a>
240059d2:	6ba0      	ldr	r0, [r4, #56]	; 0x38
240059d4:	b348      	cbz	r0, 24005a2a <HAL_I2C_Mem_Write_DMA+0xf6>
240059d6:	4b24      	ldr	r3, [pc, #144]	; (24005a68 <HAL_I2C_Mem_Write_DMA+0x134>)
240059d8:	4629      	mov	r1, r5
240059da:	6822      	ldr	r2, [r4, #0]
240059dc:	63c3      	str	r3, [r0, #60]	; 0x3c
240059de:	4b23      	ldr	r3, [pc, #140]	; (24005a6c <HAL_I2C_Mem_Write_DMA+0x138>)
240059e0:	3228      	adds	r2, #40	; 0x28
240059e2:	6406      	str	r6, [r0, #64]	; 0x40
240059e4:	64c3      	str	r3, [r0, #76]	; 0x4c
240059e6:	6506      	str	r6, [r0, #80]	; 0x50
240059e8:	8d23      	ldrh	r3, [r4, #40]	; 0x28
240059ea:	f7fb ff31 	bl	24001850 <HAL_DMA_Start_IT>
240059ee:	4605      	mov	r5, r0
240059f0:	bb38      	cbnz	r0, 24005a42 <HAL_I2C_Mem_Write_DMA+0x10e>
240059f2:	4643      	mov	r3, r8
240059f4:	f894 2028 	ldrb.w	r2, [r4, #40]	; 0x28
240059f8:	4639      	mov	r1, r7
240059fa:	9000      	str	r0, [sp, #0]
240059fc:	4620      	mov	r0, r4
240059fe:	f7fe fdd5 	bl	240045ac <I2C_TransferConfig>
24005a02:	8d63      	ldrh	r3, [r4, #42]	; 0x2a
24005a04:	8d22      	ldrh	r2, [r4, #40]	; 0x28
24005a06:	2110      	movs	r1, #16
24005a08:	4620      	mov	r0, r4
24005a0a:	f884 5040 	strb.w	r5, [r4, #64]	; 0x40
24005a0e:	1a9b      	subs	r3, r3, r2
24005a10:	b29b      	uxth	r3, r3
24005a12:	8563      	strh	r3, [r4, #42]	; 0x2a
24005a14:	f7fe fdde 	bl	240045d4 <I2C_Enable_IRQ>
24005a18:	6822      	ldr	r2, [r4, #0]
24005a1a:	6813      	ldr	r3, [r2, #0]
24005a1c:	f443 4380 	orr.w	r3, r3, #16384	; 0x4000
24005a20:	6013      	str	r3, [r2, #0]
24005a22:	4628      	mov	r0, r5
24005a24:	b004      	add	sp, #16
24005a26:	e8bd 81f0 	ldmia.w	sp!, {r4, r5, r6, r7, r8, pc}
24005a2a:	2320      	movs	r3, #32
24005a2c:	f884 0040 	strb.w	r0, [r4, #64]	; 0x40
24005a30:	f884 3041 	strb.w	r3, [r4, #65]	; 0x41
24005a34:	f884 0042 	strb.w	r0, [r4, #66]	; 0x42
24005a38:	6c63      	ldr	r3, [r4, #68]	; 0x44
24005a3a:	f043 0380 	orr.w	r3, r3, #128	; 0x80
24005a3e:	6463      	str	r3, [r4, #68]	; 0x44
24005a40:	e78b      	b.n	2400595a <HAL_I2C_Mem_Write_DMA+0x26>
24005a42:	2320      	movs	r3, #32
24005a44:	f884 6040 	strb.w	r6, [r4, #64]	; 0x40
24005a48:	f884 3041 	strb.w	r3, [r4, #65]	; 0x41
24005a4c:	f884 6042 	strb.w	r6, [r4, #66]	; 0x42
24005a50:	6c63      	ldr	r3, [r4, #68]	; 0x44
24005a52:	f043 0310 	orr.w	r3, r3, #16
24005a56:	6463      	str	r3, [r4, #68]	; 0x44
24005a58:	e77f      	b.n	2400595a <HAL_I2C_Mem_Write_DMA+0x26>
24005a5a:	2502      	movs	r5, #2
24005a5c:	e7e1      	b.n	24005a22 <HAL_I2C_Mem_Write_DMA+0xee>
24005a5e:	bf00      	nop
24005a60:	ffff0000 	.word	0xffff0000
24005a64:	24006f7d 	.word	0x24006f7d
24005a68:	24007161 	.word	0x24007161
24005a6c:	24007085 	.word	0x24007085

24005a70 <HAL_I2C_Mem_Read_DMA>:
24005a70:	e92d 41ff 	stmdb	sp!, {r0, r1, r2, r3, r4, r5, r6, r7, r8, lr}
24005a74:	460f      	mov	r7, r1
24005a76:	f890 1041 	ldrb.w	r1, [r0, #65]	; 0x41
24005a7a:	4604      	mov	r4, r0
24005a7c:	9d0a      	ldr	r5, [sp, #40]	; 0x28
24005a7e:	2920      	cmp	r1, #32
24005a80:	f8bd 802c 	ldrh.w	r8, [sp, #44]	; 0x2c
24005a84:	f040 8088 	bne.w	24005b98 <HAL_I2C_Mem_Read_DMA+0x128>
24005a88:	b115      	cbz	r5, 24005a90 <HAL_I2C_Mem_Read_DMA+0x20>
24005a8a:	f1b8 0f00 	cmp.w	r8, #0
24005a8e:	d104      	bne.n	24005a9a <HAL_I2C_Mem_Read_DMA+0x2a>
24005a90:	f44f 7300 	mov.w	r3, #512	; 0x200
24005a94:	6463      	str	r3, [r4, #68]	; 0x44
24005a96:	2501      	movs	r5, #1
24005a98:	e062      	b.n	24005b60 <HAL_I2C_Mem_Read_DMA+0xf0>
24005a9a:	6801      	ldr	r1, [r0, #0]
24005a9c:	698e      	ldr	r6, [r1, #24]
24005a9e:	f416 4600 	ands.w	r6, r6, #32768	; 0x8000
24005aa2:	e9cd 2302 	strd	r2, r3, [sp, #8]
24005aa6:	d177      	bne.n	24005b98 <HAL_I2C_Mem_Read_DMA+0x128>
24005aa8:	f890 1040 	ldrb.w	r1, [r0, #64]	; 0x40
24005aac:	2901      	cmp	r1, #1
24005aae:	d073      	beq.n	24005b98 <HAL_I2C_Mem_Read_DMA+0x128>
24005ab0:	2101      	movs	r1, #1
24005ab2:	f880 1040 	strb.w	r1, [r0, #64]	; 0x40
24005ab6:	f7fa fe75 	bl	240007a4 <HAL_GetTick>
24005aba:	2122      	movs	r1, #34	; 0x22
24005abc:	6265      	str	r5, [r4, #36]	; 0x24
24005abe:	f884 1041 	strb.w	r1, [r4, #65]	; 0x41
24005ac2:	2140      	movs	r1, #64	; 0x40
24005ac4:	f884 1042 	strb.w	r1, [r4, #66]	; 0x42
24005ac8:	4934      	ldr	r1, [pc, #208]	; (24005b9c <HAL_I2C_Mem_Read_DMA+0x12c>)
24005aca:	6466      	str	r6, [r4, #68]	; 0x44
24005acc:	f8a4 802a 	strh.w	r8, [r4, #42]	; 0x2a
24005ad0:	62e1      	str	r1, [r4, #44]	; 0x2c
24005ad2:	4933      	ldr	r1, [pc, #204]	; (24005ba0 <HAL_I2C_Mem_Read_DMA+0x130>)
24005ad4:	6361      	str	r1, [r4, #52]	; 0x34
24005ad6:	8d61      	ldrh	r1, [r4, #42]	; 0x2a
24005ad8:	b289      	uxth	r1, r1
24005ada:	29ff      	cmp	r1, #255	; 0xff
24005adc:	e9dd 2302 	ldrd	r2, r3, [sp, #8]
24005ae0:	d811      	bhi.n	24005b06 <HAL_I2C_Mem_Read_DMA+0x96>
24005ae2:	8d61      	ldrh	r1, [r4, #42]	; 0x2a
24005ae4:	f04f 7800 	mov.w	r8, #33554432	; 0x2000000
24005ae8:	b289      	uxth	r1, r1
24005aea:	8521      	strh	r1, [r4, #40]	; 0x28
24005aec:	2119      	movs	r1, #25
24005aee:	9001      	str	r0, [sp, #4]
24005af0:	4620      	mov	r0, r4
24005af2:	9100      	str	r1, [sp, #0]
24005af4:	4639      	mov	r1, r7
24005af6:	f7fe fed7 	bl	240048a8 <I2C_RequestMemoryRead>
24005afa:	4606      	mov	r6, r0
24005afc:	b138      	cbz	r0, 24005b0e <HAL_I2C_Mem_Read_DMA+0x9e>
24005afe:	2300      	movs	r3, #0
24005b00:	f884 3040 	strb.w	r3, [r4, #64]	; 0x40
24005b04:	e7c7      	b.n	24005a96 <HAL_I2C_Mem_Read_DMA+0x26>
24005b06:	21ff      	movs	r1, #255	; 0xff
24005b08:	f04f 7880 	mov.w	r8, #16777216	; 0x1000000
24005b0c:	e7ed      	b.n	24005aea <HAL_I2C_Mem_Read_DMA+0x7a>
24005b0e:	6be0      	ldr	r0, [r4, #60]	; 0x3c
24005b10:	b350      	cbz	r0, 24005b68 <HAL_I2C_Mem_Read_DMA+0xf8>
24005b12:	4b24      	ldr	r3, [pc, #144]	; (24005ba4 <HAL_I2C_Mem_Read_DMA+0x134>)
24005b14:	462a      	mov	r2, r5
24005b16:	6821      	ldr	r1, [r4, #0]
24005b18:	63c3      	str	r3, [r0, #60]	; 0x3c
24005b1a:	4b23      	ldr	r3, [pc, #140]	; (24005ba8 <HAL_I2C_Mem_Read_DMA+0x138>)
24005b1c:	3124      	adds	r1, #36	; 0x24
24005b1e:	6406      	str	r6, [r0, #64]	; 0x40
24005b20:	64c3      	str	r3, [r0, #76]	; 0x4c
24005b22:	6506      	str	r6, [r0, #80]	; 0x50
24005b24:	8d23      	ldrh	r3, [r4, #40]	; 0x28
24005b26:	f7fb fe93 	bl	24001850 <HAL_DMA_Start_IT>
24005b2a:	4605      	mov	r5, r0
24005b2c:	bb40      	cbnz	r0, 24005b80 <HAL_I2C_Mem_Read_DMA+0x110>
24005b2e:	4b1f      	ldr	r3, [pc, #124]	; (24005bac <HAL_I2C_Mem_Read_DMA+0x13c>)
24005b30:	4639      	mov	r1, r7
24005b32:	f894 2028 	ldrb.w	r2, [r4, #40]	; 0x28
24005b36:	4620      	mov	r0, r4
24005b38:	9300      	str	r3, [sp, #0]
24005b3a:	4643      	mov	r3, r8
24005b3c:	f7fe fd36 	bl	240045ac <I2C_TransferConfig>
24005b40:	8d63      	ldrh	r3, [r4, #42]	; 0x2a
24005b42:	8d22      	ldrh	r2, [r4, #40]	; 0x28
24005b44:	2110      	movs	r1, #16
24005b46:	4620      	mov	r0, r4
24005b48:	f884 5040 	strb.w	r5, [r4, #64]	; 0x40
24005b4c:	1a9b      	subs	r3, r3, r2
24005b4e:	b29b      	uxth	r3, r3
24005b50:	8563      	strh	r3, [r4, #42]	; 0x2a
24005b52:	f7fe fd3f 	bl	240045d4 <I2C_Enable_IRQ>
24005b56:	6822      	ldr	r2, [r4, #0]
24005b58:	6813      	ldr	r3, [r2, #0]
24005b5a:	f443 4300 	orr.w	r3, r3, #32768	; 0x8000
24005b5e:	6013      	str	r3, [r2, #0]
24005b60:	4628      	mov	r0, r5
24005b62:	b004      	add	sp, #16
24005b64:	e8bd 81f0 	ldmia.w	sp!, {r4, r5, r6, r7, r8, pc}
24005b68:	2320      	movs	r3, #32
24005b6a:	f884 0040 	strb.w	r0, [r4, #64]	; 0x40
24005b6e:	f884 3041 	strb.w	r3, [r4, #65]	; 0x41
24005b72:	f884 0042 	strb.w	r0, [r4, #66]	; 0x42
24005b76:	6c63      	ldr	r3, [r4, #68]	; 0x44
24005b78:	f043 0380 	orr.w	r3, r3, #128	; 0x80
24005b7c:	6463      	str	r3, [r4, #68]	; 0x44
24005b7e:	e78a      	b.n	24005a96 <HAL_I2C_Mem_Read_DMA+0x26>
24005b80:	2320      	movs	r3, #32
24005b82:	f884 6040 	strb.w	r6, [r4, #64]	; 0x40
24005b86:	f884 3041 	strb.w	r3, [r4, #65]	; 0x41
24005b8a:	f884 6042 	strb.w	r6, [r4, #66]	; 0x42
24005b8e:	6c63      	ldr	r3, [r4, #68]	; 0x44
24005b90:	f043 0310 	orr.w	r3, r3, #16
24005b94:	6463      	str	r3, [r4, #68]	; 0x44
24005b96:	e77e      	b.n	24005a96 <HAL_I2C_Mem_Read_DMA+0x26>
24005b98:	2502      	movs	r5, #2
24005b9a:	e7e1      	b.n	24005b60 <HAL_I2C_Mem_Read_DMA+0xf0>
24005b9c:	ffff0000 	.word	0xffff0000
24005ba0:	24006f7d 	.word	0x24006f7d
24005ba4:	240071b5 	.word	0x240071b5
24005ba8:	24007085 	.word	0x24007085
24005bac:	80002400 	.word	0x80002400

24005bb0 <HAL_I2C_IsDeviceReady>:
24005bb0:	e92d 4ff0 	stmdb	sp!, {r4, r5, r6, r7, r8, r9, sl, fp, lr}
24005bb4:	461e      	mov	r6, r3
24005bb6:	b085      	sub	sp, #20
24005bb8:	2300      	movs	r3, #0
24005bba:	4604      	mov	r4, r0
24005bbc:	4691      	mov	r9, r2
24005bbe:	9303      	str	r3, [sp, #12]
24005bc0:	f890 3041 	ldrb.w	r3, [r0, #65]	; 0x41
24005bc4:	2b20      	cmp	r3, #32
24005bc6:	f040 808e 	bne.w	24005ce6 <HAL_I2C_IsDeviceReady+0x136>
24005bca:	6803      	ldr	r3, [r0, #0]
24005bcc:	699b      	ldr	r3, [r3, #24]
24005bce:	f413 4300 	ands.w	r3, r3, #32768	; 0x8000
24005bd2:	f040 8088 	bne.w	24005ce6 <HAL_I2C_IsDeviceReady+0x136>
24005bd6:	f890 2040 	ldrb.w	r2, [r0, #64]	; 0x40
24005bda:	2a01      	cmp	r2, #1
24005bdc:	f000 8083 	beq.w	24005ce6 <HAL_I2C_IsDeviceReady+0x136>
24005be0:	f3c1 0709 	ubfx	r7, r1, #0, #10
24005be4:	2201      	movs	r2, #1
24005be6:	f047 7a00 	orr.w	sl, r7, #33554432	; 0x2000000
24005bea:	f880 2040 	strb.w	r2, [r0, #64]	; 0x40
24005bee:	2224      	movs	r2, #36	; 0x24
24005bf0:	f44a 5a00 	orr.w	sl, sl, #8192	; 0x2000
24005bf4:	f880 2041 	strb.w	r2, [r0, #65]	; 0x41
24005bf8:	6443      	str	r3, [r0, #68]	; 0x44
24005bfa:	68e3      	ldr	r3, [r4, #12]
24005bfc:	6822      	ldr	r2, [r4, #0]
24005bfe:	2b01      	cmp	r3, #1
24005c00:	bf0c      	ite	eq
24005c02:	4653      	moveq	r3, sl
24005c04:	f447 5320 	orrne.w	r3, r7, #10240	; 0x2800
24005c08:	6053      	str	r3, [r2, #4]
24005c0a:	f7fa fdcb 	bl	240007a4 <HAL_GetTick>
24005c0e:	4680      	mov	r8, r0
24005c10:	6823      	ldr	r3, [r4, #0]
24005c12:	699d      	ldr	r5, [r3, #24]
24005c14:	699b      	ldr	r3, [r3, #24]
24005c16:	f3c5 1540 	ubfx	r5, r5, #5, #1
24005c1a:	f3c3 1300 	ubfx	r3, r3, #4, #1
24005c1e:	431d      	orrs	r5, r3
24005c20:	d015      	beq.n	24005c4e <HAL_I2C_IsDeviceReady+0x9e>
24005c22:	6823      	ldr	r3, [r4, #0]
24005c24:	699a      	ldr	r2, [r3, #24]
24005c26:	4633      	mov	r3, r6
24005c28:	f8cd 8000 	str.w	r8, [sp]
24005c2c:	f012 0210 	ands.w	r2, r2, #16
24005c30:	d126      	bne.n	24005c80 <HAL_I2C_IsDeviceReady+0xd0>
24005c32:	2120      	movs	r1, #32
24005c34:	4620      	mov	r0, r4
24005c36:	f7fe fdd7 	bl	240047e8 <I2C_WaitOnFlagUntilTimeout>
24005c3a:	b9e8      	cbnz	r0, 24005c78 <HAL_I2C_IsDeviceReady+0xc8>
24005c3c:	2320      	movs	r3, #32
24005c3e:	6822      	ldr	r2, [r4, #0]
24005c40:	4605      	mov	r5, r0
24005c42:	61d3      	str	r3, [r2, #28]
24005c44:	f884 3041 	strb.w	r3, [r4, #65]	; 0x41
24005c48:	f884 0040 	strb.w	r0, [r4, #64]	; 0x40
24005c4c:	e014      	b.n	24005c78 <HAL_I2C_IsDeviceReady+0xc8>
24005c4e:	1c73      	adds	r3, r6, #1
24005c50:	d0de      	beq.n	24005c10 <HAL_I2C_IsDeviceReady+0x60>
24005c52:	f7fa fda7 	bl	240007a4 <HAL_GetTick>
24005c56:	eba0 0008 	sub.w	r0, r0, r8
24005c5a:	42b0      	cmp	r0, r6
24005c5c:	d801      	bhi.n	24005c62 <HAL_I2C_IsDeviceReady+0xb2>
24005c5e:	2e00      	cmp	r6, #0
24005c60:	d1d6      	bne.n	24005c10 <HAL_I2C_IsDeviceReady+0x60>
24005c62:	2320      	movs	r3, #32
24005c64:	2501      	movs	r5, #1
24005c66:	f884 3041 	strb.w	r3, [r4, #65]	; 0x41
24005c6a:	6c63      	ldr	r3, [r4, #68]	; 0x44
24005c6c:	f043 0320 	orr.w	r3, r3, #32
24005c70:	6463      	str	r3, [r4, #68]	; 0x44
24005c72:	2300      	movs	r3, #0
24005c74:	f884 3040 	strb.w	r3, [r4, #64]	; 0x40
24005c78:	4628      	mov	r0, r5
24005c7a:	b005      	add	sp, #20
24005c7c:	e8bd 8ff0 	ldmia.w	sp!, {r4, r5, r6, r7, r8, r9, sl, fp, pc}
24005c80:	2200      	movs	r2, #0
24005c82:	2120      	movs	r1, #32
24005c84:	4620      	mov	r0, r4
24005c86:	f7fe fdaf 	bl	240047e8 <I2C_WaitOnFlagUntilTimeout>
24005c8a:	2800      	cmp	r0, #0
24005c8c:	d1f4      	bne.n	24005c78 <HAL_I2C_IsDeviceReady+0xc8>
24005c8e:	6823      	ldr	r3, [r4, #0]
24005c90:	2210      	movs	r2, #16
24005c92:	f04f 0b20 	mov.w	fp, #32
24005c96:	61da      	str	r2, [r3, #28]
24005c98:	f8c3 b01c 	str.w	fp, [r3, #28]
24005c9c:	9a03      	ldr	r2, [sp, #12]
24005c9e:	454a      	cmp	r2, r9
24005ca0:	d110      	bne.n	24005cc4 <HAL_I2C_IsDeviceReady+0x114>
24005ca2:	685a      	ldr	r2, [r3, #4]
24005ca4:	4659      	mov	r1, fp
24005ca6:	f442 4280 	orr.w	r2, r2, #16384	; 0x4000
24005caa:	605a      	str	r2, [r3, #4]
24005cac:	4602      	mov	r2, r0
24005cae:	4633      	mov	r3, r6
24005cb0:	4620      	mov	r0, r4
24005cb2:	f8cd 8000 	str.w	r8, [sp]
24005cb6:	f7fe fd97 	bl	240047e8 <I2C_WaitOnFlagUntilTimeout>
24005cba:	2800      	cmp	r0, #0
24005cbc:	d1dc      	bne.n	24005c78 <HAL_I2C_IsDeviceReady+0xc8>
24005cbe:	6823      	ldr	r3, [r4, #0]
24005cc0:	f8c3 b01c 	str.w	fp, [r3, #28]
24005cc4:	9b03      	ldr	r3, [sp, #12]
24005cc6:	3301      	adds	r3, #1
24005cc8:	9303      	str	r3, [sp, #12]
24005cca:	9b03      	ldr	r3, [sp, #12]
24005ccc:	454b      	cmp	r3, r9
24005cce:	d394      	bcc.n	24005bfa <HAL_I2C_IsDeviceReady+0x4a>
24005cd0:	2320      	movs	r3, #32
24005cd2:	f884 3041 	strb.w	r3, [r4, #65]	; 0x41
24005cd6:	6c63      	ldr	r3, [r4, #68]	; 0x44
24005cd8:	f043 0320 	orr.w	r3, r3, #32
24005cdc:	6463      	str	r3, [r4, #68]	; 0x44
24005cde:	2300      	movs	r3, #0
24005ce0:	f884 3040 	strb.w	r3, [r4, #64]	; 0x40
24005ce4:	e7c8      	b.n	24005c78 <HAL_I2C_IsDeviceReady+0xc8>
24005ce6:	2502      	movs	r5, #2
24005ce8:	e7c6      	b.n	24005c78 <HAL_I2C_IsDeviceReady+0xc8>
	...

24005cec <HAL_I2C_Master_Seq_Transmit_IT>:
24005cec:	b537      	push	{r0, r1, r2, r4, r5, lr}
24005cee:	4604      	mov	r4, r0
24005cf0:	9806      	ldr	r0, [sp, #24]
24005cf2:	f894 5041 	ldrb.w	r5, [r4, #65]	; 0x41
24005cf6:	2d20      	cmp	r5, #32
24005cf8:	d143      	bne.n	24005d82 <HAL_I2C_Master_Seq_Transmit_IT+0x96>
24005cfa:	f894 5040 	ldrb.w	r5, [r4, #64]	; 0x40
24005cfe:	2d01      	cmp	r5, #1
24005d00:	d03f      	beq.n	24005d82 <HAL_I2C_Master_Seq_Transmit_IT+0x96>
24005d02:	2501      	movs	r5, #1
24005d04:	6262      	str	r2, [r4, #36]	; 0x24
24005d06:	f884 5040 	strb.w	r5, [r4, #64]	; 0x40
24005d0a:	2521      	movs	r5, #33	; 0x21
24005d0c:	f884 5041 	strb.w	r5, [r4, #65]	; 0x41
24005d10:	2510      	movs	r5, #16
24005d12:	f884 5042 	strb.w	r5, [r4, #66]	; 0x42
24005d16:	2500      	movs	r5, #0
24005d18:	6465      	str	r5, [r4, #68]	; 0x44
24005d1a:	8563      	strh	r3, [r4, #42]	; 0x2a
24005d1c:	4b1a      	ldr	r3, [pc, #104]	; (24005d88 <HAL_I2C_Master_Seq_Transmit_IT+0x9c>)
24005d1e:	62e0      	str	r0, [r4, #44]	; 0x2c
24005d20:	6363      	str	r3, [r4, #52]	; 0x34
24005d22:	8d63      	ldrh	r3, [r4, #42]	; 0x2a
24005d24:	b29b      	uxth	r3, r3
24005d26:	2bff      	cmp	r3, #255	; 0xff
24005d28:	d915      	bls.n	24005d56 <HAL_I2C_Master_Seq_Transmit_IT+0x6a>
24005d2a:	23ff      	movs	r3, #255	; 0xff
24005d2c:	f04f 7280 	mov.w	r2, #16777216	; 0x1000000
24005d30:	8523      	strh	r3, [r4, #40]	; 0x28
24005d32:	6b23      	ldr	r3, [r4, #48]	; 0x30
24005d34:	2b11      	cmp	r3, #17
24005d36:	d104      	bne.n	24005d42 <HAL_I2C_Master_Seq_Transmit_IT+0x56>
24005d38:	28aa      	cmp	r0, #170	; 0xaa
24005d3a:	d002      	beq.n	24005d42 <HAL_I2C_Master_Seq_Transmit_IT+0x56>
24005d3c:	f5b0 4f2a 	cmp.w	r0, #43520	; 0xaa00
24005d40:	d10d      	bne.n	24005d5e <HAL_I2C_Master_Seq_Transmit_IT+0x72>
24005d42:	4620      	mov	r0, r4
24005d44:	f7fe fc9b 	bl	2400467e <I2C_ConvertOtherXferOptions>
24005d48:	8d63      	ldrh	r3, [r4, #42]	; 0x2a
24005d4a:	b29b      	uxth	r3, r3
24005d4c:	2bfe      	cmp	r3, #254	; 0xfe
24005d4e:	d800      	bhi.n	24005d52 <HAL_I2C_Master_Seq_Transmit_IT+0x66>
24005d50:	6ae2      	ldr	r2, [r4, #44]	; 0x2c
24005d52:	4b0e      	ldr	r3, [pc, #56]	; (24005d8c <HAL_I2C_Master_Seq_Transmit_IT+0xa0>)
24005d54:	e004      	b.n	24005d60 <HAL_I2C_Master_Seq_Transmit_IT+0x74>
24005d56:	8d63      	ldrh	r3, [r4, #42]	; 0x2a
24005d58:	6ae2      	ldr	r2, [r4, #44]	; 0x2c
24005d5a:	8523      	strh	r3, [r4, #40]	; 0x28
24005d5c:	e7e9      	b.n	24005d32 <HAL_I2C_Master_Seq_Transmit_IT+0x46>
24005d5e:	2300      	movs	r3, #0
24005d60:	2500      	movs	r5, #0
24005d62:	4620      	mov	r0, r4
24005d64:	9300      	str	r3, [sp, #0]
24005d66:	4613      	mov	r3, r2
24005d68:	f894 2028 	ldrb.w	r2, [r4, #40]	; 0x28
24005d6c:	f7fe fc1e 	bl	240045ac <I2C_TransferConfig>
24005d70:	4620      	mov	r0, r4
24005d72:	2101      	movs	r1, #1
24005d74:	f884 5040 	strb.w	r5, [r4, #64]	; 0x40
24005d78:	f7fe fc2c 	bl	240045d4 <I2C_Enable_IRQ>
24005d7c:	4628      	mov	r0, r5
24005d7e:	b003      	add	sp, #12
24005d80:	bd30      	pop	{r4, r5, pc}
24005d82:	2002      	movs	r0, #2
24005d84:	e7fb      	b.n	24005d7e <HAL_I2C_Master_Seq_Transmit_IT+0x92>
24005d86:	bf00      	nop
24005d88:	24006cd5 	.word	0x24006cd5
24005d8c:	80002000 	.word	0x80002000

24005d90 <HAL_I2C_Master_Seq_Transmit_DMA>:
24005d90:	e92d 43f7 	stmdb	sp!, {r0, r1, r2, r4, r5, r6, r7, r8, r9, lr}
24005d94:	4604      	mov	r4, r0
24005d96:	f890 0041 	ldrb.w	r0, [r0, #65]	; 0x41
24005d9a:	460e      	mov	r6, r1
24005d9c:	4611      	mov	r1, r2
24005d9e:	2820      	cmp	r0, #32
24005da0:	9a0a      	ldr	r2, [sp, #40]	; 0x28
24005da2:	f040 8093 	bne.w	24005ecc <HAL_I2C_Master_Seq_Transmit_DMA+0x13c>
24005da6:	f894 0040 	ldrb.w	r0, [r4, #64]	; 0x40
24005daa:	2801      	cmp	r0, #1
24005dac:	f000 808e 	beq.w	24005ecc <HAL_I2C_Master_Seq_Transmit_DMA+0x13c>
24005db0:	2001      	movs	r0, #1
24005db2:	6261      	str	r1, [r4, #36]	; 0x24
24005db4:	f884 0040 	strb.w	r0, [r4, #64]	; 0x40
24005db8:	2021      	movs	r0, #33	; 0x21
24005dba:	f884 0041 	strb.w	r0, [r4, #65]	; 0x41
24005dbe:	2010      	movs	r0, #16
24005dc0:	f884 0042 	strb.w	r0, [r4, #66]	; 0x42
24005dc4:	2000      	movs	r0, #0
24005dc6:	6460      	str	r0, [r4, #68]	; 0x44
24005dc8:	8563      	strh	r3, [r4, #42]	; 0x2a
24005dca:	4b41      	ldr	r3, [pc, #260]	; (24005ed0 <HAL_I2C_Master_Seq_Transmit_DMA+0x140>)
24005dcc:	62e2      	str	r2, [r4, #44]	; 0x2c
24005dce:	6363      	str	r3, [r4, #52]	; 0x34
24005dd0:	8d63      	ldrh	r3, [r4, #42]	; 0x2a
24005dd2:	b29b      	uxth	r3, r3
24005dd4:	2bff      	cmp	r3, #255	; 0xff
24005dd6:	d917      	bls.n	24005e08 <HAL_I2C_Master_Seq_Transmit_DMA+0x78>
24005dd8:	23ff      	movs	r3, #255	; 0xff
24005dda:	f04f 7880 	mov.w	r8, #16777216	; 0x1000000
24005dde:	8523      	strh	r3, [r4, #40]	; 0x28
24005de0:	6b23      	ldr	r3, [r4, #48]	; 0x30
24005de2:	2b11      	cmp	r3, #17
24005de4:	d104      	bne.n	24005df0 <HAL_I2C_Master_Seq_Transmit_DMA+0x60>
24005de6:	2aaa      	cmp	r2, #170	; 0xaa
24005de8:	d002      	beq.n	24005df0 <HAL_I2C_Master_Seq_Transmit_DMA+0x60>
24005dea:	f5b2 4f2a 	cmp.w	r2, #43520	; 0xaa00
24005dee:	d110      	bne.n	24005e12 <HAL_I2C_Master_Seq_Transmit_DMA+0x82>
24005df0:	4620      	mov	r0, r4
24005df2:	f7fe fc44 	bl	2400467e <I2C_ConvertOtherXferOptions>
24005df6:	8d63      	ldrh	r3, [r4, #42]	; 0x2a
24005df8:	b29b      	uxth	r3, r3
24005dfa:	2bfe      	cmp	r3, #254	; 0xfe
24005dfc:	d801      	bhi.n	24005e02 <HAL_I2C_Master_Seq_Transmit_DMA+0x72>
24005dfe:	f8d4 802c 	ldr.w	r8, [r4, #44]	; 0x2c
24005e02:	f8df 90dc 	ldr.w	r9, [pc, #220]	; 24005ee0 <HAL_I2C_Master_Seq_Transmit_DMA+0x150>
24005e06:	e006      	b.n	24005e16 <HAL_I2C_Master_Seq_Transmit_DMA+0x86>
24005e08:	8d63      	ldrh	r3, [r4, #42]	; 0x2a
24005e0a:	f8d4 802c 	ldr.w	r8, [r4, #44]	; 0x2c
24005e0e:	8523      	strh	r3, [r4, #40]	; 0x28
24005e10:	e7e6      	b.n	24005de0 <HAL_I2C_Master_Seq_Transmit_DMA+0x50>
24005e12:	f04f 0900 	mov.w	r9, #0
24005e16:	8d25      	ldrh	r5, [r4, #40]	; 0x28
24005e18:	2d00      	cmp	r5, #0
24005e1a:	d045      	beq.n	24005ea8 <HAL_I2C_Master_Seq_Transmit_DMA+0x118>
24005e1c:	6ba0      	ldr	r0, [r4, #56]	; 0x38
24005e1e:	b350      	cbz	r0, 24005e76 <HAL_I2C_Master_Seq_Transmit_DMA+0xe6>
24005e20:	4b2c      	ldr	r3, [pc, #176]	; (24005ed4 <HAL_I2C_Master_Seq_Transmit_DMA+0x144>)
24005e22:	2700      	movs	r7, #0
24005e24:	6822      	ldr	r2, [r4, #0]
24005e26:	63c3      	str	r3, [r0, #60]	; 0x3c
24005e28:	4b2b      	ldr	r3, [pc, #172]	; (24005ed8 <HAL_I2C_Master_Seq_Transmit_DMA+0x148>)
24005e2a:	3228      	adds	r2, #40	; 0x28
24005e2c:	6407      	str	r7, [r0, #64]	; 0x40
24005e2e:	64c3      	str	r3, [r0, #76]	; 0x4c
24005e30:	462b      	mov	r3, r5
24005e32:	6507      	str	r7, [r0, #80]	; 0x50
24005e34:	f7fb fd0c 	bl	24001850 <HAL_DMA_Start_IT>
24005e38:	4605      	mov	r5, r0
24005e3a:	bb48      	cbnz	r0, 24005e90 <HAL_I2C_Master_Seq_Transmit_DMA+0x100>
24005e3c:	4643      	mov	r3, r8
24005e3e:	f894 2028 	ldrb.w	r2, [r4, #40]	; 0x28
24005e42:	4631      	mov	r1, r6
24005e44:	4620      	mov	r0, r4
24005e46:	f8cd 9000 	str.w	r9, [sp]
24005e4a:	f7fe fbaf 	bl	240045ac <I2C_TransferConfig>
24005e4e:	8d63      	ldrh	r3, [r4, #42]	; 0x2a
24005e50:	8d22      	ldrh	r2, [r4, #40]	; 0x28
24005e52:	2110      	movs	r1, #16
24005e54:	4620      	mov	r0, r4
24005e56:	f884 5040 	strb.w	r5, [r4, #64]	; 0x40
24005e5a:	1a9b      	subs	r3, r3, r2
24005e5c:	b29b      	uxth	r3, r3
24005e5e:	8563      	strh	r3, [r4, #42]	; 0x2a
24005e60:	f7fe fbb8 	bl	240045d4 <I2C_Enable_IRQ>
24005e64:	6822      	ldr	r2, [r4, #0]
24005e66:	6813      	ldr	r3, [r2, #0]
24005e68:	f443 4380 	orr.w	r3, r3, #16384	; 0x4000
24005e6c:	6013      	str	r3, [r2, #0]
24005e6e:	4628      	mov	r0, r5
24005e70:	b003      	add	sp, #12
24005e72:	e8bd 83f0 	ldmia.w	sp!, {r4, r5, r6, r7, r8, r9, pc}
24005e76:	2320      	movs	r3, #32
24005e78:	f884 0040 	strb.w	r0, [r4, #64]	; 0x40
24005e7c:	f884 3041 	strb.w	r3, [r4, #65]	; 0x41
24005e80:	f884 0042 	strb.w	r0, [r4, #66]	; 0x42
24005e84:	6c63      	ldr	r3, [r4, #68]	; 0x44
24005e86:	f043 0380 	orr.w	r3, r3, #128	; 0x80
24005e8a:	6463      	str	r3, [r4, #68]	; 0x44
24005e8c:	2501      	movs	r5, #1
24005e8e:	e7ee      	b.n	24005e6e <HAL_I2C_Master_Seq_Transmit_DMA+0xde>
24005e90:	2320      	movs	r3, #32
24005e92:	f884 7040 	strb.w	r7, [r4, #64]	; 0x40
24005e96:	f884 3041 	strb.w	r3, [r4, #65]	; 0x41
24005e9a:	f884 7042 	strb.w	r7, [r4, #66]	; 0x42
24005e9e:	6c63      	ldr	r3, [r4, #68]	; 0x44
24005ea0:	f043 0310 	orr.w	r3, r3, #16
24005ea4:	6463      	str	r3, [r4, #68]	; 0x44
24005ea6:	e7f1      	b.n	24005e8c <HAL_I2C_Master_Seq_Transmit_DMA+0xfc>
24005ea8:	4b0c      	ldr	r3, [pc, #48]	; (24005edc <HAL_I2C_Master_Seq_Transmit_DMA+0x14c>)
24005eaa:	4631      	mov	r1, r6
24005eac:	4620      	mov	r0, r4
24005eae:	462a      	mov	r2, r5
24005eb0:	6363      	str	r3, [r4, #52]	; 0x34
24005eb2:	4b0b      	ldr	r3, [pc, #44]	; (24005ee0 <HAL_I2C_Master_Seq_Transmit_DMA+0x150>)
24005eb4:	9300      	str	r3, [sp, #0]
24005eb6:	f04f 7300 	mov.w	r3, #33554432	; 0x2000000
24005eba:	f7fe fb77 	bl	240045ac <I2C_TransferConfig>
24005ebe:	2101      	movs	r1, #1
24005ec0:	4620      	mov	r0, r4
24005ec2:	f884 5040 	strb.w	r5, [r4, #64]	; 0x40
24005ec6:	f7fe fb85 	bl	240045d4 <I2C_Enable_IRQ>
24005eca:	e7d0      	b.n	24005e6e <HAL_I2C_Master_Seq_Transmit_DMA+0xde>
24005ecc:	2502      	movs	r5, #2
24005ece:	e7ce      	b.n	24005e6e <HAL_I2C_Master_Seq_Transmit_DMA+0xde>
24005ed0:	24006f7d 	.word	0x24006f7d
24005ed4:	24007161 	.word	0x24007161
24005ed8:	24007085 	.word	0x24007085
24005edc:	24006cd5 	.word	0x24006cd5
24005ee0:	80002000 	.word	0x80002000

24005ee4 <HAL_I2C_Master_Seq_Receive_IT>:
24005ee4:	b537      	push	{r0, r1, r2, r4, r5, lr}
24005ee6:	4604      	mov	r4, r0
24005ee8:	9806      	ldr	r0, [sp, #24]
24005eea:	f894 5041 	ldrb.w	r5, [r4, #65]	; 0x41
24005eee:	2d20      	cmp	r5, #32
24005ef0:	d143      	bne.n	24005f7a <HAL_I2C_Master_Seq_Receive_IT+0x96>
24005ef2:	f894 5040 	ldrb.w	r5, [r4, #64]	; 0x40
24005ef6:	2d01      	cmp	r5, #1
24005ef8:	d03f      	beq.n	24005f7a <HAL_I2C_Master_Seq_Receive_IT+0x96>
24005efa:	2501      	movs	r5, #1
24005efc:	6262      	str	r2, [r4, #36]	; 0x24
24005efe:	f884 5040 	strb.w	r5, [r4, #64]	; 0x40
24005f02:	2522      	movs	r5, #34	; 0x22
24005f04:	f884 5041 	strb.w	r5, [r4, #65]	; 0x41
24005f08:	2510      	movs	r5, #16
24005f0a:	f884 5042 	strb.w	r5, [r4, #66]	; 0x42
24005f0e:	2500      	movs	r5, #0
24005f10:	6465      	str	r5, [r4, #68]	; 0x44
24005f12:	8563      	strh	r3, [r4, #42]	; 0x2a
24005f14:	4b1a      	ldr	r3, [pc, #104]	; (24005f80 <HAL_I2C_Master_Seq_Receive_IT+0x9c>)
24005f16:	62e0      	str	r0, [r4, #44]	; 0x2c
24005f18:	6363      	str	r3, [r4, #52]	; 0x34
24005f1a:	8d63      	ldrh	r3, [r4, #42]	; 0x2a
24005f1c:	b29b      	uxth	r3, r3
24005f1e:	2bff      	cmp	r3, #255	; 0xff
24005f20:	d915      	bls.n	24005f4e <HAL_I2C_Master_Seq_Receive_IT+0x6a>
24005f22:	23ff      	movs	r3, #255	; 0xff
24005f24:	f04f 7280 	mov.w	r2, #16777216	; 0x1000000
24005f28:	8523      	strh	r3, [r4, #40]	; 0x28
24005f2a:	6b23      	ldr	r3, [r4, #48]	; 0x30
24005f2c:	2b12      	cmp	r3, #18
24005f2e:	d104      	bne.n	24005f3a <HAL_I2C_Master_Seq_Receive_IT+0x56>
24005f30:	28aa      	cmp	r0, #170	; 0xaa
24005f32:	d002      	beq.n	24005f3a <HAL_I2C_Master_Seq_Receive_IT+0x56>
24005f34:	f5b0 4f2a 	cmp.w	r0, #43520	; 0xaa00
24005f38:	d10d      	bne.n	24005f56 <HAL_I2C_Master_Seq_Receive_IT+0x72>
24005f3a:	4620      	mov	r0, r4
24005f3c:	f7fe fb9f 	bl	2400467e <I2C_ConvertOtherXferOptions>
24005f40:	8d63      	ldrh	r3, [r4, #42]	; 0x2a
24005f42:	b29b      	uxth	r3, r3
24005f44:	2bfe      	cmp	r3, #254	; 0xfe
24005f46:	d800      	bhi.n	24005f4a <HAL_I2C_Master_Seq_Receive_IT+0x66>
24005f48:	6ae2      	ldr	r2, [r4, #44]	; 0x2c
24005f4a:	4b0e      	ldr	r3, [pc, #56]	; (24005f84 <HAL_I2C_Master_Seq_Receive_IT+0xa0>)
24005f4c:	e004      	b.n	24005f58 <HAL_I2C_Master_Seq_Receive_IT+0x74>
24005f4e:	8d63      	ldrh	r3, [r4, #42]	; 0x2a
24005f50:	6ae2      	ldr	r2, [r4, #44]	; 0x2c
24005f52:	8523      	strh	r3, [r4, #40]	; 0x28
24005f54:	e7e9      	b.n	24005f2a <HAL_I2C_Master_Seq_Receive_IT+0x46>
24005f56:	2300      	movs	r3, #0
24005f58:	2500      	movs	r5, #0
24005f5a:	4620      	mov	r0, r4
24005f5c:	9300      	str	r3, [sp, #0]
24005f5e:	4613      	mov	r3, r2
24005f60:	f894 2028 	ldrb.w	r2, [r4, #40]	; 0x28
24005f64:	f7fe fb22 	bl	240045ac <I2C_TransferConfig>
24005f68:	4620      	mov	r0, r4
24005f6a:	2102      	movs	r1, #2
24005f6c:	f884 5040 	strb.w	r5, [r4, #64]	; 0x40
24005f70:	f7fe fb30 	bl	240045d4 <I2C_Enable_IRQ>
24005f74:	4628      	mov	r0, r5
24005f76:	b003      	add	sp, #12
24005f78:	bd30      	pop	{r4, r5, pc}
24005f7a:	2002      	movs	r0, #2
24005f7c:	e7fb      	b.n	24005f76 <HAL_I2C_Master_Seq_Receive_IT+0x92>
24005f7e:	bf00      	nop
24005f80:	24006cd5 	.word	0x24006cd5
24005f84:	80002400 	.word	0x80002400

24005f88 <HAL_I2C_Master_Seq_Receive_DMA>:
24005f88:	e92d 43f7 	stmdb	sp!, {r0, r1, r2, r4, r5, r6, r7, r8, r9, lr}
24005f8c:	4604      	mov	r4, r0
24005f8e:	f890 0041 	ldrb.w	r0, [r0, #65]	; 0x41
24005f92:	460e      	mov	r6, r1
24005f94:	990a      	ldr	r1, [sp, #40]	; 0x28
24005f96:	2820      	cmp	r0, #32
24005f98:	f040 8093 	bne.w	240060c2 <HAL_I2C_Master_Seq_Receive_DMA+0x13a>
24005f9c:	f894 0040 	ldrb.w	r0, [r4, #64]	; 0x40
24005fa0:	2801      	cmp	r0, #1
24005fa2:	f000 808e 	beq.w	240060c2 <HAL_I2C_Master_Seq_Receive_DMA+0x13a>
24005fa6:	2001      	movs	r0, #1
24005fa8:	6262      	str	r2, [r4, #36]	; 0x24
24005faa:	f884 0040 	strb.w	r0, [r4, #64]	; 0x40
24005fae:	2022      	movs	r0, #34	; 0x22
24005fb0:	f884 0041 	strb.w	r0, [r4, #65]	; 0x41
24005fb4:	2010      	movs	r0, #16
24005fb6:	f884 0042 	strb.w	r0, [r4, #66]	; 0x42
24005fba:	2000      	movs	r0, #0
24005fbc:	6460      	str	r0, [r4, #68]	; 0x44
24005fbe:	8563      	strh	r3, [r4, #42]	; 0x2a
24005fc0:	4b41      	ldr	r3, [pc, #260]	; (240060c8 <HAL_I2C_Master_Seq_Receive_DMA+0x140>)
24005fc2:	62e1      	str	r1, [r4, #44]	; 0x2c
24005fc4:	6363      	str	r3, [r4, #52]	; 0x34
24005fc6:	8d63      	ldrh	r3, [r4, #42]	; 0x2a
24005fc8:	b29b      	uxth	r3, r3
24005fca:	2bff      	cmp	r3, #255	; 0xff
24005fcc:	d917      	bls.n	24005ffe <HAL_I2C_Master_Seq_Receive_DMA+0x76>
24005fce:	23ff      	movs	r3, #255	; 0xff
24005fd0:	f04f 7880 	mov.w	r8, #16777216	; 0x1000000
24005fd4:	8523      	strh	r3, [r4, #40]	; 0x28
24005fd6:	6b23      	ldr	r3, [r4, #48]	; 0x30
24005fd8:	2b12      	cmp	r3, #18
24005fda:	d104      	bne.n	24005fe6 <HAL_I2C_Master_Seq_Receive_DMA+0x5e>
24005fdc:	29aa      	cmp	r1, #170	; 0xaa
24005fde:	d002      	beq.n	24005fe6 <HAL_I2C_Master_Seq_Receive_DMA+0x5e>
24005fe0:	f5b1 4f2a 	cmp.w	r1, #43520	; 0xaa00
24005fe4:	d110      	bne.n	24006008 <HAL_I2C_Master_Seq_Receive_DMA+0x80>
24005fe6:	4620      	mov	r0, r4
24005fe8:	f7fe fb49 	bl	2400467e <I2C_ConvertOtherXferOptions>
24005fec:	8d63      	ldrh	r3, [r4, #42]	; 0x2a
24005fee:	b29b      	uxth	r3, r3
24005ff0:	2bfe      	cmp	r3, #254	; 0xfe
24005ff2:	d801      	bhi.n	24005ff8 <HAL_I2C_Master_Seq_Receive_DMA+0x70>
24005ff4:	f8d4 802c 	ldr.w	r8, [r4, #44]	; 0x2c
24005ff8:	f8df 90dc 	ldr.w	r9, [pc, #220]	; 240060d8 <HAL_I2C_Master_Seq_Receive_DMA+0x150>
24005ffc:	e006      	b.n	2400600c <HAL_I2C_Master_Seq_Receive_DMA+0x84>
24005ffe:	8d63      	ldrh	r3, [r4, #42]	; 0x2a
24006000:	f8d4 802c 	ldr.w	r8, [r4, #44]	; 0x2c
24006004:	8523      	strh	r3, [r4, #40]	; 0x28
24006006:	e7e6      	b.n	24005fd6 <HAL_I2C_Master_Seq_Receive_DMA+0x4e>
24006008:	f04f 0900 	mov.w	r9, #0
2400600c:	8d25      	ldrh	r5, [r4, #40]	; 0x28
2400600e:	2d00      	cmp	r5, #0
24006010:	d045      	beq.n	2400609e <HAL_I2C_Master_Seq_Receive_DMA+0x116>
24006012:	6be0      	ldr	r0, [r4, #60]	; 0x3c
24006014:	b350      	cbz	r0, 2400606c <HAL_I2C_Master_Seq_Receive_DMA+0xe4>
24006016:	4b2d      	ldr	r3, [pc, #180]	; (240060cc <HAL_I2C_Master_Seq_Receive_DMA+0x144>)
24006018:	2700      	movs	r7, #0
2400601a:	6821      	ldr	r1, [r4, #0]
2400601c:	63c3      	str	r3, [r0, #60]	; 0x3c
2400601e:	4b2c      	ldr	r3, [pc, #176]	; (240060d0 <HAL_I2C_Master_Seq_Receive_DMA+0x148>)
24006020:	3124      	adds	r1, #36	; 0x24
24006022:	6407      	str	r7, [r0, #64]	; 0x40
24006024:	64c3      	str	r3, [r0, #76]	; 0x4c
24006026:	462b      	mov	r3, r5
24006028:	6507      	str	r7, [r0, #80]	; 0x50
2400602a:	f7fb fc11 	bl	24001850 <HAL_DMA_Start_IT>
2400602e:	4605      	mov	r5, r0
24006030:	bb48      	cbnz	r0, 24006086 <HAL_I2C_Master_Seq_Receive_DMA+0xfe>
24006032:	4643      	mov	r3, r8
24006034:	f894 2028 	ldrb.w	r2, [r4, #40]	; 0x28
24006038:	4631      	mov	r1, r6
2400603a:	4620      	mov	r0, r4
2400603c:	f8cd 9000 	str.w	r9, [sp]
24006040:	f7fe fab4 	bl	240045ac <I2C_TransferConfig>
24006044:	8d63      	ldrh	r3, [r4, #42]	; 0x2a
24006046:	8d22      	ldrh	r2, [r4, #40]	; 0x28
24006048:	2110      	movs	r1, #16
2400604a:	4620      	mov	r0, r4
2400604c:	f884 5040 	strb.w	r5, [r4, #64]	; 0x40
24006050:	1a9b      	subs	r3, r3, r2
24006052:	b29b      	uxth	r3, r3
24006054:	8563      	strh	r3, [r4, #42]	; 0x2a
24006056:	f7fe fabd 	bl	240045d4 <I2C_Enable_IRQ>
2400605a:	6822      	ldr	r2, [r4, #0]
2400605c:	6813      	ldr	r3, [r2, #0]
2400605e:	f443 4300 	orr.w	r3, r3, #32768	; 0x8000
24006062:	6013      	str	r3, [r2, #0]
24006064:	4628      	mov	r0, r5
24006066:	b003      	add	sp, #12
24006068:	e8bd 83f0 	ldmia.w	sp!, {r4, r5, r6, r7, r8, r9, pc}
2400606c:	2320      	movs	r3, #32
2400606e:	f884 0040 	strb.w	r0, [r4, #64]	; 0x40
24006072:	f884 3041 	strb.w	r3, [r4, #65]	; 0x41
24006076:	f884 0042 	strb.w	r0, [r4, #66]	; 0x42
2400607a:	6c63      	ldr	r3, [r4, #68]	; 0x44
2400607c:	f043 0380 	orr.w	r3, r3, #128	; 0x80
24006080:	6463      	str	r3, [r4, #68]	; 0x44
24006082:	2501      	movs	r5, #1
24006084:	e7ee      	b.n	24006064 <HAL_I2C_Master_Seq_Receive_DMA+0xdc>
24006086:	2320      	movs	r3, #32
24006088:	f884 7040 	strb.w	r7, [r4, #64]	; 0x40
2400608c:	f884 3041 	strb.w	r3, [r4, #65]	; 0x41
24006090:	f884 7042 	strb.w	r7, [r4, #66]	; 0x42
24006094:	6c63      	ldr	r3, [r4, #68]	; 0x44
24006096:	f043 0310 	orr.w	r3, r3, #16
2400609a:	6463      	str	r3, [r4, #68]	; 0x44
2400609c:	e7f1      	b.n	24006082 <HAL_I2C_Master_Seq_Receive_DMA+0xfa>
2400609e:	4b0d      	ldr	r3, [pc, #52]	; (240060d4 <HAL_I2C_Master_Seq_Receive_DMA+0x14c>)
240060a0:	4631      	mov	r1, r6
240060a2:	4620      	mov	r0, r4
240060a4:	462a      	mov	r2, r5
240060a6:	6363      	str	r3, [r4, #52]	; 0x34
240060a8:	4b0b      	ldr	r3, [pc, #44]	; (240060d8 <HAL_I2C_Master_Seq_Receive_DMA+0x150>)
240060aa:	9300      	str	r3, [sp, #0]
240060ac:	f04f 7300 	mov.w	r3, #33554432	; 0x2000000
240060b0:	f7fe fa7c 	bl	240045ac <I2C_TransferConfig>
240060b4:	2101      	movs	r1, #1
240060b6:	4620      	mov	r0, r4
240060b8:	f884 5040 	strb.w	r5, [r4, #64]	; 0x40
240060bc:	f7fe fa8a 	bl	240045d4 <I2C_Enable_IRQ>
240060c0:	e7d0      	b.n	24006064 <HAL_I2C_Master_Seq_Receive_DMA+0xdc>
240060c2:	2502      	movs	r5, #2
240060c4:	e7ce      	b.n	24006064 <HAL_I2C_Master_Seq_Receive_DMA+0xdc>
240060c6:	bf00      	nop
240060c8:	24006f7d 	.word	0x24006f7d
240060cc:	240071b5 	.word	0x240071b5
240060d0:	24007085 	.word	0x24007085
240060d4:	24006cd5 	.word	0x24006cd5
240060d8:	80002400 	.word	0x80002400

240060dc <HAL_I2C_Slave_Seq_Transmit_IT>:
240060dc:	b5f8      	push	{r3, r4, r5, r6, r7, lr}
240060de:	461f      	mov	r7, r3
240060e0:	f890 3041 	ldrb.w	r3, [r0, #65]	; 0x41
240060e4:	4604      	mov	r4, r0
240060e6:	460e      	mov	r6, r1
240060e8:	f003 0328 	and.w	r3, r3, #40	; 0x28
240060ec:	4615      	mov	r5, r2
240060ee:	2b28      	cmp	r3, #40	; 0x28
240060f0:	d104      	bne.n	240060fc <HAL_I2C_Slave_Seq_Transmit_IT+0x20>
240060f2:	b101      	cbz	r1, 240060f6 <HAL_I2C_Slave_Seq_Transmit_IT+0x1a>
240060f4:	b922      	cbnz	r2, 24006100 <HAL_I2C_Slave_Seq_Transmit_IT+0x24>
240060f6:	f44f 7300 	mov.w	r3, #512	; 0x200
240060fa:	6463      	str	r3, [r4, #68]	; 0x44
240060fc:	2001      	movs	r0, #1
240060fe:	e044      	b.n	2400618a <HAL_I2C_Slave_Seq_Transmit_IT+0xae>
24006100:	f248 0101 	movw	r1, #32769	; 0x8001
24006104:	f7fe fa9a 	bl	2400463c <I2C_Disable_IRQ>
24006108:	f890 3040 	ldrb.w	r3, [r0, #64]	; 0x40
2400610c:	2b01      	cmp	r3, #1
2400610e:	d03d      	beq.n	2400618c <HAL_I2C_Slave_Seq_Transmit_IT+0xb0>
24006110:	2301      	movs	r3, #1
24006112:	f880 3040 	strb.w	r3, [r0, #64]	; 0x40
24006116:	f890 3041 	ldrb.w	r3, [r0, #65]	; 0x41
2400611a:	2b2a      	cmp	r3, #42	; 0x2a
2400611c:	d114      	bne.n	24006148 <HAL_I2C_Slave_Seq_Transmit_IT+0x6c>
2400611e:	2102      	movs	r1, #2
24006120:	f7fe fa8c 	bl	2400463c <I2C_Disable_IRQ>
24006124:	6803      	ldr	r3, [r0, #0]
24006126:	681a      	ldr	r2, [r3, #0]
24006128:	0412      	lsls	r2, r2, #16
2400612a:	d50d      	bpl.n	24006148 <HAL_I2C_Slave_Seq_Transmit_IT+0x6c>
2400612c:	681a      	ldr	r2, [r3, #0]
2400612e:	6bc0      	ldr	r0, [r0, #60]	; 0x3c
24006130:	f422 4200 	bic.w	r2, r2, #32768	; 0x8000
24006134:	601a      	str	r2, [r3, #0]
24006136:	b138      	cbz	r0, 24006148 <HAL_I2C_Slave_Seq_Transmit_IT+0x6c>
24006138:	4b15      	ldr	r3, [pc, #84]	; (24006190 <HAL_I2C_Slave_Seq_Transmit_IT+0xb4>)
2400613a:	6503      	str	r3, [r0, #80]	; 0x50
2400613c:	f7fb fe50 	bl	24001de0 <HAL_DMA_Abort_IT>
24006140:	b110      	cbz	r0, 24006148 <HAL_I2C_Slave_Seq_Transmit_IT+0x6c>
24006142:	6be0      	ldr	r0, [r4, #60]	; 0x3c
24006144:	6d03      	ldr	r3, [r0, #80]	; 0x50
24006146:	4798      	blx	r3
24006148:	2329      	movs	r3, #41	; 0x29
2400614a:	6820      	ldr	r0, [r4, #0]
2400614c:	2200      	movs	r2, #0
2400614e:	f884 3041 	strb.w	r3, [r4, #65]	; 0x41
24006152:	2320      	movs	r3, #32
24006154:	f884 3042 	strb.w	r3, [r4, #66]	; 0x42
24006158:	6462      	str	r2, [r4, #68]	; 0x44
2400615a:	6843      	ldr	r3, [r0, #4]
2400615c:	f423 4300 	bic.w	r3, r3, #32768	; 0x8000
24006160:	6043      	str	r3, [r0, #4]
24006162:	8565      	strh	r5, [r4, #42]	; 0x2a
24006164:	8d63      	ldrh	r3, [r4, #42]	; 0x2a
24006166:	62e7      	str	r7, [r4, #44]	; 0x2c
24006168:	8523      	strh	r3, [r4, #40]	; 0x28
2400616a:	4b0a      	ldr	r3, [pc, #40]	; (24006194 <HAL_I2C_Slave_Seq_Transmit_IT+0xb8>)
2400616c:	6266      	str	r6, [r4, #36]	; 0x24
2400616e:	6363      	str	r3, [r4, #52]	; 0x34
24006170:	6983      	ldr	r3, [r0, #24]
24006172:	03db      	lsls	r3, r3, #15
24006174:	d501      	bpl.n	2400617a <HAL_I2C_Slave_Seq_Transmit_IT+0x9e>
24006176:	2308      	movs	r3, #8
24006178:	61c3      	str	r3, [r0, #28]
2400617a:	4620      	mov	r0, r4
2400617c:	f248 0101 	movw	r1, #32769	; 0x8001
24006180:	f884 2040 	strb.w	r2, [r4, #64]	; 0x40
24006184:	f7fe fa26 	bl	240045d4 <I2C_Enable_IRQ>
24006188:	2000      	movs	r0, #0
2400618a:	bdf8      	pop	{r3, r4, r5, r6, r7, pc}
2400618c:	2002      	movs	r0, #2
2400618e:	e7fc      	b.n	2400618a <HAL_I2C_Slave_Seq_Transmit_IT+0xae>
24006190:	24007269 	.word	0x24007269
24006194:	24006add 	.word	0x24006add

24006198 <HAL_I2C_Slave_Seq_Transmit_DMA>:
24006198:	e92d 41f0 	stmdb	sp!, {r4, r5, r6, r7, r8, lr}
2400619c:	4698      	mov	r8, r3
2400619e:	f890 3041 	ldrb.w	r3, [r0, #65]	; 0x41
240061a2:	4604      	mov	r4, r0
240061a4:	460d      	mov	r5, r1
240061a6:	f003 0328 	and.w	r3, r3, #40	; 0x28
240061aa:	4617      	mov	r7, r2
240061ac:	2b28      	cmp	r3, #40	; 0x28
240061ae:	d104      	bne.n	240061ba <HAL_I2C_Slave_Seq_Transmit_DMA+0x22>
240061b0:	b101      	cbz	r1, 240061b4 <HAL_I2C_Slave_Seq_Transmit_DMA+0x1c>
240061b2:	b922      	cbnz	r2, 240061be <HAL_I2C_Slave_Seq_Transmit_DMA+0x26>
240061b4:	f44f 7300 	mov.w	r3, #512	; 0x200
240061b8:	6463      	str	r3, [r4, #68]	; 0x44
240061ba:	2501      	movs	r5, #1
240061bc:	e08f      	b.n	240062de <HAL_I2C_Slave_Seq_Transmit_DMA+0x146>
240061be:	f890 3040 	ldrb.w	r3, [r0, #64]	; 0x40
240061c2:	2b01      	cmp	r3, #1
240061c4:	f000 8091 	beq.w	240062ea <HAL_I2C_Slave_Seq_Transmit_DMA+0x152>
240061c8:	2301      	movs	r3, #1
240061ca:	f248 0101 	movw	r1, #32769	; 0x8001
240061ce:	f880 3040 	strb.w	r3, [r0, #64]	; 0x40
240061d2:	f7fe fa33 	bl	2400463c <I2C_Disable_IRQ>
240061d6:	f890 3041 	ldrb.w	r3, [r0, #65]	; 0x41
240061da:	2b2a      	cmp	r3, #42	; 0x2a
240061dc:	d145      	bne.n	2400626a <HAL_I2C_Slave_Seq_Transmit_DMA+0xd2>
240061de:	2102      	movs	r1, #2
240061e0:	f7fe fa2c 	bl	2400463c <I2C_Disable_IRQ>
240061e4:	6803      	ldr	r3, [r0, #0]
240061e6:	681a      	ldr	r2, [r3, #0]
240061e8:	0410      	lsls	r0, r2, #16
240061ea:	d50d      	bpl.n	24006208 <HAL_I2C_Slave_Seq_Transmit_DMA+0x70>
240061ec:	6be0      	ldr	r0, [r4, #60]	; 0x3c
240061ee:	b158      	cbz	r0, 24006208 <HAL_I2C_Slave_Seq_Transmit_DMA+0x70>
240061f0:	681a      	ldr	r2, [r3, #0]
240061f2:	f422 4200 	bic.w	r2, r2, #32768	; 0x8000
240061f6:	601a      	str	r2, [r3, #0]
240061f8:	4b3d      	ldr	r3, [pc, #244]	; (240062f0 <HAL_I2C_Slave_Seq_Transmit_DMA+0x158>)
240061fa:	6503      	str	r3, [r0, #80]	; 0x50
240061fc:	f7fb fdf0 	bl	24001de0 <HAL_DMA_Abort_IT>
24006200:	b110      	cbz	r0, 24006208 <HAL_I2C_Slave_Seq_Transmit_DMA+0x70>
24006202:	6be0      	ldr	r0, [r4, #60]	; 0x3c
24006204:	6d03      	ldr	r3, [r0, #80]	; 0x50
24006206:	4798      	blx	r3
24006208:	2329      	movs	r3, #41	; 0x29
2400620a:	6822      	ldr	r2, [r4, #0]
2400620c:	2600      	movs	r6, #0
2400620e:	6ba0      	ldr	r0, [r4, #56]	; 0x38
24006210:	f884 3041 	strb.w	r3, [r4, #65]	; 0x41
24006214:	2320      	movs	r3, #32
24006216:	f884 3042 	strb.w	r3, [r4, #66]	; 0x42
2400621a:	6466      	str	r6, [r4, #68]	; 0x44
2400621c:	6853      	ldr	r3, [r2, #4]
2400621e:	f423 4300 	bic.w	r3, r3, #32768	; 0x8000
24006222:	6053      	str	r3, [r2, #4]
24006224:	8567      	strh	r7, [r4, #42]	; 0x2a
24006226:	8d61      	ldrh	r1, [r4, #42]	; 0x2a
24006228:	6265      	str	r5, [r4, #36]	; 0x24
2400622a:	b28b      	uxth	r3, r1
2400622c:	4931      	ldr	r1, [pc, #196]	; (240062f4 <HAL_I2C_Slave_Seq_Transmit_DMA+0x15c>)
2400622e:	f8c4 802c 	str.w	r8, [r4, #44]	; 0x2c
24006232:	8523      	strh	r3, [r4, #40]	; 0x28
24006234:	6361      	str	r1, [r4, #52]	; 0x34
24006236:	2800      	cmp	r0, #0
24006238:	d02e      	beq.n	24006298 <HAL_I2C_Slave_Seq_Transmit_DMA+0x100>
2400623a:	492f      	ldr	r1, [pc, #188]	; (240062f8 <HAL_I2C_Slave_Seq_Transmit_DMA+0x160>)
2400623c:	3228      	adds	r2, #40	; 0x28
2400623e:	6406      	str	r6, [r0, #64]	; 0x40
24006240:	63c1      	str	r1, [r0, #60]	; 0x3c
24006242:	492e      	ldr	r1, [pc, #184]	; (240062fc <HAL_I2C_Slave_Seq_Transmit_DMA+0x164>)
24006244:	6506      	str	r6, [r0, #80]	; 0x50
24006246:	64c1      	str	r1, [r0, #76]	; 0x4c
24006248:	4629      	mov	r1, r5
2400624a:	f7fb fb01 	bl	24001850 <HAL_DMA_Start_IT>
2400624e:	4605      	mov	r5, r0
24006250:	b370      	cbz	r0, 240062b0 <HAL_I2C_Slave_Seq_Transmit_DMA+0x118>
24006252:	2328      	movs	r3, #40	; 0x28
24006254:	f884 6040 	strb.w	r6, [r4, #64]	; 0x40
24006258:	f884 3041 	strb.w	r3, [r4, #65]	; 0x41
2400625c:	f884 6042 	strb.w	r6, [r4, #66]	; 0x42
24006260:	6c63      	ldr	r3, [r4, #68]	; 0x44
24006262:	f043 0310 	orr.w	r3, r3, #16
24006266:	6463      	str	r3, [r4, #68]	; 0x44
24006268:	e7a7      	b.n	240061ba <HAL_I2C_Slave_Seq_Transmit_DMA+0x22>
2400626a:	f890 3041 	ldrb.w	r3, [r0, #65]	; 0x41
2400626e:	2b29      	cmp	r3, #41	; 0x29
24006270:	d1ca      	bne.n	24006208 <HAL_I2C_Slave_Seq_Transmit_DMA+0x70>
24006272:	6803      	ldr	r3, [r0, #0]
24006274:	681a      	ldr	r2, [r3, #0]
24006276:	0451      	lsls	r1, r2, #17
24006278:	d5c6      	bpl.n	24006208 <HAL_I2C_Slave_Seq_Transmit_DMA+0x70>
2400627a:	681a      	ldr	r2, [r3, #0]
2400627c:	6b80      	ldr	r0, [r0, #56]	; 0x38
2400627e:	f422 4280 	bic.w	r2, r2, #16384	; 0x4000
24006282:	601a      	str	r2, [r3, #0]
24006284:	2800      	cmp	r0, #0
24006286:	d0bf      	beq.n	24006208 <HAL_I2C_Slave_Seq_Transmit_DMA+0x70>
24006288:	4b19      	ldr	r3, [pc, #100]	; (240062f0 <HAL_I2C_Slave_Seq_Transmit_DMA+0x158>)
2400628a:	6503      	str	r3, [r0, #80]	; 0x50
2400628c:	f7fb fda8 	bl	24001de0 <HAL_DMA_Abort_IT>
24006290:	2800      	cmp	r0, #0
24006292:	d0b9      	beq.n	24006208 <HAL_I2C_Slave_Seq_Transmit_DMA+0x70>
24006294:	6ba0      	ldr	r0, [r4, #56]	; 0x38
24006296:	e7b5      	b.n	24006204 <HAL_I2C_Slave_Seq_Transmit_DMA+0x6c>
24006298:	2328      	movs	r3, #40	; 0x28
2400629a:	f884 0040 	strb.w	r0, [r4, #64]	; 0x40
2400629e:	f884 3041 	strb.w	r3, [r4, #65]	; 0x41
240062a2:	f884 0042 	strb.w	r0, [r4, #66]	; 0x42
240062a6:	6c63      	ldr	r3, [r4, #68]	; 0x44
240062a8:	f043 0380 	orr.w	r3, r3, #128	; 0x80
240062ac:	6463      	str	r3, [r4, #68]	; 0x44
240062ae:	e784      	b.n	240061ba <HAL_I2C_Slave_Seq_Transmit_DMA+0x22>
240062b0:	8d63      	ldrh	r3, [r4, #42]	; 0x2a
240062b2:	8d22      	ldrh	r2, [r4, #40]	; 0x28
240062b4:	8520      	strh	r0, [r4, #40]	; 0x28
240062b6:	1a9b      	subs	r3, r3, r2
240062b8:	b29b      	uxth	r3, r3
240062ba:	8563      	strh	r3, [r4, #42]	; 0x2a
240062bc:	6823      	ldr	r3, [r4, #0]
240062be:	699a      	ldr	r2, [r3, #24]
240062c0:	03d2      	lsls	r2, r2, #15
240062c2:	d40f      	bmi.n	240062e4 <HAL_I2C_Slave_Seq_Transmit_DMA+0x14c>
240062c4:	2300      	movs	r3, #0
240062c6:	f44f 4100 	mov.w	r1, #32768	; 0x8000
240062ca:	4620      	mov	r0, r4
240062cc:	f884 3040 	strb.w	r3, [r4, #64]	; 0x40
240062d0:	f7fe f980 	bl	240045d4 <I2C_Enable_IRQ>
240062d4:	6822      	ldr	r2, [r4, #0]
240062d6:	6813      	ldr	r3, [r2, #0]
240062d8:	f443 4380 	orr.w	r3, r3, #16384	; 0x4000
240062dc:	6013      	str	r3, [r2, #0]
240062de:	4628      	mov	r0, r5
240062e0:	e8bd 81f0 	ldmia.w	sp!, {r4, r5, r6, r7, r8, pc}
240062e4:	2208      	movs	r2, #8
240062e6:	61da      	str	r2, [r3, #28]
240062e8:	e7ec      	b.n	240062c4 <HAL_I2C_Slave_Seq_Transmit_DMA+0x12c>
240062ea:	2502      	movs	r5, #2
240062ec:	e7f7      	b.n	240062de <HAL_I2C_Slave_Seq_Transmit_DMA+0x146>
240062ee:	bf00      	nop
240062f0:	24007269 	.word	0x24007269
240062f4:	24006df9 	.word	0x24006df9
240062f8:	240066bf 	.word	0x240066bf
240062fc:	24007085 	.word	0x24007085

24006300 <HAL_I2C_Slave_Seq_Receive_IT>:
24006300:	b5f8      	push	{r3, r4, r5, r6, r7, lr}
24006302:	461f      	mov	r7, r3
24006304:	f890 3041 	ldrb.w	r3, [r0, #65]	; 0x41
24006308:	4604      	mov	r4, r0
2400630a:	460e      	mov	r6, r1
2400630c:	f003 0328 	and.w	r3, r3, #40	; 0x28
24006310:	4615      	mov	r5, r2
24006312:	2b28      	cmp	r3, #40	; 0x28
24006314:	d104      	bne.n	24006320 <HAL_I2C_Slave_Seq_Receive_IT+0x20>
24006316:	b101      	cbz	r1, 2400631a <HAL_I2C_Slave_Seq_Receive_IT+0x1a>
24006318:	b922      	cbnz	r2, 24006324 <HAL_I2C_Slave_Seq_Receive_IT+0x24>
2400631a:	f44f 7300 	mov.w	r3, #512	; 0x200
2400631e:	6463      	str	r3, [r4, #68]	; 0x44
24006320:	2001      	movs	r0, #1
24006322:	e043      	b.n	240063ac <HAL_I2C_Slave_Seq_Receive_IT+0xac>
24006324:	f248 0102 	movw	r1, #32770	; 0x8002
24006328:	f7fe f988 	bl	2400463c <I2C_Disable_IRQ>
2400632c:	f890 3040 	ldrb.w	r3, [r0, #64]	; 0x40
24006330:	2b01      	cmp	r3, #1
24006332:	d03c      	beq.n	240063ae <HAL_I2C_Slave_Seq_Receive_IT+0xae>
24006334:	f890 3041 	ldrb.w	r3, [r0, #65]	; 0x41
24006338:	2101      	movs	r1, #1
2400633a:	2b29      	cmp	r3, #41	; 0x29
2400633c:	f880 1040 	strb.w	r1, [r0, #64]	; 0x40
24006340:	d113      	bne.n	2400636a <HAL_I2C_Slave_Seq_Receive_IT+0x6a>
24006342:	f7fe f97b 	bl	2400463c <I2C_Disable_IRQ>
24006346:	6803      	ldr	r3, [r0, #0]
24006348:	681a      	ldr	r2, [r3, #0]
2400634a:	0452      	lsls	r2, r2, #17
2400634c:	d50d      	bpl.n	2400636a <HAL_I2C_Slave_Seq_Receive_IT+0x6a>
2400634e:	681a      	ldr	r2, [r3, #0]
24006350:	6b80      	ldr	r0, [r0, #56]	; 0x38
24006352:	f422 4280 	bic.w	r2, r2, #16384	; 0x4000
24006356:	601a      	str	r2, [r3, #0]
24006358:	b138      	cbz	r0, 2400636a <HAL_I2C_Slave_Seq_Receive_IT+0x6a>
2400635a:	4b16      	ldr	r3, [pc, #88]	; (240063b4 <HAL_I2C_Slave_Seq_Receive_IT+0xb4>)
2400635c:	6503      	str	r3, [r0, #80]	; 0x50
2400635e:	f7fb fd3f 	bl	24001de0 <HAL_DMA_Abort_IT>
24006362:	b110      	cbz	r0, 2400636a <HAL_I2C_Slave_Seq_Receive_IT+0x6a>
24006364:	6ba0      	ldr	r0, [r4, #56]	; 0x38
24006366:	6d03      	ldr	r3, [r0, #80]	; 0x50
24006368:	4798      	blx	r3
2400636a:	232a      	movs	r3, #42	; 0x2a
2400636c:	6820      	ldr	r0, [r4, #0]
2400636e:	2200      	movs	r2, #0
24006370:	f884 3041 	strb.w	r3, [r4, #65]	; 0x41
24006374:	2320      	movs	r3, #32
24006376:	f884 3042 	strb.w	r3, [r4, #66]	; 0x42
2400637a:	6462      	str	r2, [r4, #68]	; 0x44
2400637c:	6843      	ldr	r3, [r0, #4]
2400637e:	f423 4300 	bic.w	r3, r3, #32768	; 0x8000
24006382:	6043      	str	r3, [r0, #4]
24006384:	8565      	strh	r5, [r4, #42]	; 0x2a
24006386:	8d63      	ldrh	r3, [r4, #42]	; 0x2a
24006388:	62e7      	str	r7, [r4, #44]	; 0x2c
2400638a:	8523      	strh	r3, [r4, #40]	; 0x28
2400638c:	4b0a      	ldr	r3, [pc, #40]	; (240063b8 <HAL_I2C_Slave_Seq_Receive_IT+0xb8>)
2400638e:	6266      	str	r6, [r4, #36]	; 0x24
24006390:	6363      	str	r3, [r4, #52]	; 0x34
24006392:	6983      	ldr	r3, [r0, #24]
24006394:	03db      	lsls	r3, r3, #15
24006396:	d401      	bmi.n	2400639c <HAL_I2C_Slave_Seq_Receive_IT+0x9c>
24006398:	2308      	movs	r3, #8
2400639a:	61c3      	str	r3, [r0, #28]
2400639c:	4620      	mov	r0, r4
2400639e:	f248 0102 	movw	r1, #32770	; 0x8002
240063a2:	f884 2040 	strb.w	r2, [r4, #64]	; 0x40
240063a6:	f7fe f915 	bl	240045d4 <I2C_Enable_IRQ>
240063aa:	2000      	movs	r0, #0
240063ac:	bdf8      	pop	{r3, r4, r5, r6, r7, pc}
240063ae:	2002      	movs	r0, #2
240063b0:	e7fc      	b.n	240063ac <HAL_I2C_Slave_Seq_Receive_IT+0xac>
240063b2:	bf00      	nop
240063b4:	24007269 	.word	0x24007269
240063b8:	24006add 	.word	0x24006add

240063bc <HAL_I2C_Slave_Seq_Receive_DMA>:
240063bc:	e92d 41f0 	stmdb	sp!, {r4, r5, r6, r7, r8, lr}
240063c0:	4698      	mov	r8, r3
240063c2:	f890 3041 	ldrb.w	r3, [r0, #65]	; 0x41
240063c6:	4604      	mov	r4, r0
240063c8:	460d      	mov	r5, r1
240063ca:	f003 0328 	and.w	r3, r3, #40	; 0x28
240063ce:	4617      	mov	r7, r2
240063d0:	2b28      	cmp	r3, #40	; 0x28
240063d2:	d104      	bne.n	240063de <HAL_I2C_Slave_Seq_Receive_DMA+0x22>
240063d4:	b101      	cbz	r1, 240063d8 <HAL_I2C_Slave_Seq_Receive_DMA+0x1c>
240063d6:	b922      	cbnz	r2, 240063e2 <HAL_I2C_Slave_Seq_Receive_DMA+0x26>
240063d8:	f44f 7300 	mov.w	r3, #512	; 0x200
240063dc:	6463      	str	r3, [r4, #68]	; 0x44
240063de:	2501      	movs	r5, #1
240063e0:	e08e      	b.n	24006500 <HAL_I2C_Slave_Seq_Receive_DMA+0x144>
240063e2:	f248 0102 	movw	r1, #32770	; 0x8002
240063e6:	f7fe f929 	bl	2400463c <I2C_Disable_IRQ>
240063ea:	f890 3040 	ldrb.w	r3, [r0, #64]	; 0x40
240063ee:	2b01      	cmp	r3, #1
240063f0:	f000 808c 	beq.w	2400650c <HAL_I2C_Slave_Seq_Receive_DMA+0x150>
240063f4:	f890 3041 	ldrb.w	r3, [r0, #65]	; 0x41
240063f8:	2101      	movs	r1, #1
240063fa:	2b29      	cmp	r3, #41	; 0x29
240063fc:	f880 1040 	strb.w	r1, [r0, #64]	; 0x40
24006400:	d144      	bne.n	2400648c <HAL_I2C_Slave_Seq_Receive_DMA+0xd0>
24006402:	f7fe f91b 	bl	2400463c <I2C_Disable_IRQ>
24006406:	6803      	ldr	r3, [r0, #0]
24006408:	681a      	ldr	r2, [r3, #0]
2400640a:	0450      	lsls	r0, r2, #17
2400640c:	d50d      	bpl.n	2400642a <HAL_I2C_Slave_Seq_Receive_DMA+0x6e>
2400640e:	6ba0      	ldr	r0, [r4, #56]	; 0x38
24006410:	b158      	cbz	r0, 2400642a <HAL_I2C_Slave_Seq_Receive_DMA+0x6e>
24006412:	681a      	ldr	r2, [r3, #0]
24006414:	f422 4280 	bic.w	r2, r2, #16384	; 0x4000
24006418:	601a      	str	r2, [r3, #0]
2400641a:	4b3d      	ldr	r3, [pc, #244]	; (24006510 <HAL_I2C_Slave_Seq_Receive_DMA+0x154>)
2400641c:	6503      	str	r3, [r0, #80]	; 0x50
2400641e:	f7fb fcdf 	bl	24001de0 <HAL_DMA_Abort_IT>
24006422:	b110      	cbz	r0, 2400642a <HAL_I2C_Slave_Seq_Receive_DMA+0x6e>
24006424:	6ba0      	ldr	r0, [r4, #56]	; 0x38
24006426:	6d03      	ldr	r3, [r0, #80]	; 0x50
24006428:	4798      	blx	r3
2400642a:	232a      	movs	r3, #42	; 0x2a
2400642c:	6821      	ldr	r1, [r4, #0]
2400642e:	2600      	movs	r6, #0
24006430:	6be0      	ldr	r0, [r4, #60]	; 0x3c
24006432:	f884 3041 	strb.w	r3, [r4, #65]	; 0x41
24006436:	2320      	movs	r3, #32
24006438:	f884 3042 	strb.w	r3, [r4, #66]	; 0x42
2400643c:	6466      	str	r6, [r4, #68]	; 0x44
2400643e:	684b      	ldr	r3, [r1, #4]
24006440:	f423 4300 	bic.w	r3, r3, #32768	; 0x8000
24006444:	604b      	str	r3, [r1, #4]
24006446:	8567      	strh	r7, [r4, #42]	; 0x2a
24006448:	8d62      	ldrh	r2, [r4, #42]	; 0x2a
2400644a:	6265      	str	r5, [r4, #36]	; 0x24
2400644c:	b293      	uxth	r3, r2
2400644e:	4a31      	ldr	r2, [pc, #196]	; (24006514 <HAL_I2C_Slave_Seq_Receive_DMA+0x158>)
24006450:	f8c4 802c 	str.w	r8, [r4, #44]	; 0x2c
24006454:	8523      	strh	r3, [r4, #40]	; 0x28
24006456:	6362      	str	r2, [r4, #52]	; 0x34
24006458:	2800      	cmp	r0, #0
2400645a:	d02e      	beq.n	240064ba <HAL_I2C_Slave_Seq_Receive_DMA+0xfe>
2400645c:	4a2e      	ldr	r2, [pc, #184]	; (24006518 <HAL_I2C_Slave_Seq_Receive_DMA+0x15c>)
2400645e:	3124      	adds	r1, #36	; 0x24
24006460:	6406      	str	r6, [r0, #64]	; 0x40
24006462:	63c2      	str	r2, [r0, #60]	; 0x3c
24006464:	4a2d      	ldr	r2, [pc, #180]	; (2400651c <HAL_I2C_Slave_Seq_Receive_DMA+0x160>)
24006466:	6506      	str	r6, [r0, #80]	; 0x50
24006468:	64c2      	str	r2, [r0, #76]	; 0x4c
2400646a:	462a      	mov	r2, r5
2400646c:	f7fb f9f0 	bl	24001850 <HAL_DMA_Start_IT>
24006470:	4605      	mov	r5, r0
24006472:	b370      	cbz	r0, 240064d2 <HAL_I2C_Slave_Seq_Receive_DMA+0x116>
24006474:	2328      	movs	r3, #40	; 0x28
24006476:	f884 6040 	strb.w	r6, [r4, #64]	; 0x40
2400647a:	f884 3041 	strb.w	r3, [r4, #65]	; 0x41
2400647e:	f884 6042 	strb.w	r6, [r4, #66]	; 0x42
24006482:	6c63      	ldr	r3, [r4, #68]	; 0x44
24006484:	f043 0310 	orr.w	r3, r3, #16
24006488:	6463      	str	r3, [r4, #68]	; 0x44
2400648a:	e7a8      	b.n	240063de <HAL_I2C_Slave_Seq_Receive_DMA+0x22>
2400648c:	f890 3041 	ldrb.w	r3, [r0, #65]	; 0x41
24006490:	2b2a      	cmp	r3, #42	; 0x2a
24006492:	d1ca      	bne.n	2400642a <HAL_I2C_Slave_Seq_Receive_DMA+0x6e>
24006494:	6803      	ldr	r3, [r0, #0]
24006496:	681a      	ldr	r2, [r3, #0]
24006498:	0411      	lsls	r1, r2, #16
2400649a:	d5c6      	bpl.n	2400642a <HAL_I2C_Slave_Seq_Receive_DMA+0x6e>
2400649c:	681a      	ldr	r2, [r3, #0]
2400649e:	6bc0      	ldr	r0, [r0, #60]	; 0x3c
240064a0:	f422 4200 	bic.w	r2, r2, #32768	; 0x8000
240064a4:	601a      	str	r2, [r3, #0]
240064a6:	2800      	cmp	r0, #0
240064a8:	d0bf      	beq.n	2400642a <HAL_I2C_Slave_Seq_Receive_DMA+0x6e>
240064aa:	4b19      	ldr	r3, [pc, #100]	; (24006510 <HAL_I2C_Slave_Seq_Receive_DMA+0x154>)
240064ac:	6503      	str	r3, [r0, #80]	; 0x50
240064ae:	f7fb fc97 	bl	24001de0 <HAL_DMA_Abort_IT>
240064b2:	2800      	cmp	r0, #0
240064b4:	d0b9      	beq.n	2400642a <HAL_I2C_Slave_Seq_Receive_DMA+0x6e>
240064b6:	6be0      	ldr	r0, [r4, #60]	; 0x3c
240064b8:	e7b5      	b.n	24006426 <HAL_I2C_Slave_Seq_Receive_DMA+0x6a>
240064ba:	2328      	movs	r3, #40	; 0x28
240064bc:	f884 0040 	strb.w	r0, [r4, #64]	; 0x40
240064c0:	f884 3041 	strb.w	r3, [r4, #65]	; 0x41
240064c4:	f884 0042 	strb.w	r0, [r4, #66]	; 0x42
240064c8:	6c63      	ldr	r3, [r4, #68]	; 0x44
240064ca:	f043 0380 	orr.w	r3, r3, #128	; 0x80
240064ce:	6463      	str	r3, [r4, #68]	; 0x44
240064d0:	e785      	b.n	240063de <HAL_I2C_Slave_Seq_Receive_DMA+0x22>
240064d2:	8d63      	ldrh	r3, [r4, #42]	; 0x2a
240064d4:	8d22      	ldrh	r2, [r4, #40]	; 0x28
240064d6:	8520      	strh	r0, [r4, #40]	; 0x28
240064d8:	1a9b      	subs	r3, r3, r2
240064da:	b29b      	uxth	r3, r3
240064dc:	8563      	strh	r3, [r4, #42]	; 0x2a
240064de:	6823      	ldr	r3, [r4, #0]
240064e0:	699a      	ldr	r2, [r3, #24]
240064e2:	03d2      	lsls	r2, r2, #15
240064e4:	d50f      	bpl.n	24006506 <HAL_I2C_Slave_Seq_Receive_DMA+0x14a>
240064e6:	2300      	movs	r3, #0
240064e8:	f248 0102 	movw	r1, #32770	; 0x8002
240064ec:	4620      	mov	r0, r4
240064ee:	f884 3040 	strb.w	r3, [r4, #64]	; 0x40
240064f2:	f7fe f86f 	bl	240045d4 <I2C_Enable_IRQ>
240064f6:	6822      	ldr	r2, [r4, #0]
240064f8:	6813      	ldr	r3, [r2, #0]
240064fa:	f443 4300 	orr.w	r3, r3, #32768	; 0x8000
240064fe:	6013      	str	r3, [r2, #0]
24006500:	4628      	mov	r0, r5
24006502:	e8bd 81f0 	ldmia.w	sp!, {r4, r5, r6, r7, r8, pc}
24006506:	2208      	movs	r2, #8
24006508:	61da      	str	r2, [r3, #28]
2400650a:	e7ec      	b.n	240064e6 <HAL_I2C_Slave_Seq_Receive_DMA+0x12a>
2400650c:	2502      	movs	r5, #2
2400650e:	e7f7      	b.n	24006500 <HAL_I2C_Slave_Seq_Receive_DMA+0x144>
24006510:	24007269 	.word	0x24007269
24006514:	24006df9 	.word	0x24006df9
24006518:	240066d9 	.word	0x240066d9
2400651c:	24007085 	.word	0x24007085

24006520 <HAL_I2C_EnableListen_IT>:
24006520:	b508      	push	{r3, lr}
24006522:	f890 2041 	ldrb.w	r2, [r0, #65]	; 0x41
24006526:	2a20      	cmp	r2, #32
24006528:	d10a      	bne.n	24006540 <HAL_I2C_EnableListen_IT+0x20>
2400652a:	2228      	movs	r2, #40	; 0x28
2400652c:	f44f 4100 	mov.w	r1, #32768	; 0x8000
24006530:	f880 2041 	strb.w	r2, [r0, #65]	; 0x41
24006534:	4a03      	ldr	r2, [pc, #12]	; (24006544 <HAL_I2C_EnableListen_IT+0x24>)
24006536:	6342      	str	r2, [r0, #52]	; 0x34
24006538:	f7fe f84c 	bl	240045d4 <I2C_Enable_IRQ>
2400653c:	2000      	movs	r0, #0
2400653e:	bd08      	pop	{r3, pc}
24006540:	2002      	movs	r0, #2
24006542:	e7fc      	b.n	2400653e <HAL_I2C_EnableListen_IT+0x1e>
24006544:	24006add 	.word	0x24006add

24006548 <HAL_I2C_DisableListen_IT>:
24006548:	b510      	push	{r4, lr}
2400654a:	f890 2041 	ldrb.w	r2, [r0, #65]	; 0x41
2400654e:	2a28      	cmp	r2, #40	; 0x28
24006550:	d114      	bne.n	2400657c <HAL_I2C_DisableListen_IT+0x34>
24006552:	f890 1041 	ldrb.w	r1, [r0, #65]	; 0x41
24006556:	2400      	movs	r4, #0
24006558:	f890 2042 	ldrb.w	r2, [r0, #66]	; 0x42
2400655c:	f001 0103 	and.w	r1, r1, #3
24006560:	6344      	str	r4, [r0, #52]	; 0x34
24006562:	430a      	orrs	r2, r1
24006564:	f44f 4100 	mov.w	r1, #32768	; 0x8000
24006568:	6302      	str	r2, [r0, #48]	; 0x30
2400656a:	2220      	movs	r2, #32
2400656c:	f880 2041 	strb.w	r2, [r0, #65]	; 0x41
24006570:	f880 4042 	strb.w	r4, [r0, #66]	; 0x42
24006574:	f7fe f862 	bl	2400463c <I2C_Disable_IRQ>
24006578:	4620      	mov	r0, r4
2400657a:	bd10      	pop	{r4, pc}
2400657c:	2002      	movs	r0, #2
2400657e:	e7fc      	b.n	2400657a <HAL_I2C_DisableListen_IT+0x32>

24006580 <HAL_I2C_Master_Abort_IT>:
24006580:	b537      	push	{r0, r1, r2, r4, r5, lr}
24006582:	f890 3042 	ldrb.w	r3, [r0, #66]	; 0x42
24006586:	4604      	mov	r4, r0
24006588:	460d      	mov	r5, r1
2400658a:	2b10      	cmp	r3, #16
2400658c:	d12d      	bne.n	240065ea <HAL_I2C_Master_Abort_IT+0x6a>
2400658e:	f890 3040 	ldrb.w	r3, [r0, #64]	; 0x40
24006592:	2b01      	cmp	r3, #1
24006594:	d02b      	beq.n	240065ee <HAL_I2C_Master_Abort_IT+0x6e>
24006596:	f890 3041 	ldrb.w	r3, [r0, #65]	; 0x41
2400659a:	2101      	movs	r1, #1
2400659c:	2b21      	cmp	r3, #33	; 0x21
2400659e:	f880 1040 	strb.w	r1, [r0, #64]	; 0x40
240065a2:	d119      	bne.n	240065d8 <HAL_I2C_Master_Abort_IT+0x58>
240065a4:	f7fe f84a 	bl	2400463c <I2C_Disable_IRQ>
240065a8:	2311      	movs	r3, #17
240065aa:	6323      	str	r3, [r4, #48]	; 0x30
240065ac:	2360      	movs	r3, #96	; 0x60
240065ae:	4629      	mov	r1, r5
240065b0:	2500      	movs	r5, #0
240065b2:	2201      	movs	r2, #1
240065b4:	f884 3041 	strb.w	r3, [r4, #65]	; 0x41
240065b8:	4620      	mov	r0, r4
240065ba:	4b0e      	ldr	r3, [pc, #56]	; (240065f4 <HAL_I2C_Master_Abort_IT+0x74>)
240065bc:	9300      	str	r3, [sp, #0]
240065be:	f04f 7300 	mov.w	r3, #33554432	; 0x2000000
240065c2:	f7fd fff3 	bl	240045ac <I2C_TransferConfig>
240065c6:	4620      	mov	r0, r4
240065c8:	2120      	movs	r1, #32
240065ca:	f884 5040 	strb.w	r5, [r4, #64]	; 0x40
240065ce:	f7fe f801 	bl	240045d4 <I2C_Enable_IRQ>
240065d2:	4628      	mov	r0, r5
240065d4:	b003      	add	sp, #12
240065d6:	bd30      	pop	{r4, r5, pc}
240065d8:	f890 3041 	ldrb.w	r3, [r0, #65]	; 0x41
240065dc:	2b22      	cmp	r3, #34	; 0x22
240065de:	d1e5      	bne.n	240065ac <HAL_I2C_Master_Abort_IT+0x2c>
240065e0:	2102      	movs	r1, #2
240065e2:	f7fe f82b 	bl	2400463c <I2C_Disable_IRQ>
240065e6:	2312      	movs	r3, #18
240065e8:	e7df      	b.n	240065aa <HAL_I2C_Master_Abort_IT+0x2a>
240065ea:	2001      	movs	r0, #1
240065ec:	e7f2      	b.n	240065d4 <HAL_I2C_Master_Abort_IT+0x54>
240065ee:	2002      	movs	r0, #2
240065f0:	e7f0      	b.n	240065d4 <HAL_I2C_Master_Abort_IT+0x54>
240065f2:	bf00      	nop
240065f4:	80004000 	.word	0x80004000

240065f8 <HAL_I2C_EV_IRQHandler>:
240065f8:	6802      	ldr	r2, [r0, #0]
240065fa:	6b43      	ldr	r3, [r0, #52]	; 0x34
240065fc:	6991      	ldr	r1, [r2, #24]
240065fe:	6812      	ldr	r2, [r2, #0]
24006600:	b103      	cbz	r3, 24006604 <HAL_I2C_EV_IRQHandler+0xc>
24006602:	4718      	bx	r3
24006604:	4770      	bx	lr

24006606 <HAL_I2C_MasterTxCpltCallback>:
24006606:	4770      	bx	lr

24006608 <HAL_I2C_MasterRxCpltCallback>:
24006608:	4770      	bx	lr

2400660a <I2C_ITMasterSeqCplt>:
2400660a:	b538      	push	{r3, r4, r5, lr}
2400660c:	2500      	movs	r5, #0
2400660e:	f880 5042 	strb.w	r5, [r0, #66]	; 0x42
24006612:	f890 3041 	ldrb.w	r3, [r0, #65]	; 0x41
24006616:	2b21      	cmp	r3, #33	; 0x21
24006618:	f04f 0320 	mov.w	r3, #32
2400661c:	f880 3041 	strb.w	r3, [r0, #65]	; 0x41
24006620:	d10a      	bne.n	24006638 <I2C_ITMasterSeqCplt+0x2e>
24006622:	2311      	movs	r3, #17
24006624:	2101      	movs	r1, #1
24006626:	6345      	str	r5, [r0, #52]	; 0x34
24006628:	6303      	str	r3, [r0, #48]	; 0x30
2400662a:	f7fe f807 	bl	2400463c <I2C_Disable_IRQ>
2400662e:	f880 5040 	strb.w	r5, [r0, #64]	; 0x40
24006632:	f7ff ffe8 	bl	24006606 <HAL_I2C_MasterTxCpltCallback>
24006636:	bd38      	pop	{r3, r4, r5, pc}
24006638:	2312      	movs	r3, #18
2400663a:	2102      	movs	r1, #2
2400663c:	6345      	str	r5, [r0, #52]	; 0x34
2400663e:	6303      	str	r3, [r0, #48]	; 0x30
24006640:	f7fd fffc 	bl	2400463c <I2C_Disable_IRQ>
24006644:	f880 5040 	strb.w	r5, [r0, #64]	; 0x40
24006648:	f7ff ffde 	bl	24006608 <HAL_I2C_MasterRxCpltCallback>
2400664c:	e7f3      	b.n	24006636 <I2C_ITMasterSeqCplt+0x2c>

2400664e <HAL_I2C_SlaveTxCpltCallback>:
2400664e:	4770      	bx	lr

24006650 <HAL_I2C_SlaveRxCpltCallback>:
24006650:	4770      	bx	lr

24006652 <I2C_ITSlaveSeqCplt>:
24006652:	b508      	push	{r3, lr}
24006654:	6803      	ldr	r3, [r0, #0]
24006656:	2100      	movs	r1, #0
24006658:	681a      	ldr	r2, [r3, #0]
2400665a:	f880 1042 	strb.w	r1, [r0, #66]	; 0x42
2400665e:	0451      	lsls	r1, r2, #17
24006660:	d515      	bpl.n	2400668e <I2C_ITSlaveSeqCplt+0x3c>
24006662:	681a      	ldr	r2, [r3, #0]
24006664:	f422 4280 	bic.w	r2, r2, #16384	; 0x4000
24006668:	601a      	str	r2, [r3, #0]
2400666a:	f890 3041 	ldrb.w	r3, [r0, #65]	; 0x41
2400666e:	2b29      	cmp	r3, #41	; 0x29
24006670:	d113      	bne.n	2400669a <I2C_ITSlaveSeqCplt+0x48>
24006672:	2328      	movs	r3, #40	; 0x28
24006674:	2101      	movs	r1, #1
24006676:	f880 3041 	strb.w	r3, [r0, #65]	; 0x41
2400667a:	2321      	movs	r3, #33	; 0x21
2400667c:	6303      	str	r3, [r0, #48]	; 0x30
2400667e:	f7fd ffdd 	bl	2400463c <I2C_Disable_IRQ>
24006682:	2300      	movs	r3, #0
24006684:	f880 3040 	strb.w	r3, [r0, #64]	; 0x40
24006688:	f7ff ffe1 	bl	2400664e <HAL_I2C_SlaveTxCpltCallback>
2400668c:	bd08      	pop	{r3, pc}
2400668e:	0412      	lsls	r2, r2, #16
24006690:	d5eb      	bpl.n	2400666a <I2C_ITSlaveSeqCplt+0x18>
24006692:	681a      	ldr	r2, [r3, #0]
24006694:	f422 4200 	bic.w	r2, r2, #32768	; 0x8000
24006698:	e7e6      	b.n	24006668 <I2C_ITSlaveSeqCplt+0x16>
2400669a:	f890 3041 	ldrb.w	r3, [r0, #65]	; 0x41
2400669e:	2b2a      	cmp	r3, #42	; 0x2a
240066a0:	d1f4      	bne.n	2400668c <I2C_ITSlaveSeqCplt+0x3a>
240066a2:	2328      	movs	r3, #40	; 0x28
240066a4:	2102      	movs	r1, #2
240066a6:	f880 3041 	strb.w	r3, [r0, #65]	; 0x41
240066aa:	2322      	movs	r3, #34	; 0x22
240066ac:	6303      	str	r3, [r0, #48]	; 0x30
240066ae:	f7fd ffc5 	bl	2400463c <I2C_Disable_IRQ>
240066b2:	2300      	movs	r3, #0
240066b4:	f880 3040 	strb.w	r3, [r0, #64]	; 0x40
240066b8:	f7ff ffca 	bl	24006650 <HAL_I2C_SlaveRxCpltCallback>
240066bc:	e7e6      	b.n	2400668c <I2C_ITSlaveSeqCplt+0x3a>

240066be <I2C_DMASlaveTransmitCplt>:
240066be:	6b80      	ldr	r0, [r0, #56]	; 0x38
240066c0:	6ac3      	ldr	r3, [r0, #44]	; 0x2c
240066c2:	f033 7380 	bics.w	r3, r3, #16777216	; 0x1000000
240066c6:	d106      	bne.n	240066d6 <I2C_DMASlaveTransmitCplt+0x18>
240066c8:	6802      	ldr	r2, [r0, #0]
240066ca:	6813      	ldr	r3, [r2, #0]
240066cc:	f423 4380 	bic.w	r3, r3, #16384	; 0x4000
240066d0:	6013      	str	r3, [r2, #0]
240066d2:	f7ff bfbe 	b.w	24006652 <I2C_ITSlaveSeqCplt>
240066d6:	4770      	bx	lr

240066d8 <I2C_DMASlaveReceiveCplt>:
240066d8:	6b80      	ldr	r0, [r0, #56]	; 0x38
240066da:	4922      	ldr	r1, [pc, #136]	; (24006764 <I2C_DMASlaveReceiveCplt+0x8c>)
240066dc:	6bc3      	ldr	r3, [r0, #60]	; 0x3c
240066de:	6ac2      	ldr	r2, [r0, #44]	; 0x2c
240066e0:	681b      	ldr	r3, [r3, #0]
240066e2:	428b      	cmp	r3, r1
240066e4:	d02d      	beq.n	24006742 <I2C_DMASlaveReceiveCplt+0x6a>
240066e6:	3118      	adds	r1, #24
240066e8:	428b      	cmp	r3, r1
240066ea:	d02a      	beq.n	24006742 <I2C_DMASlaveReceiveCplt+0x6a>
240066ec:	3118      	adds	r1, #24
240066ee:	428b      	cmp	r3, r1
240066f0:	d027      	beq.n	24006742 <I2C_DMASlaveReceiveCplt+0x6a>
240066f2:	3118      	adds	r1, #24
240066f4:	428b      	cmp	r3, r1
240066f6:	d024      	beq.n	24006742 <I2C_DMASlaveReceiveCplt+0x6a>
240066f8:	3118      	adds	r1, #24
240066fa:	428b      	cmp	r3, r1
240066fc:	d021      	beq.n	24006742 <I2C_DMASlaveReceiveCplt+0x6a>
240066fe:	3118      	adds	r1, #24
24006700:	428b      	cmp	r3, r1
24006702:	d01e      	beq.n	24006742 <I2C_DMASlaveReceiveCplt+0x6a>
24006704:	3118      	adds	r1, #24
24006706:	428b      	cmp	r3, r1
24006708:	d01b      	beq.n	24006742 <I2C_DMASlaveReceiveCplt+0x6a>
2400670a:	3118      	adds	r1, #24
2400670c:	428b      	cmp	r3, r1
2400670e:	d018      	beq.n	24006742 <I2C_DMASlaveReceiveCplt+0x6a>
24006710:	f501 7156 	add.w	r1, r1, #856	; 0x358
24006714:	428b      	cmp	r3, r1
24006716:	d014      	beq.n	24006742 <I2C_DMASlaveReceiveCplt+0x6a>
24006718:	3118      	adds	r1, #24
2400671a:	428b      	cmp	r3, r1
2400671c:	d011      	beq.n	24006742 <I2C_DMASlaveReceiveCplt+0x6a>
2400671e:	3118      	adds	r1, #24
24006720:	428b      	cmp	r3, r1
24006722:	d00e      	beq.n	24006742 <I2C_DMASlaveReceiveCplt+0x6a>
24006724:	3118      	adds	r1, #24
24006726:	428b      	cmp	r3, r1
24006728:	d00b      	beq.n	24006742 <I2C_DMASlaveReceiveCplt+0x6a>
2400672a:	3118      	adds	r1, #24
2400672c:	428b      	cmp	r3, r1
2400672e:	d008      	beq.n	24006742 <I2C_DMASlaveReceiveCplt+0x6a>
24006730:	3118      	adds	r1, #24
24006732:	428b      	cmp	r3, r1
24006734:	d005      	beq.n	24006742 <I2C_DMASlaveReceiveCplt+0x6a>
24006736:	3118      	adds	r1, #24
24006738:	428b      	cmp	r3, r1
2400673a:	d002      	beq.n	24006742 <I2C_DMASlaveReceiveCplt+0x6a>
2400673c:	3118      	adds	r1, #24
2400673e:	428b      	cmp	r3, r1
24006740:	d102      	bne.n	24006748 <I2C_DMASlaveReceiveCplt+0x70>
24006742:	685b      	ldr	r3, [r3, #4]
24006744:	b113      	cbz	r3, 2400674c <I2C_DMASlaveReceiveCplt+0x74>
24006746:	4770      	bx	lr
24006748:	685b      	ldr	r3, [r3, #4]
2400674a:	b94b      	cbnz	r3, 24006760 <I2C_DMASlaveReceiveCplt+0x88>
2400674c:	f512 3f80 	cmn.w	r2, #65536	; 0x10000
24006750:	d006      	beq.n	24006760 <I2C_DMASlaveReceiveCplt+0x88>
24006752:	6802      	ldr	r2, [r0, #0]
24006754:	6813      	ldr	r3, [r2, #0]
24006756:	f423 4300 	bic.w	r3, r3, #32768	; 0x8000
2400675a:	6013      	str	r3, [r2, #0]
2400675c:	f7ff bf79 	b.w	24006652 <I2C_ITSlaveSeqCplt>
24006760:	4770      	bx	lr
24006762:	bf00      	nop
24006764:	40020010 	.word	0x40020010

24006768 <HAL_I2C_AddrCallback>:
24006768:	4770      	bx	lr

2400676a <I2C_ITAddrCplt.constprop.0>:
2400676a:	f890 2041 	ldrb.w	r2, [r0, #65]	; 0x41
2400676e:	f002 0228 	and.w	r2, r2, #40	; 0x28
24006772:	2a28      	cmp	r2, #40	; 0x28
24006774:	b5f8      	push	{r3, r4, r5, r6, r7, lr}
24006776:	6803      	ldr	r3, [r0, #0]
24006778:	d135      	bne.n	240067e6 <I2C_ITAddrCplt.constprop.0+0x7c>
2400677a:	699e      	ldr	r6, [r3, #24]
2400677c:	68c2      	ldr	r2, [r0, #12]
2400677e:	699d      	ldr	r5, [r3, #24]
24006780:	f3c6 4600 	ubfx	r6, r6, #16, #1
24006784:	2a02      	cmp	r2, #2
24006786:	6899      	ldr	r1, [r3, #8]
24006788:	ea4f 4515 	mov.w	r5, r5, lsr #16
2400678c:	68df      	ldr	r7, [r3, #12]
2400678e:	f005 05fe 	and.w	r5, r5, #254	; 0xfe
24006792:	d11f      	bne.n	240067d4 <I2C_ITAddrCplt.constprop.0+0x6a>
24006794:	ea85 15d1 	eor.w	r5, r5, r1, lsr #7
24006798:	f3c1 0209 	ubfx	r2, r1, #0, #10
2400679c:	f015 0506 	ands.w	r5, r5, #6
240067a0:	d10e      	bne.n	240067c0 <I2C_ITAddrCplt.constprop.0+0x56>
240067a2:	6c81      	ldr	r1, [r0, #72]	; 0x48
240067a4:	3101      	adds	r1, #1
240067a6:	6481      	str	r1, [r0, #72]	; 0x48
240067a8:	6c81      	ldr	r1, [r0, #72]	; 0x48
240067aa:	2902      	cmp	r1, #2
240067ac:	d107      	bne.n	240067be <I2C_ITAddrCplt.constprop.0+0x54>
240067ae:	2108      	movs	r1, #8
240067b0:	6485      	str	r5, [r0, #72]	; 0x48
240067b2:	61d9      	str	r1, [r3, #28]
240067b4:	f880 5040 	strb.w	r5, [r0, #64]	; 0x40
240067b8:	4631      	mov	r1, r6
240067ba:	f7ff ffd5 	bl	24006768 <HAL_I2C_AddrCallback>
240067be:	bdf8      	pop	{r3, r4, r5, r6, r7, pc}
240067c0:	f44f 4100 	mov.w	r1, #32768	; 0x8000
240067c4:	f7fd ff3a 	bl	2400463c <I2C_Disable_IRQ>
240067c8:	2300      	movs	r3, #0
240067ca:	f007 02fe 	and.w	r2, r7, #254	; 0xfe
240067ce:	f880 3040 	strb.w	r3, [r0, #64]	; 0x40
240067d2:	e7f1      	b.n	240067b8 <I2C_ITAddrCplt.constprop.0+0x4e>
240067d4:	f44f 4100 	mov.w	r1, #32768	; 0x8000
240067d8:	f7fd ff30 	bl	2400463c <I2C_Disable_IRQ>
240067dc:	2300      	movs	r3, #0
240067de:	462a      	mov	r2, r5
240067e0:	f880 3040 	strb.w	r3, [r0, #64]	; 0x40
240067e4:	e7e8      	b.n	240067b8 <I2C_ITAddrCplt.constprop.0+0x4e>
240067e6:	2208      	movs	r2, #8
240067e8:	61da      	str	r2, [r3, #28]
240067ea:	2300      	movs	r3, #0
240067ec:	f880 3040 	strb.w	r3, [r0, #64]	; 0x40
240067f0:	e7e5      	b.n	240067be <I2C_ITAddrCplt.constprop.0+0x54>

240067f2 <HAL_I2C_ListenCpltCallback>:
240067f2:	4770      	bx	lr

240067f4 <I2C_ITListenCplt>:
240067f4:	b508      	push	{r3, lr}
240067f6:	4b16      	ldr	r3, [pc, #88]	; (24006850 <I2C_ITListenCplt+0x5c>)
240067f8:	2220      	movs	r2, #32
240067fa:	62c3      	str	r3, [r0, #44]	; 0x2c
240067fc:	2300      	movs	r3, #0
240067fe:	6303      	str	r3, [r0, #48]	; 0x30
24006800:	6343      	str	r3, [r0, #52]	; 0x34
24006802:	f880 2041 	strb.w	r2, [r0, #65]	; 0x41
24006806:	f880 3042 	strb.w	r3, [r0, #66]	; 0x42
2400680a:	074b      	lsls	r3, r1, #29
2400680c:	d512      	bpl.n	24006834 <I2C_ITListenCplt+0x40>
2400680e:	6803      	ldr	r3, [r0, #0]
24006810:	6a5a      	ldr	r2, [r3, #36]	; 0x24
24006812:	6a43      	ldr	r3, [r0, #36]	; 0x24
24006814:	701a      	strb	r2, [r3, #0]
24006816:	6a43      	ldr	r3, [r0, #36]	; 0x24
24006818:	3301      	adds	r3, #1
2400681a:	6243      	str	r3, [r0, #36]	; 0x24
2400681c:	8d03      	ldrh	r3, [r0, #40]	; 0x28
2400681e:	b14b      	cbz	r3, 24006834 <I2C_ITListenCplt+0x40>
24006820:	3b01      	subs	r3, #1
24006822:	8503      	strh	r3, [r0, #40]	; 0x28
24006824:	8d43      	ldrh	r3, [r0, #42]	; 0x2a
24006826:	3b01      	subs	r3, #1
24006828:	b29b      	uxth	r3, r3
2400682a:	8543      	strh	r3, [r0, #42]	; 0x2a
2400682c:	6c43      	ldr	r3, [r0, #68]	; 0x44
2400682e:	f043 0304 	orr.w	r3, r3, #4
24006832:	6443      	str	r3, [r0, #68]	; 0x44
24006834:	f248 0103 	movw	r1, #32771	; 0x8003
24006838:	f7fd ff00 	bl	2400463c <I2C_Disable_IRQ>
2400683c:	6803      	ldr	r3, [r0, #0]
2400683e:	2210      	movs	r2, #16
24006840:	61da      	str	r2, [r3, #28]
24006842:	2300      	movs	r3, #0
24006844:	f880 3040 	strb.w	r3, [r0, #64]	; 0x40
24006848:	f7ff ffd3 	bl	240067f2 <HAL_I2C_ListenCpltCallback>
2400684c:	bd08      	pop	{r3, pc}
2400684e:	bf00      	nop
24006850:	ffff0000 	.word	0xffff0000

24006854 <HAL_I2C_MemTxCpltCallback>:
24006854:	4770      	bx	lr

24006856 <HAL_I2C_MemRxCpltCallback>:
24006856:	4770      	bx	lr

24006858 <HAL_I2C_ErrorCallback>:
24006858:	4770      	bx	lr

2400685a <HAL_I2C_AbortCpltCallback>:
2400685a:	4770      	bx	lr

2400685c <I2C_TreatErrorCallback>:
2400685c:	f890 2041 	ldrb.w	r2, [r0, #65]	; 0x41
24006860:	2a60      	cmp	r2, #96	; 0x60
24006862:	f04f 0200 	mov.w	r2, #0
24006866:	b508      	push	{r3, lr}
24006868:	d108      	bne.n	2400687c <I2C_TreatErrorCallback+0x20>
2400686a:	2120      	movs	r1, #32
2400686c:	f880 2040 	strb.w	r2, [r0, #64]	; 0x40
24006870:	f880 1041 	strb.w	r1, [r0, #65]	; 0x41
24006874:	6302      	str	r2, [r0, #48]	; 0x30
24006876:	f7ff fff0 	bl	2400685a <HAL_I2C_AbortCpltCallback>
2400687a:	bd08      	pop	{r3, pc}
2400687c:	6302      	str	r2, [r0, #48]	; 0x30
2400687e:	f880 2040 	strb.w	r2, [r0, #64]	; 0x40
24006882:	f7ff ffe9 	bl	24006858 <HAL_I2C_ErrorCallback>
24006886:	e7f8      	b.n	2400687a <I2C_TreatErrorCallback+0x1e>

24006888 <I2C_ITError>:
24006888:	b570      	push	{r4, r5, r6, lr}
2400688a:	4a35      	ldr	r2, [pc, #212]	; (24006960 <I2C_ITError+0xd8>)
2400688c:	2500      	movs	r5, #0
2400688e:	f890 3041 	ldrb.w	r3, [r0, #65]	; 0x41
24006892:	4604      	mov	r4, r0
24006894:	f880 5042 	strb.w	r5, [r0, #66]	; 0x42
24006898:	3b28      	subs	r3, #40	; 0x28
2400689a:	62c2      	str	r2, [r0, #44]	; 0x2c
2400689c:	8545      	strh	r5, [r0, #42]	; 0x2a
2400689e:	6c42      	ldr	r2, [r0, #68]	; 0x44
240068a0:	2b02      	cmp	r3, #2
240068a2:	ea41 0102 	orr.w	r1, r1, r2
240068a6:	6441      	str	r1, [r0, #68]	; 0x44
240068a8:	d829      	bhi.n	240068fe <I2C_ITError+0x76>
240068aa:	2103      	movs	r1, #3
240068ac:	f7fd fec6 	bl	2400463c <I2C_Disable_IRQ>
240068b0:	2328      	movs	r3, #40	; 0x28
240068b2:	f880 3041 	strb.w	r3, [r0, #65]	; 0x41
240068b6:	4b2b      	ldr	r3, [pc, #172]	; (24006964 <I2C_ITError+0xdc>)
240068b8:	6ba0      	ldr	r0, [r4, #56]	; 0x38
240068ba:	6363      	str	r3, [r4, #52]	; 0x34
240068bc:	6b23      	ldr	r3, [r4, #48]	; 0x30
240068be:	b380      	cbz	r0, 24006922 <I2C_ITError+0x9a>
240068c0:	2b11      	cmp	r3, #17
240068c2:	d001      	beq.n	240068c8 <I2C_ITError+0x40>
240068c4:	2b21      	cmp	r3, #33	; 0x21
240068c6:	d12c      	bne.n	24006922 <I2C_ITError+0x9a>
240068c8:	6823      	ldr	r3, [r4, #0]
240068ca:	681a      	ldr	r2, [r3, #0]
240068cc:	0451      	lsls	r1, r2, #17
240068ce:	d503      	bpl.n	240068d8 <I2C_ITError+0x50>
240068d0:	681a      	ldr	r2, [r3, #0]
240068d2:	f422 4280 	bic.w	r2, r2, #16384	; 0x4000
240068d6:	601a      	str	r2, [r3, #0]
240068d8:	f7fc f851 	bl	2400297e <HAL_DMA_GetState>
240068dc:	2801      	cmp	r0, #1
240068de:	d01b      	beq.n	24006918 <I2C_ITError+0x90>
240068e0:	4b21      	ldr	r3, [pc, #132]	; (24006968 <I2C_ITError+0xe0>)
240068e2:	6ba0      	ldr	r0, [r4, #56]	; 0x38
240068e4:	6503      	str	r3, [r0, #80]	; 0x50
240068e6:	2300      	movs	r3, #0
240068e8:	f884 3040 	strb.w	r3, [r4, #64]	; 0x40
240068ec:	f7fb fa78 	bl	24001de0 <HAL_DMA_Abort_IT>
240068f0:	2800      	cmp	r0, #0
240068f2:	d034      	beq.n	2400695e <I2C_ITError+0xd6>
240068f4:	6ba0      	ldr	r0, [r4, #56]	; 0x38
240068f6:	6d03      	ldr	r3, [r0, #80]	; 0x50
240068f8:	e8bd 4070 	ldmia.w	sp!, {r4, r5, r6, lr}
240068fc:	4718      	bx	r3
240068fe:	f248 0103 	movw	r1, #32771	; 0x8003
24006902:	f7fd fe9b 	bl	2400463c <I2C_Disable_IRQ>
24006906:	f890 3041 	ldrb.w	r3, [r0, #65]	; 0x41
2400690a:	2b60      	cmp	r3, #96	; 0x60
2400690c:	d002      	beq.n	24006914 <I2C_ITError+0x8c>
2400690e:	2320      	movs	r3, #32
24006910:	f880 3041 	strb.w	r3, [r0, #65]	; 0x41
24006914:	2300      	movs	r3, #0
24006916:	e7cf      	b.n	240068b8 <I2C_ITError+0x30>
24006918:	4620      	mov	r0, r4
2400691a:	e8bd 4070 	ldmia.w	sp!, {r4, r5, r6, lr}
2400691e:	f7ff bf9d 	b.w	2400685c <I2C_TreatErrorCallback>
24006922:	6be0      	ldr	r0, [r4, #60]	; 0x3c
24006924:	2800      	cmp	r0, #0
24006926:	d0f7      	beq.n	24006918 <I2C_ITError+0x90>
24006928:	2b12      	cmp	r3, #18
2400692a:	d001      	beq.n	24006930 <I2C_ITError+0xa8>
2400692c:	2b22      	cmp	r3, #34	; 0x22
2400692e:	d1f3      	bne.n	24006918 <I2C_ITError+0x90>
24006930:	6823      	ldr	r3, [r4, #0]
24006932:	681a      	ldr	r2, [r3, #0]
24006934:	0412      	lsls	r2, r2, #16
24006936:	d503      	bpl.n	24006940 <I2C_ITError+0xb8>
24006938:	681a      	ldr	r2, [r3, #0]
2400693a:	f422 4200 	bic.w	r2, r2, #32768	; 0x8000
2400693e:	601a      	str	r2, [r3, #0]
24006940:	f7fc f81d 	bl	2400297e <HAL_DMA_GetState>
24006944:	2801      	cmp	r0, #1
24006946:	d0e7      	beq.n	24006918 <I2C_ITError+0x90>
24006948:	4b07      	ldr	r3, [pc, #28]	; (24006968 <I2C_ITError+0xe0>)
2400694a:	6be0      	ldr	r0, [r4, #60]	; 0x3c
2400694c:	6503      	str	r3, [r0, #80]	; 0x50
2400694e:	2300      	movs	r3, #0
24006950:	f884 3040 	strb.w	r3, [r4, #64]	; 0x40
24006954:	f7fb fa44 	bl	24001de0 <HAL_DMA_Abort_IT>
24006958:	b108      	cbz	r0, 2400695e <I2C_ITError+0xd6>
2400695a:	6be0      	ldr	r0, [r4, #60]	; 0x3c
2400695c:	e7cb      	b.n	240068f6 <I2C_ITError+0x6e>
2400695e:	bd70      	pop	{r4, r5, r6, pc}
24006960:	ffff0000 	.word	0xffff0000
24006964:	24006add 	.word	0x24006add
24006968:	24007269 	.word	0x24007269

2400696c <I2C_ITSlaveCplt>:
2400696c:	b5f8      	push	{r3, r4, r5, r6, r7, lr}
2400696e:	6803      	ldr	r3, [r0, #0]
24006970:	2220      	movs	r2, #32
24006972:	4604      	mov	r4, r0
24006974:	460e      	mov	r6, r1
24006976:	681f      	ldr	r7, [r3, #0]
24006978:	f890 5041 	ldrb.w	r5, [r0, #65]	; 0x41
2400697c:	61da      	str	r2, [r3, #28]
2400697e:	f005 05f7 	and.w	r5, r5, #247	; 0xf7
24006982:	2d21      	cmp	r5, #33	; 0x21
24006984:	d173      	bne.n	24006a6e <I2C_ITSlaveCplt+0x102>
24006986:	f248 0101 	movw	r1, #32769	; 0x8001
2400698a:	f7fd fe57 	bl	2400463c <I2C_Disable_IRQ>
2400698e:	6325      	str	r5, [r4, #48]	; 0x30
24006990:	6823      	ldr	r3, [r4, #0]
24006992:	4620      	mov	r0, r4
24006994:	685a      	ldr	r2, [r3, #4]
24006996:	f442 4200 	orr.w	r2, r2, #32768	; 0x8000
2400699a:	605a      	str	r2, [r3, #4]
2400699c:	685a      	ldr	r2, [r3, #4]
2400699e:	f022 72ff 	bic.w	r2, r2, #33423360	; 0x1fe0000
240069a2:	f422 328b 	bic.w	r2, r2, #71168	; 0x11600
240069a6:	f422 72ff 	bic.w	r2, r2, #510	; 0x1fe
240069aa:	f022 0201 	bic.w	r2, r2, #1
240069ae:	605a      	str	r2, [r3, #4]
240069b0:	f7fd fdee 	bl	24004590 <I2C_Flush_TXDR>
240069b4:	0479      	lsls	r1, r7, #17
240069b6:	d55f      	bpl.n	24006a78 <I2C_ITSlaveCplt+0x10c>
240069b8:	6822      	ldr	r2, [r4, #0]
240069ba:	6813      	ldr	r3, [r2, #0]
240069bc:	f423 4380 	bic.w	r3, r3, #16384	; 0x4000
240069c0:	6013      	str	r3, [r2, #0]
240069c2:	6ba3      	ldr	r3, [r4, #56]	; 0x38
240069c4:	b32b      	cbz	r3, 24006a12 <I2C_ITSlaveCplt+0xa6>
240069c6:	681b      	ldr	r3, [r3, #0]
240069c8:	4a42      	ldr	r2, [pc, #264]	; (24006ad4 <I2C_ITSlaveCplt+0x168>)
240069ca:	4293      	cmp	r3, r2
240069cc:	d01e      	beq.n	24006a0c <I2C_ITSlaveCplt+0xa0>
240069ce:	3218      	adds	r2, #24
240069d0:	4293      	cmp	r3, r2
240069d2:	d01b      	beq.n	24006a0c <I2C_ITSlaveCplt+0xa0>
240069d4:	3218      	adds	r2, #24
240069d6:	4293      	cmp	r3, r2
240069d8:	d018      	beq.n	24006a0c <I2C_ITSlaveCplt+0xa0>
240069da:	3218      	adds	r2, #24
240069dc:	4293      	cmp	r3, r2
240069de:	d015      	beq.n	24006a0c <I2C_ITSlaveCplt+0xa0>
240069e0:	3218      	adds	r2, #24
240069e2:	4293      	cmp	r3, r2
240069e4:	d012      	beq.n	24006a0c <I2C_ITSlaveCplt+0xa0>
240069e6:	3218      	adds	r2, #24
240069e8:	4293      	cmp	r3, r2
240069ea:	d00f      	beq.n	24006a0c <I2C_ITSlaveCplt+0xa0>
240069ec:	3218      	adds	r2, #24
240069ee:	4293      	cmp	r3, r2
240069f0:	d00c      	beq.n	24006a0c <I2C_ITSlaveCplt+0xa0>
240069f2:	3218      	adds	r2, #24
240069f4:	4293      	cmp	r3, r2
240069f6:	d009      	beq.n	24006a0c <I2C_ITSlaveCplt+0xa0>
240069f8:	f502 7256 	add.w	r2, r2, #856	; 0x358
240069fc:	4293      	cmp	r3, r2
240069fe:	d005      	beq.n	24006a0c <I2C_ITSlaveCplt+0xa0>
24006a00:	3218      	adds	r2, #24
24006a02:	4293      	cmp	r3, r2
24006a04:	d002      	beq.n	24006a0c <I2C_ITSlaveCplt+0xa0>
24006a06:	3218      	adds	r2, #24
24006a08:	4293      	cmp	r3, r2
24006a0a:	d0ff      	beq.n	24006a0c <I2C_ITSlaveCplt+0xa0>
24006a0c:	685b      	ldr	r3, [r3, #4]
24006a0e:	b29b      	uxth	r3, r3
24006a10:	8563      	strh	r3, [r4, #42]	; 0x2a
24006a12:	0773      	lsls	r3, r6, #29
24006a14:	d510      	bpl.n	24006a38 <I2C_ITSlaveCplt+0xcc>
24006a16:	6823      	ldr	r3, [r4, #0]
24006a18:	f026 0604 	bic.w	r6, r6, #4
24006a1c:	6a5a      	ldr	r2, [r3, #36]	; 0x24
24006a1e:	6a63      	ldr	r3, [r4, #36]	; 0x24
24006a20:	701a      	strb	r2, [r3, #0]
24006a22:	6a63      	ldr	r3, [r4, #36]	; 0x24
24006a24:	3301      	adds	r3, #1
24006a26:	6263      	str	r3, [r4, #36]	; 0x24
24006a28:	8d23      	ldrh	r3, [r4, #40]	; 0x28
24006a2a:	b12b      	cbz	r3, 24006a38 <I2C_ITSlaveCplt+0xcc>
24006a2c:	3b01      	subs	r3, #1
24006a2e:	8523      	strh	r3, [r4, #40]	; 0x28
24006a30:	8d63      	ldrh	r3, [r4, #42]	; 0x2a
24006a32:	3b01      	subs	r3, #1
24006a34:	b29b      	uxth	r3, r3
24006a36:	8563      	strh	r3, [r4, #42]	; 0x2a
24006a38:	8d63      	ldrh	r3, [r4, #42]	; 0x2a
24006a3a:	b29b      	uxth	r3, r3
24006a3c:	b11b      	cbz	r3, 24006a46 <I2C_ITSlaveCplt+0xda>
24006a3e:	6c63      	ldr	r3, [r4, #68]	; 0x44
24006a40:	f043 0304 	orr.w	r3, r3, #4
24006a44:	6463      	str	r3, [r4, #68]	; 0x44
24006a46:	2300      	movs	r3, #0
24006a48:	f884 3042 	strb.w	r3, [r4, #66]	; 0x42
24006a4c:	6c65      	ldr	r5, [r4, #68]	; 0x44
24006a4e:	6363      	str	r3, [r4, #52]	; 0x34
24006a50:	b1dd      	cbz	r5, 24006a8a <I2C_ITSlaveCplt+0x11e>
24006a52:	6c61      	ldr	r1, [r4, #68]	; 0x44
24006a54:	4620      	mov	r0, r4
24006a56:	f7ff ff17 	bl	24006888 <I2C_ITError>
24006a5a:	f894 3041 	ldrb.w	r3, [r4, #65]	; 0x41
24006a5e:	2b28      	cmp	r3, #40	; 0x28
24006a60:	d125      	bne.n	24006aae <I2C_ITSlaveCplt+0x142>
24006a62:	4631      	mov	r1, r6
24006a64:	4620      	mov	r0, r4
24006a66:	e8bd 40f8 	ldmia.w	sp!, {r3, r4, r5, r6, r7, lr}
24006a6a:	f7ff bec3 	b.w	240067f4 <I2C_ITListenCplt>
24006a6e:	2d22      	cmp	r5, #34	; 0x22
24006a70:	d18e      	bne.n	24006990 <I2C_ITSlaveCplt+0x24>
24006a72:	f248 0102 	movw	r1, #32770	; 0x8002
24006a76:	e788      	b.n	2400698a <I2C_ITSlaveCplt+0x1e>
24006a78:	043a      	lsls	r2, r7, #16
24006a7a:	d5ca      	bpl.n	24006a12 <I2C_ITSlaveCplt+0xa6>
24006a7c:	6822      	ldr	r2, [r4, #0]
24006a7e:	6813      	ldr	r3, [r2, #0]
24006a80:	f423 4300 	bic.w	r3, r3, #32768	; 0x8000
24006a84:	6013      	str	r3, [r2, #0]
24006a86:	6be3      	ldr	r3, [r4, #60]	; 0x3c
24006a88:	e79c      	b.n	240069c4 <I2C_ITSlaveCplt+0x58>
24006a8a:	6ae3      	ldr	r3, [r4, #44]	; 0x2c
24006a8c:	f513 3f80 	cmn.w	r3, #65536	; 0x10000
24006a90:	d00e      	beq.n	24006ab0 <I2C_ITSlaveCplt+0x144>
24006a92:	4620      	mov	r0, r4
24006a94:	f7ff fddd 	bl	24006652 <I2C_ITSlaveSeqCplt>
24006a98:	4b0f      	ldr	r3, [pc, #60]	; (24006ad8 <I2C_ITSlaveCplt+0x16c>)
24006a9a:	4620      	mov	r0, r4
24006a9c:	f884 5040 	strb.w	r5, [r4, #64]	; 0x40
24006aa0:	62e3      	str	r3, [r4, #44]	; 0x2c
24006aa2:	2320      	movs	r3, #32
24006aa4:	f884 3041 	strb.w	r3, [r4, #65]	; 0x41
24006aa8:	6325      	str	r5, [r4, #48]	; 0x30
24006aaa:	f7ff fea2 	bl	240067f2 <HAL_I2C_ListenCpltCallback>
24006aae:	bdf8      	pop	{r3, r4, r5, r6, r7, pc}
24006ab0:	f894 3041 	ldrb.w	r3, [r4, #65]	; 0x41
24006ab4:	4620      	mov	r0, r4
24006ab6:	f884 5040 	strb.w	r5, [r4, #64]	; 0x40
24006aba:	2b22      	cmp	r3, #34	; 0x22
24006abc:	f04f 0320 	mov.w	r3, #32
24006ac0:	f884 3041 	strb.w	r3, [r4, #65]	; 0x41
24006ac4:	6325      	str	r5, [r4, #48]	; 0x30
24006ac6:	d102      	bne.n	24006ace <I2C_ITSlaveCplt+0x162>
24006ac8:	f7ff fdc2 	bl	24006650 <HAL_I2C_SlaveRxCpltCallback>
24006acc:	e7ef      	b.n	24006aae <I2C_ITSlaveCplt+0x142>
24006ace:	f7ff fdbe 	bl	2400664e <HAL_I2C_SlaveTxCpltCallback>
24006ad2:	e7ec      	b.n	24006aae <I2C_ITSlaveCplt+0x142>
24006ad4:	40020010 	.word	0x40020010
24006ad8:	ffff0000 	.word	0xffff0000

24006adc <I2C_Slave_ISR_IT>:
24006adc:	b5f8      	push	{r3, r4, r5, r6, r7, lr}
24006ade:	f890 3040 	ldrb.w	r3, [r0, #64]	; 0x40
24006ae2:	4604      	mov	r4, r0
24006ae4:	460d      	mov	r5, r1
24006ae6:	4616      	mov	r6, r2
24006ae8:	2b01      	cmp	r3, #1
24006aea:	6ac7      	ldr	r7, [r0, #44]	; 0x2c
24006aec:	d07d      	beq.n	24006bea <I2C_Slave_ISR_IT+0x10e>
24006aee:	2301      	movs	r3, #1
24006af0:	068a      	lsls	r2, r1, #26
24006af2:	f880 3040 	strb.w	r3, [r0, #64]	; 0x40
24006af6:	d503      	bpl.n	24006b00 <I2C_Slave_ISR_IT+0x24>
24006af8:	06b3      	lsls	r3, r6, #26
24006afa:	d501      	bpl.n	24006b00 <I2C_Slave_ISR_IT+0x24>
24006afc:	f7ff ff36 	bl	2400696c <I2C_ITSlaveCplt>
24006b00:	06e8      	lsls	r0, r5, #27
24006b02:	d533      	bpl.n	24006b6c <I2C_Slave_ISR_IT+0x90>
24006b04:	06f1      	lsls	r1, r6, #27
24006b06:	d531      	bpl.n	24006b6c <I2C_Slave_ISR_IT+0x90>
24006b08:	8d63      	ldrh	r3, [r4, #42]	; 0x2a
24006b0a:	b29b      	uxth	r3, r3
24006b0c:	b9fb      	cbnz	r3, 24006b4e <I2C_Slave_ISR_IT+0x72>
24006b0e:	f894 3041 	ldrb.w	r3, [r4, #65]	; 0x41
24006b12:	2b28      	cmp	r3, #40	; 0x28
24006b14:	d10a      	bne.n	24006b2c <I2C_Slave_ISR_IT+0x50>
24006b16:	f1b7 7f00 	cmp.w	r7, #33554432	; 0x2000000
24006b1a:	d107      	bne.n	24006b2c <I2C_Slave_ISR_IT+0x50>
24006b1c:	4629      	mov	r1, r5
24006b1e:	4620      	mov	r0, r4
24006b20:	f7ff fe68 	bl	240067f4 <I2C_ITListenCplt>
24006b24:	2000      	movs	r0, #0
24006b26:	f884 0040 	strb.w	r0, [r4, #64]	; 0x40
24006b2a:	bdf8      	pop	{r3, r4, r5, r6, r7, pc}
24006b2c:	f894 2041 	ldrb.w	r2, [r4, #65]	; 0x41
24006b30:	6823      	ldr	r3, [r4, #0]
24006b32:	2a29      	cmp	r2, #41	; 0x29
24006b34:	f04f 0210 	mov.w	r2, #16
24006b38:	61da      	str	r2, [r3, #28]
24006b3a:	d1f3      	bne.n	24006b24 <I2C_Slave_ISR_IT+0x48>
24006b3c:	f517 3f80 	cmn.w	r7, #65536	; 0x10000
24006b40:	d0f0      	beq.n	24006b24 <I2C_Slave_ISR_IT+0x48>
24006b42:	4620      	mov	r0, r4
24006b44:	f7fd fd24 	bl	24004590 <I2C_Flush_TXDR>
24006b48:	f7ff fd83 	bl	24006652 <I2C_ITSlaveSeqCplt>
24006b4c:	e7ea      	b.n	24006b24 <I2C_Slave_ISR_IT+0x48>
24006b4e:	6823      	ldr	r3, [r4, #0]
24006b50:	2210      	movs	r2, #16
24006b52:	61da      	str	r2, [r3, #28]
24006b54:	6c63      	ldr	r3, [r4, #68]	; 0x44
24006b56:	f043 0304 	orr.w	r3, r3, #4
24006b5a:	6463      	str	r3, [r4, #68]	; 0x44
24006b5c:	f037 7380 	bics.w	r3, r7, #16777216	; 0x1000000
24006b60:	d1e0      	bne.n	24006b24 <I2C_Slave_ISR_IT+0x48>
24006b62:	6c61      	ldr	r1, [r4, #68]	; 0x44
24006b64:	4620      	mov	r0, r4
24006b66:	f7ff fe8f 	bl	24006888 <I2C_ITError>
24006b6a:	e7db      	b.n	24006b24 <I2C_Slave_ISR_IT+0x48>
24006b6c:	076a      	lsls	r2, r5, #29
24006b6e:	d51b      	bpl.n	24006ba8 <I2C_Slave_ISR_IT+0xcc>
24006b70:	0773      	lsls	r3, r6, #29
24006b72:	d519      	bpl.n	24006ba8 <I2C_Slave_ISR_IT+0xcc>
24006b74:	8d63      	ldrh	r3, [r4, #42]	; 0x2a
24006b76:	b29b      	uxth	r3, r3
24006b78:	b16b      	cbz	r3, 24006b96 <I2C_Slave_ISR_IT+0xba>
24006b7a:	6823      	ldr	r3, [r4, #0]
24006b7c:	6a5a      	ldr	r2, [r3, #36]	; 0x24
24006b7e:	6a63      	ldr	r3, [r4, #36]	; 0x24
24006b80:	701a      	strb	r2, [r3, #0]
24006b82:	6a63      	ldr	r3, [r4, #36]	; 0x24
24006b84:	3301      	adds	r3, #1
24006b86:	6263      	str	r3, [r4, #36]	; 0x24
24006b88:	8d23      	ldrh	r3, [r4, #40]	; 0x28
24006b8a:	3b01      	subs	r3, #1
24006b8c:	8523      	strh	r3, [r4, #40]	; 0x28
24006b8e:	8d63      	ldrh	r3, [r4, #42]	; 0x2a
24006b90:	3b01      	subs	r3, #1
24006b92:	b29b      	uxth	r3, r3
24006b94:	8563      	strh	r3, [r4, #42]	; 0x2a
24006b96:	8d63      	ldrh	r3, [r4, #42]	; 0x2a
24006b98:	b29b      	uxth	r3, r3
24006b9a:	2b00      	cmp	r3, #0
24006b9c:	d1c2      	bne.n	24006b24 <I2C_Slave_ISR_IT+0x48>
24006b9e:	f517 3f80 	cmn.w	r7, #65536	; 0x10000
24006ba2:	d0bf      	beq.n	24006b24 <I2C_Slave_ISR_IT+0x48>
24006ba4:	4620      	mov	r0, r4
24006ba6:	e7cf      	b.n	24006b48 <I2C_Slave_ISR_IT+0x6c>
24006ba8:	0728      	lsls	r0, r5, #28
24006baa:	d505      	bpl.n	24006bb8 <I2C_Slave_ISR_IT+0xdc>
24006bac:	0731      	lsls	r1, r6, #28
24006bae:	d503      	bpl.n	24006bb8 <I2C_Slave_ISR_IT+0xdc>
24006bb0:	4620      	mov	r0, r4
24006bb2:	f7ff fdda 	bl	2400676a <I2C_ITAddrCplt.constprop.0>
24006bb6:	e7b5      	b.n	24006b24 <I2C_Slave_ISR_IT+0x48>
24006bb8:	07aa      	lsls	r2, r5, #30
24006bba:	d5b3      	bpl.n	24006b24 <I2C_Slave_ISR_IT+0x48>
24006bbc:	07b3      	lsls	r3, r6, #30
24006bbe:	d5b1      	bpl.n	24006b24 <I2C_Slave_ISR_IT+0x48>
24006bc0:	8d63      	ldrh	r3, [r4, #42]	; 0x2a
24006bc2:	b29b      	uxth	r3, r3
24006bc4:	b16b      	cbz	r3, 24006be2 <I2C_Slave_ISR_IT+0x106>
24006bc6:	6a63      	ldr	r3, [r4, #36]	; 0x24
24006bc8:	6822      	ldr	r2, [r4, #0]
24006bca:	f813 1b01 	ldrb.w	r1, [r3], #1
24006bce:	6291      	str	r1, [r2, #40]	; 0x28
24006bd0:	6263      	str	r3, [r4, #36]	; 0x24
24006bd2:	8d63      	ldrh	r3, [r4, #42]	; 0x2a
24006bd4:	3b01      	subs	r3, #1
24006bd6:	b29b      	uxth	r3, r3
24006bd8:	8563      	strh	r3, [r4, #42]	; 0x2a
24006bda:	8d23      	ldrh	r3, [r4, #40]	; 0x28
24006bdc:	3b01      	subs	r3, #1
24006bde:	8523      	strh	r3, [r4, #40]	; 0x28
24006be0:	e7a0      	b.n	24006b24 <I2C_Slave_ISR_IT+0x48>
24006be2:	f037 7380 	bics.w	r3, r7, #16777216	; 0x1000000
24006be6:	d0dd      	beq.n	24006ba4 <I2C_Slave_ISR_IT+0xc8>
24006be8:	e79c      	b.n	24006b24 <I2C_Slave_ISR_IT+0x48>
24006bea:	2002      	movs	r0, #2
24006bec:	e79d      	b.n	24006b2a <I2C_Slave_ISR_IT+0x4e>

24006bee <I2C_ITMasterCplt>:
24006bee:	b538      	push	{r3, r4, r5, lr}
24006bf0:	2220      	movs	r2, #32
24006bf2:	6803      	ldr	r3, [r0, #0]
24006bf4:	4604      	mov	r4, r0
24006bf6:	460d      	mov	r5, r1
24006bf8:	61da      	str	r2, [r3, #28]
24006bfa:	f890 3041 	ldrb.w	r3, [r0, #65]	; 0x41
24006bfe:	2b21      	cmp	r3, #33	; 0x21
24006c00:	d133      	bne.n	24006c6a <I2C_ITMasterCplt+0x7c>
24006c02:	2101      	movs	r1, #1
24006c04:	f7fd fd1a 	bl	2400463c <I2C_Disable_IRQ>
24006c08:	2311      	movs	r3, #17
24006c0a:	6323      	str	r3, [r4, #48]	; 0x30
24006c0c:	6823      	ldr	r3, [r4, #0]
24006c0e:	06e9      	lsls	r1, r5, #27
24006c10:	685a      	ldr	r2, [r3, #4]
24006c12:	f022 72ff 	bic.w	r2, r2, #33423360	; 0x1fe0000
24006c16:	f422 328b 	bic.w	r2, r2, #71168	; 0x11600
24006c1a:	f422 72ff 	bic.w	r2, r2, #510	; 0x1fe
24006c1e:	f022 0201 	bic.w	r2, r2, #1
24006c22:	605a      	str	r2, [r3, #4]
24006c24:	f04f 0200 	mov.w	r2, #0
24006c28:	6362      	str	r2, [r4, #52]	; 0x34
24006c2a:	f5a2 3280 	sub.w	r2, r2, #65536	; 0x10000
24006c2e:	62e2      	str	r2, [r4, #44]	; 0x2c
24006c30:	d505      	bpl.n	24006c3e <I2C_ITMasterCplt+0x50>
24006c32:	2210      	movs	r2, #16
24006c34:	61da      	str	r2, [r3, #28]
24006c36:	6c62      	ldr	r2, [r4, #68]	; 0x44
24006c38:	f042 0204 	orr.w	r2, r2, #4
24006c3c:	6462      	str	r2, [r4, #68]	; 0x44
24006c3e:	f894 2041 	ldrb.w	r2, [r4, #65]	; 0x41
24006c42:	2a60      	cmp	r2, #96	; 0x60
24006c44:	d102      	bne.n	24006c4c <I2C_ITMasterCplt+0x5e>
24006c46:	076a      	lsls	r2, r5, #29
24006c48:	d500      	bpl.n	24006c4c <I2C_ITMasterCplt+0x5e>
24006c4a:	6a5b      	ldr	r3, [r3, #36]	; 0x24
24006c4c:	4620      	mov	r0, r4
24006c4e:	f7fd fc9f 	bl	24004590 <I2C_Flush_TXDR>
24006c52:	6c63      	ldr	r3, [r4, #68]	; 0x44
24006c54:	f894 2041 	ldrb.w	r2, [r4, #65]	; 0x41
24006c58:	2a60      	cmp	r2, #96	; 0x60
24006c5a:	d000      	beq.n	24006c5e <I2C_ITMasterCplt+0x70>
24006c5c:	b173      	cbz	r3, 24006c7c <I2C_ITMasterCplt+0x8e>
24006c5e:	6c61      	ldr	r1, [r4, #68]	; 0x44
24006c60:	4620      	mov	r0, r4
24006c62:	e8bd 4038 	ldmia.w	sp!, {r3, r4, r5, lr}
24006c66:	f7ff be0f 	b.w	24006888 <I2C_ITError>
24006c6a:	f890 3041 	ldrb.w	r3, [r0, #65]	; 0x41
24006c6e:	2b22      	cmp	r3, #34	; 0x22
24006c70:	d1cc      	bne.n	24006c0c <I2C_ITMasterCplt+0x1e>
24006c72:	2102      	movs	r1, #2
24006c74:	f7fd fce2 	bl	2400463c <I2C_Disable_IRQ>
24006c78:	2312      	movs	r3, #18
24006c7a:	e7c6      	b.n	24006c0a <I2C_ITMasterCplt+0x1c>
24006c7c:	f894 2041 	ldrb.w	r2, [r4, #65]	; 0x41
24006c80:	2a21      	cmp	r2, #33	; 0x21
24006c82:	d111      	bne.n	24006ca8 <I2C_ITMasterCplt+0xba>
24006c84:	2220      	movs	r2, #32
24006c86:	f884 3040 	strb.w	r3, [r4, #64]	; 0x40
24006c8a:	f884 2041 	strb.w	r2, [r4, #65]	; 0x41
24006c8e:	6323      	str	r3, [r4, #48]	; 0x30
24006c90:	f894 2042 	ldrb.w	r2, [r4, #66]	; 0x42
24006c94:	f884 3042 	strb.w	r3, [r4, #66]	; 0x42
24006c98:	2a40      	cmp	r2, #64	; 0x40
24006c9a:	d102      	bne.n	24006ca2 <I2C_ITMasterCplt+0xb4>
24006c9c:	f7ff fdda 	bl	24006854 <HAL_I2C_MemTxCpltCallback>
24006ca0:	bd38      	pop	{r3, r4, r5, pc}
24006ca2:	f7ff fcb0 	bl	24006606 <HAL_I2C_MasterTxCpltCallback>
24006ca6:	e7fb      	b.n	24006ca0 <I2C_ITMasterCplt+0xb2>
24006ca8:	f894 2041 	ldrb.w	r2, [r4, #65]	; 0x41
24006cac:	2a22      	cmp	r2, #34	; 0x22
24006cae:	d1f7      	bne.n	24006ca0 <I2C_ITMasterCplt+0xb2>
24006cb0:	2220      	movs	r2, #32
24006cb2:	f884 3040 	strb.w	r3, [r4, #64]	; 0x40
24006cb6:	f884 2041 	strb.w	r2, [r4, #65]	; 0x41
24006cba:	6323      	str	r3, [r4, #48]	; 0x30
24006cbc:	f894 2042 	ldrb.w	r2, [r4, #66]	; 0x42
24006cc0:	f884 3042 	strb.w	r3, [r4, #66]	; 0x42
24006cc4:	2a40      	cmp	r2, #64	; 0x40
24006cc6:	d102      	bne.n	24006cce <I2C_ITMasterCplt+0xe0>
24006cc8:	f7ff fdc5 	bl	24006856 <HAL_I2C_MemRxCpltCallback>
24006ccc:	e7e8      	b.n	24006ca0 <I2C_ITMasterCplt+0xb2>
24006cce:	f7ff fc9b 	bl	24006608 <HAL_I2C_MasterRxCpltCallback>
24006cd2:	e7e5      	b.n	24006ca0 <I2C_ITMasterCplt+0xb2>

24006cd4 <I2C_Master_ISR_IT>:
24006cd4:	b573      	push	{r0, r1, r4, r5, r6, lr}
24006cd6:	f890 3040 	ldrb.w	r3, [r0, #64]	; 0x40
24006cda:	4604      	mov	r4, r0
24006cdc:	460d      	mov	r5, r1
24006cde:	4616      	mov	r6, r2
24006ce0:	2b01      	cmp	r3, #1
24006ce2:	f000 8086 	beq.w	24006df2 <I2C_Master_ISR_IT+0x11e>
24006ce6:	2301      	movs	r3, #1
24006ce8:	06ca      	lsls	r2, r1, #27
24006cea:	f880 3040 	strb.w	r3, [r0, #64]	; 0x40
24006cee:	d517      	bpl.n	24006d20 <I2C_Master_ISR_IT+0x4c>
24006cf0:	06f3      	lsls	r3, r6, #27
24006cf2:	d515      	bpl.n	24006d20 <I2C_Master_ISR_IT+0x4c>
24006cf4:	6803      	ldr	r3, [r0, #0]
24006cf6:	2210      	movs	r2, #16
24006cf8:	61da      	str	r2, [r3, #28]
24006cfa:	6c43      	ldr	r3, [r0, #68]	; 0x44
24006cfc:	f043 0304 	orr.w	r3, r3, #4
24006d00:	6443      	str	r3, [r0, #68]	; 0x44
24006d02:	f7fd fc45 	bl	24004590 <I2C_Flush_TXDR>
24006d06:	06aa      	lsls	r2, r5, #26
24006d08:	d505      	bpl.n	24006d16 <I2C_Master_ISR_IT+0x42>
24006d0a:	06b3      	lsls	r3, r6, #26
24006d0c:	d503      	bpl.n	24006d16 <I2C_Master_ISR_IT+0x42>
24006d0e:	4629      	mov	r1, r5
24006d10:	4620      	mov	r0, r4
24006d12:	f7ff ff6c 	bl	24006bee <I2C_ITMasterCplt>
24006d16:	2000      	movs	r0, #0
24006d18:	f884 0040 	strb.w	r0, [r4, #64]	; 0x40
24006d1c:	b002      	add	sp, #8
24006d1e:	bd70      	pop	{r4, r5, r6, pc}
24006d20:	0768      	lsls	r0, r5, #29
24006d22:	d512      	bpl.n	24006d4a <I2C_Master_ISR_IT+0x76>
24006d24:	0771      	lsls	r1, r6, #29
24006d26:	d510      	bpl.n	24006d4a <I2C_Master_ISR_IT+0x76>
24006d28:	6823      	ldr	r3, [r4, #0]
24006d2a:	f025 0504 	bic.w	r5, r5, #4
24006d2e:	6a5a      	ldr	r2, [r3, #36]	; 0x24
24006d30:	6a63      	ldr	r3, [r4, #36]	; 0x24
24006d32:	701a      	strb	r2, [r3, #0]
24006d34:	6a63      	ldr	r3, [r4, #36]	; 0x24
24006d36:	3301      	adds	r3, #1
24006d38:	6263      	str	r3, [r4, #36]	; 0x24
24006d3a:	8d23      	ldrh	r3, [r4, #40]	; 0x28
24006d3c:	3b01      	subs	r3, #1
24006d3e:	8523      	strh	r3, [r4, #40]	; 0x28
24006d40:	8d63      	ldrh	r3, [r4, #42]	; 0x2a
24006d42:	3b01      	subs	r3, #1
24006d44:	b29b      	uxth	r3, r3
24006d46:	8563      	strh	r3, [r4, #42]	; 0x2a
24006d48:	e7dd      	b.n	24006d06 <I2C_Master_ISR_IT+0x32>
24006d4a:	07aa      	lsls	r2, r5, #30
24006d4c:	d507      	bpl.n	24006d5e <I2C_Master_ISR_IT+0x8a>
24006d4e:	07b3      	lsls	r3, r6, #30
24006d50:	d505      	bpl.n	24006d5e <I2C_Master_ISR_IT+0x8a>
24006d52:	6a63      	ldr	r3, [r4, #36]	; 0x24
24006d54:	6822      	ldr	r2, [r4, #0]
24006d56:	f813 1b01 	ldrb.w	r1, [r3], #1
24006d5a:	6291      	str	r1, [r2, #40]	; 0x28
24006d5c:	e7ec      	b.n	24006d38 <I2C_Master_ISR_IT+0x64>
24006d5e:	0628      	lsls	r0, r5, #24
24006d60:	d532      	bpl.n	24006dc8 <I2C_Master_ISR_IT+0xf4>
24006d62:	0671      	lsls	r1, r6, #25
24006d64:	d530      	bpl.n	24006dc8 <I2C_Master_ISR_IT+0xf4>
24006d66:	8d63      	ldrh	r3, [r4, #42]	; 0x2a
24006d68:	6822      	ldr	r2, [r4, #0]
24006d6a:	b29b      	uxth	r3, r3
24006d6c:	b303      	cbz	r3, 24006db0 <I2C_Master_ISR_IT+0xdc>
24006d6e:	8d20      	ldrh	r0, [r4, #40]	; 0x28
24006d70:	b9f0      	cbnz	r0, 24006db0 <I2C_Master_ISR_IT+0xdc>
24006d72:	6851      	ldr	r1, [r2, #4]
24006d74:	8d63      	ldrh	r3, [r4, #42]	; 0x2a
24006d76:	f3c1 0109 	ubfx	r1, r1, #0, #10
24006d7a:	b29b      	uxth	r3, r3
24006d7c:	2bff      	cmp	r3, #255	; 0xff
24006d7e:	d908      	bls.n	24006d92 <I2C_Master_ISR_IT+0xbe>
24006d80:	22ff      	movs	r2, #255	; 0xff
24006d82:	f04f 7380 	mov.w	r3, #16777216	; 0x1000000
24006d86:	9000      	str	r0, [sp, #0]
24006d88:	8522      	strh	r2, [r4, #40]	; 0x28
24006d8a:	4620      	mov	r0, r4
24006d8c:	f7fd fc0e 	bl	240045ac <I2C_TransferConfig>
24006d90:	e7b9      	b.n	24006d06 <I2C_Master_ISR_IT+0x32>
24006d92:	8d62      	ldrh	r2, [r4, #42]	; 0x2a
24006d94:	6ae3      	ldr	r3, [r4, #44]	; 0x2c
24006d96:	b292      	uxth	r2, r2
24006d98:	f513 3f80 	cmn.w	r3, #65536	; 0x10000
24006d9c:	8522      	strh	r2, [r4, #40]	; 0x28
24006d9e:	b2d2      	uxtb	r2, r2
24006da0:	d002      	beq.n	24006da8 <I2C_Master_ISR_IT+0xd4>
24006da2:	6ae3      	ldr	r3, [r4, #44]	; 0x2c
24006da4:	9000      	str	r0, [sp, #0]
24006da6:	e7f0      	b.n	24006d8a <I2C_Master_ISR_IT+0xb6>
24006da8:	f04f 7300 	mov.w	r3, #33554432	; 0x2000000
24006dac:	9000      	str	r0, [sp, #0]
24006dae:	e7ec      	b.n	24006d8a <I2C_Master_ISR_IT+0xb6>
24006db0:	6853      	ldr	r3, [r2, #4]
24006db2:	019a      	lsls	r2, r3, #6
24006db4:	d403      	bmi.n	24006dbe <I2C_Master_ISR_IT+0xea>
24006db6:	4620      	mov	r0, r4
24006db8:	f7ff fc27 	bl	2400660a <I2C_ITMasterSeqCplt>
24006dbc:	e7a3      	b.n	24006d06 <I2C_Master_ISR_IT+0x32>
24006dbe:	2140      	movs	r1, #64	; 0x40
24006dc0:	4620      	mov	r0, r4
24006dc2:	f7ff fd61 	bl	24006888 <I2C_ITError>
24006dc6:	e79e      	b.n	24006d06 <I2C_Master_ISR_IT+0x32>
24006dc8:	066b      	lsls	r3, r5, #25
24006dca:	d59c      	bpl.n	24006d06 <I2C_Master_ISR_IT+0x32>
24006dcc:	0670      	lsls	r0, r6, #25
24006dce:	d59a      	bpl.n	24006d06 <I2C_Master_ISR_IT+0x32>
24006dd0:	8d63      	ldrh	r3, [r4, #42]	; 0x2a
24006dd2:	b29b      	uxth	r3, r3
24006dd4:	2b00      	cmp	r3, #0
24006dd6:	d1f2      	bne.n	24006dbe <I2C_Master_ISR_IT+0xea>
24006dd8:	6823      	ldr	r3, [r4, #0]
24006dda:	685a      	ldr	r2, [r3, #4]
24006ddc:	0191      	lsls	r1, r2, #6
24006dde:	d492      	bmi.n	24006d06 <I2C_Master_ISR_IT+0x32>
24006de0:	6ae2      	ldr	r2, [r4, #44]	; 0x2c
24006de2:	f512 3f80 	cmn.w	r2, #65536	; 0x10000
24006de6:	d1e6      	bne.n	24006db6 <I2C_Master_ISR_IT+0xe2>
24006de8:	685a      	ldr	r2, [r3, #4]
24006dea:	f442 4280 	orr.w	r2, r2, #16384	; 0x4000
24006dee:	605a      	str	r2, [r3, #4]
24006df0:	e789      	b.n	24006d06 <I2C_Master_ISR_IT+0x32>
24006df2:	2002      	movs	r0, #2
24006df4:	e792      	b.n	24006d1c <I2C_Master_ISR_IT+0x48>
	...

24006df8 <I2C_Slave_ISR_DMA>:
24006df8:	b5f8      	push	{r3, r4, r5, r6, r7, lr}
24006dfa:	f890 3040 	ldrb.w	r3, [r0, #64]	; 0x40
24006dfe:	4604      	mov	r4, r0
24006e00:	460e      	mov	r6, r1
24006e02:	4615      	mov	r5, r2
24006e04:	2b01      	cmp	r3, #1
24006e06:	6ac7      	ldr	r7, [r0, #44]	; 0x2c
24006e08:	f000 80b4 	beq.w	24006f74 <I2C_Slave_ISR_DMA+0x17c>
24006e0c:	2301      	movs	r3, #1
24006e0e:	068a      	lsls	r2, r1, #26
24006e10:	f880 3040 	strb.w	r3, [r0, #64]	; 0x40
24006e14:	d503      	bpl.n	24006e1e <I2C_Slave_ISR_DMA+0x26>
24006e16:	06ab      	lsls	r3, r5, #26
24006e18:	d501      	bpl.n	24006e1e <I2C_Slave_ISR_DMA+0x26>
24006e1a:	f7ff fda7 	bl	2400696c <I2C_ITSlaveCplt>
24006e1e:	06f2      	lsls	r2, r6, #27
24006e20:	f140 80a0 	bpl.w	24006f64 <I2C_Slave_ISR_DMA+0x16c>
24006e24:	06eb      	lsls	r3, r5, #27
24006e26:	f140 809d 	bpl.w	24006f64 <I2C_Slave_ISR_DMA+0x16c>
24006e2a:	0be9      	lsrs	r1, r5, #15
24006e2c:	0ba8      	lsrs	r0, r5, #14
24006e2e:	ea41 3595 	orr.w	r5, r1, r5, lsr #14
24006e32:	07ed      	lsls	r5, r5, #31
24006e34:	f140 8092 	bpl.w	24006f5c <I2C_Slave_ISR_DMA+0x164>
24006e38:	6be2      	ldr	r2, [r4, #60]	; 0x3c
24006e3a:	b352      	cbz	r2, 24006e92 <I2C_Slave_ISR_DMA+0x9a>
24006e3c:	f011 0301 	ands.w	r3, r1, #1
24006e40:	d026      	beq.n	24006e90 <I2C_Slave_ISR_DMA+0x98>
24006e42:	6813      	ldr	r3, [r2, #0]
24006e44:	4a4c      	ldr	r2, [pc, #304]	; (24006f78 <I2C_Slave_ISR_DMA+0x180>)
24006e46:	4293      	cmp	r3, r2
24006e48:	d01e      	beq.n	24006e88 <I2C_Slave_ISR_DMA+0x90>
24006e4a:	3218      	adds	r2, #24
24006e4c:	4293      	cmp	r3, r2
24006e4e:	d01b      	beq.n	24006e88 <I2C_Slave_ISR_DMA+0x90>
24006e50:	3218      	adds	r2, #24
24006e52:	4293      	cmp	r3, r2
24006e54:	d018      	beq.n	24006e88 <I2C_Slave_ISR_DMA+0x90>
24006e56:	3218      	adds	r2, #24
24006e58:	4293      	cmp	r3, r2
24006e5a:	d015      	beq.n	24006e88 <I2C_Slave_ISR_DMA+0x90>
24006e5c:	3218      	adds	r2, #24
24006e5e:	4293      	cmp	r3, r2
24006e60:	d012      	beq.n	24006e88 <I2C_Slave_ISR_DMA+0x90>
24006e62:	3218      	adds	r2, #24
24006e64:	4293      	cmp	r3, r2
24006e66:	d00f      	beq.n	24006e88 <I2C_Slave_ISR_DMA+0x90>
24006e68:	3218      	adds	r2, #24
24006e6a:	4293      	cmp	r3, r2
24006e6c:	d00c      	beq.n	24006e88 <I2C_Slave_ISR_DMA+0x90>
24006e6e:	3218      	adds	r2, #24
24006e70:	4293      	cmp	r3, r2
24006e72:	d009      	beq.n	24006e88 <I2C_Slave_ISR_DMA+0x90>
24006e74:	f502 7256 	add.w	r2, r2, #856	; 0x358
24006e78:	4293      	cmp	r3, r2
24006e7a:	d005      	beq.n	24006e88 <I2C_Slave_ISR_DMA+0x90>
24006e7c:	3218      	adds	r2, #24
24006e7e:	4293      	cmp	r3, r2
24006e80:	d002      	beq.n	24006e88 <I2C_Slave_ISR_DMA+0x90>
24006e82:	3218      	adds	r2, #24
24006e84:	4293      	cmp	r3, r2
24006e86:	d0ff      	beq.n	24006e88 <I2C_Slave_ISR_DMA+0x90>
24006e88:	685b      	ldr	r3, [r3, #4]
24006e8a:	fab3 f383 	clz	r3, r3
24006e8e:	095b      	lsrs	r3, r3, #5
24006e90:	461a      	mov	r2, r3
24006e92:	6ba3      	ldr	r3, [r4, #56]	; 0x38
24006e94:	b333      	cbz	r3, 24006ee4 <I2C_Slave_ISR_DMA+0xec>
24006e96:	07c1      	lsls	r1, r0, #31
24006e98:	d524      	bpl.n	24006ee4 <I2C_Slave_ISR_DMA+0xec>
24006e9a:	681b      	ldr	r3, [r3, #0]
24006e9c:	4936      	ldr	r1, [pc, #216]	; (24006f78 <I2C_Slave_ISR_DMA+0x180>)
24006e9e:	428b      	cmp	r3, r1
24006ea0:	d01e      	beq.n	24006ee0 <I2C_Slave_ISR_DMA+0xe8>
24006ea2:	3118      	adds	r1, #24
24006ea4:	428b      	cmp	r3, r1
24006ea6:	d01b      	beq.n	24006ee0 <I2C_Slave_ISR_DMA+0xe8>
24006ea8:	3118      	adds	r1, #24
24006eaa:	428b      	cmp	r3, r1
24006eac:	d018      	beq.n	24006ee0 <I2C_Slave_ISR_DMA+0xe8>
24006eae:	3118      	adds	r1, #24
24006eb0:	428b      	cmp	r3, r1
24006eb2:	d015      	beq.n	24006ee0 <I2C_Slave_ISR_DMA+0xe8>
24006eb4:	3118      	adds	r1, #24
24006eb6:	428b      	cmp	r3, r1
24006eb8:	d012      	beq.n	24006ee0 <I2C_Slave_ISR_DMA+0xe8>
24006eba:	3118      	adds	r1, #24
24006ebc:	428b      	cmp	r3, r1
24006ebe:	d00f      	beq.n	24006ee0 <I2C_Slave_ISR_DMA+0xe8>
24006ec0:	3118      	adds	r1, #24
24006ec2:	428b      	cmp	r3, r1
24006ec4:	d00c      	beq.n	24006ee0 <I2C_Slave_ISR_DMA+0xe8>
24006ec6:	3118      	adds	r1, #24
24006ec8:	428b      	cmp	r3, r1
24006eca:	d009      	beq.n	24006ee0 <I2C_Slave_ISR_DMA+0xe8>
24006ecc:	f501 7156 	add.w	r1, r1, #856	; 0x358
24006ed0:	428b      	cmp	r3, r1
24006ed2:	d005      	beq.n	24006ee0 <I2C_Slave_ISR_DMA+0xe8>
24006ed4:	3118      	adds	r1, #24
24006ed6:	428b      	cmp	r3, r1
24006ed8:	d002      	beq.n	24006ee0 <I2C_Slave_ISR_DMA+0xe8>
24006eda:	3118      	adds	r1, #24
24006edc:	428b      	cmp	r3, r1
24006ede:	d0ff      	beq.n	24006ee0 <I2C_Slave_ISR_DMA+0xe8>
24006ee0:	685b      	ldr	r3, [r3, #4]
24006ee2:	b10b      	cbz	r3, 24006ee8 <I2C_Slave_ISR_DMA+0xf0>
24006ee4:	2a01      	cmp	r2, #1
24006ee6:	d11f      	bne.n	24006f28 <I2C_Slave_ISR_DMA+0x130>
24006ee8:	f894 3041 	ldrb.w	r3, [r4, #65]	; 0x41
24006eec:	2b28      	cmp	r3, #40	; 0x28
24006eee:	d10a      	bne.n	24006f06 <I2C_Slave_ISR_DMA+0x10e>
24006ef0:	f1b7 7f00 	cmp.w	r7, #33554432	; 0x2000000
24006ef4:	d107      	bne.n	24006f06 <I2C_Slave_ISR_DMA+0x10e>
24006ef6:	4631      	mov	r1, r6
24006ef8:	4620      	mov	r0, r4
24006efa:	f7ff fc7b 	bl	240067f4 <I2C_ITListenCplt>
24006efe:	2000      	movs	r0, #0
24006f00:	f884 0040 	strb.w	r0, [r4, #64]	; 0x40
24006f04:	bdf8      	pop	{r3, r4, r5, r6, r7, pc}
24006f06:	f894 2041 	ldrb.w	r2, [r4, #65]	; 0x41
24006f0a:	6823      	ldr	r3, [r4, #0]
24006f0c:	2a29      	cmp	r2, #41	; 0x29
24006f0e:	f04f 0210 	mov.w	r2, #16
24006f12:	61da      	str	r2, [r3, #28]
24006f14:	d1f3      	bne.n	24006efe <I2C_Slave_ISR_DMA+0x106>
24006f16:	f517 3f80 	cmn.w	r7, #65536	; 0x10000
24006f1a:	d0f0      	beq.n	24006efe <I2C_Slave_ISR_DMA+0x106>
24006f1c:	4620      	mov	r0, r4
24006f1e:	f7fd fb37 	bl	24004590 <I2C_Flush_TXDR>
24006f22:	f7ff fb96 	bl	24006652 <I2C_ITSlaveSeqCplt>
24006f26:	e7ea      	b.n	24006efe <I2C_Slave_ISR_DMA+0x106>
24006f28:	6823      	ldr	r3, [r4, #0]
24006f2a:	2210      	movs	r2, #16
24006f2c:	61da      	str	r2, [r3, #28]
24006f2e:	f037 7280 	bics.w	r2, r7, #16777216	; 0x1000000
24006f32:	6c63      	ldr	r3, [r4, #68]	; 0x44
24006f34:	f043 0304 	orr.w	r3, r3, #4
24006f38:	6463      	str	r3, [r4, #68]	; 0x44
24006f3a:	f894 3041 	ldrb.w	r3, [r4, #65]	; 0x41
24006f3e:	b2db      	uxtb	r3, r3
24006f40:	d1dd      	bne.n	24006efe <I2C_Slave_ISR_DMA+0x106>
24006f42:	f003 03f7 	and.w	r3, r3, #247	; 0xf7
24006f46:	2b21      	cmp	r3, #33	; 0x21
24006f48:	d101      	bne.n	24006f4e <I2C_Slave_ISR_DMA+0x156>
24006f4a:	6323      	str	r3, [r4, #48]	; 0x30
24006f4c:	e001      	b.n	24006f52 <I2C_Slave_ISR_DMA+0x15a>
24006f4e:	2b22      	cmp	r3, #34	; 0x22
24006f50:	d0fb      	beq.n	24006f4a <I2C_Slave_ISR_DMA+0x152>
24006f52:	6c61      	ldr	r1, [r4, #68]	; 0x44
24006f54:	4620      	mov	r0, r4
24006f56:	f7ff fc97 	bl	24006888 <I2C_ITError>
24006f5a:	e7d0      	b.n	24006efe <I2C_Slave_ISR_DMA+0x106>
24006f5c:	6823      	ldr	r3, [r4, #0]
24006f5e:	2210      	movs	r2, #16
24006f60:	61da      	str	r2, [r3, #28]
24006f62:	e7cc      	b.n	24006efe <I2C_Slave_ISR_DMA+0x106>
24006f64:	0732      	lsls	r2, r6, #28
24006f66:	d5ca      	bpl.n	24006efe <I2C_Slave_ISR_DMA+0x106>
24006f68:	072b      	lsls	r3, r5, #28
24006f6a:	d5c8      	bpl.n	24006efe <I2C_Slave_ISR_DMA+0x106>
24006f6c:	4620      	mov	r0, r4
24006f6e:	f7ff fbfc 	bl	2400676a <I2C_ITAddrCplt.constprop.0>
24006f72:	e7c4      	b.n	24006efe <I2C_Slave_ISR_DMA+0x106>
24006f74:	2002      	movs	r0, #2
24006f76:	e7c5      	b.n	24006f04 <I2C_Slave_ISR_DMA+0x10c>
24006f78:	40020010 	.word	0x40020010

24006f7c <I2C_Master_ISR_DMA>:
24006f7c:	b513      	push	{r0, r1, r4, lr}
24006f7e:	f890 3040 	ldrb.w	r3, [r0, #64]	; 0x40
24006f82:	4604      	mov	r4, r0
24006f84:	2b01      	cmp	r3, #1
24006f86:	d07a      	beq.n	2400707e <I2C_Master_ISR_DMA+0x102>
24006f88:	2301      	movs	r3, #1
24006f8a:	f880 3040 	strb.w	r3, [r0, #64]	; 0x40
24006f8e:	06cb      	lsls	r3, r1, #27
24006f90:	d512      	bpl.n	24006fb8 <I2C_Master_ISR_DMA+0x3c>
24006f92:	06d3      	lsls	r3, r2, #27
24006f94:	d510      	bpl.n	24006fb8 <I2C_Master_ISR_DMA+0x3c>
24006f96:	6803      	ldr	r3, [r0, #0]
24006f98:	2210      	movs	r2, #16
24006f9a:	2120      	movs	r1, #32
24006f9c:	61da      	str	r2, [r3, #28]
24006f9e:	6c43      	ldr	r3, [r0, #68]	; 0x44
24006fa0:	f043 0304 	orr.w	r3, r3, #4
24006fa4:	6443      	str	r3, [r0, #68]	; 0x44
24006fa6:	f7fd fb15 	bl	240045d4 <I2C_Enable_IRQ>
24006faa:	f7fd faf1 	bl	24004590 <I2C_Flush_TXDR>
24006fae:	2000      	movs	r0, #0
24006fb0:	f884 0040 	strb.w	r0, [r4, #64]	; 0x40
24006fb4:	b002      	add	sp, #8
24006fb6:	bd10      	pop	{r4, pc}
24006fb8:	060b      	lsls	r3, r1, #24
24006fba:	d543      	bpl.n	24007044 <I2C_Master_ISR_DMA+0xc8>
24006fbc:	0650      	lsls	r0, r2, #25
24006fbe:	d541      	bpl.n	24007044 <I2C_Master_ISR_DMA+0xc8>
24006fc0:	6823      	ldr	r3, [r4, #0]
24006fc2:	681a      	ldr	r2, [r3, #0]
24006fc4:	f022 0240 	bic.w	r2, r2, #64	; 0x40
24006fc8:	601a      	str	r2, [r3, #0]
24006fca:	8d62      	ldrh	r2, [r4, #42]	; 0x2a
24006fcc:	b292      	uxth	r2, r2
24006fce:	b36a      	cbz	r2, 2400702c <I2C_Master_ISR_DMA+0xb0>
24006fd0:	6859      	ldr	r1, [r3, #4]
24006fd2:	8d63      	ldrh	r3, [r4, #42]	; 0x2a
24006fd4:	f3c1 0109 	ubfx	r1, r1, #0, #10
24006fd8:	b29b      	uxth	r3, r3
24006fda:	2bff      	cmp	r3, #255	; 0xff
24006fdc:	d91b      	bls.n	24007016 <I2C_Master_ISR_DMA+0x9a>
24006fde:	23ff      	movs	r3, #255	; 0xff
24006fe0:	8523      	strh	r3, [r4, #40]	; 0x28
24006fe2:	f04f 7380 	mov.w	r3, #16777216	; 0x1000000
24006fe6:	2200      	movs	r2, #0
24006fe8:	4620      	mov	r0, r4
24006fea:	9200      	str	r2, [sp, #0]
24006fec:	f894 2028 	ldrb.w	r2, [r4, #40]	; 0x28
24006ff0:	f7fd fadc 	bl	240045ac <I2C_TransferConfig>
24006ff4:	8d63      	ldrh	r3, [r4, #42]	; 0x2a
24006ff6:	8d22      	ldrh	r2, [r4, #40]	; 0x28
24006ff8:	1a9b      	subs	r3, r3, r2
24006ffa:	b29b      	uxth	r3, r3
24006ffc:	8563      	strh	r3, [r4, #42]	; 0x2a
24006ffe:	f894 3041 	ldrb.w	r3, [r4, #65]	; 0x41
24007002:	2b22      	cmp	r3, #34	; 0x22
24007004:	6823      	ldr	r3, [r4, #0]
24007006:	681a      	ldr	r2, [r3, #0]
24007008:	bf0c      	ite	eq
2400700a:	f442 4200 	orreq.w	r2, r2, #32768	; 0x8000
2400700e:	f442 4280 	orrne.w	r2, r2, #16384	; 0x4000
24007012:	601a      	str	r2, [r3, #0]
24007014:	e7cb      	b.n	24006fae <I2C_Master_ISR_DMA+0x32>
24007016:	8d63      	ldrh	r3, [r4, #42]	; 0x2a
24007018:	8523      	strh	r3, [r4, #40]	; 0x28
2400701a:	6ae3      	ldr	r3, [r4, #44]	; 0x2c
2400701c:	f513 3f80 	cmn.w	r3, #65536	; 0x10000
24007020:	d001      	beq.n	24007026 <I2C_Master_ISR_DMA+0xaa>
24007022:	6ae3      	ldr	r3, [r4, #44]	; 0x2c
24007024:	e7df      	b.n	24006fe6 <I2C_Master_ISR_DMA+0x6a>
24007026:	f04f 7300 	mov.w	r3, #33554432	; 0x2000000
2400702a:	e7dc      	b.n	24006fe6 <I2C_Master_ISR_DMA+0x6a>
2400702c:	685b      	ldr	r3, [r3, #4]
2400702e:	019a      	lsls	r2, r3, #6
24007030:	d403      	bmi.n	2400703a <I2C_Master_ISR_DMA+0xbe>
24007032:	4620      	mov	r0, r4
24007034:	f7ff fae9 	bl	2400660a <I2C_ITMasterSeqCplt>
24007038:	e7b9      	b.n	24006fae <I2C_Master_ISR_DMA+0x32>
2400703a:	2140      	movs	r1, #64	; 0x40
2400703c:	4620      	mov	r0, r4
2400703e:	f7ff fc23 	bl	24006888 <I2C_ITError>
24007042:	e7b4      	b.n	24006fae <I2C_Master_ISR_DMA+0x32>
24007044:	064b      	lsls	r3, r1, #25
24007046:	d512      	bpl.n	2400706e <I2C_Master_ISR_DMA+0xf2>
24007048:	0650      	lsls	r0, r2, #25
2400704a:	d510      	bpl.n	2400706e <I2C_Master_ISR_DMA+0xf2>
2400704c:	8d63      	ldrh	r3, [r4, #42]	; 0x2a
2400704e:	b29b      	uxth	r3, r3
24007050:	2b00      	cmp	r3, #0
24007052:	d1f2      	bne.n	2400703a <I2C_Master_ISR_DMA+0xbe>
24007054:	6823      	ldr	r3, [r4, #0]
24007056:	685a      	ldr	r2, [r3, #4]
24007058:	0192      	lsls	r2, r2, #6
2400705a:	d4a8      	bmi.n	24006fae <I2C_Master_ISR_DMA+0x32>
2400705c:	6ae2      	ldr	r2, [r4, #44]	; 0x2c
2400705e:	f512 3f80 	cmn.w	r2, #65536	; 0x10000
24007062:	d1e6      	bne.n	24007032 <I2C_Master_ISR_DMA+0xb6>
24007064:	685a      	ldr	r2, [r3, #4]
24007066:	f442 4280 	orr.w	r2, r2, #16384	; 0x4000
2400706a:	605a      	str	r2, [r3, #4]
2400706c:	e79f      	b.n	24006fae <I2C_Master_ISR_DMA+0x32>
2400706e:	0688      	lsls	r0, r1, #26
24007070:	d59d      	bpl.n	24006fae <I2C_Master_ISR_DMA+0x32>
24007072:	0693      	lsls	r3, r2, #26
24007074:	d59b      	bpl.n	24006fae <I2C_Master_ISR_DMA+0x32>
24007076:	4620      	mov	r0, r4
24007078:	f7ff fdb9 	bl	24006bee <I2C_ITMasterCplt>
2400707c:	e797      	b.n	24006fae <I2C_Master_ISR_DMA+0x32>
2400707e:	2002      	movs	r0, #2
24007080:	e798      	b.n	24006fb4 <I2C_Master_ISR_DMA+0x38>
	...

24007084 <I2C_DMAError>:
24007084:	b538      	push	{r3, r4, r5, lr}
24007086:	6b85      	ldr	r5, [r0, #56]	; 0x38
24007088:	6bac      	ldr	r4, [r5, #56]	; 0x38
2400708a:	b34c      	cbz	r4, 240070e0 <I2C_DMAError+0x5c>
2400708c:	6823      	ldr	r3, [r4, #0]
2400708e:	4a33      	ldr	r2, [pc, #204]	; (2400715c <I2C_DMAError+0xd8>)
24007090:	4293      	cmp	r3, r2
24007092:	d021      	beq.n	240070d8 <I2C_DMAError+0x54>
24007094:	3218      	adds	r2, #24
24007096:	4293      	cmp	r3, r2
24007098:	d01e      	beq.n	240070d8 <I2C_DMAError+0x54>
2400709a:	3218      	adds	r2, #24
2400709c:	4293      	cmp	r3, r2
2400709e:	d01b      	beq.n	240070d8 <I2C_DMAError+0x54>
240070a0:	3218      	adds	r2, #24
240070a2:	4293      	cmp	r3, r2
240070a4:	d018      	beq.n	240070d8 <I2C_DMAError+0x54>
240070a6:	3218      	adds	r2, #24
240070a8:	4293      	cmp	r3, r2
240070aa:	d015      	beq.n	240070d8 <I2C_DMAError+0x54>
240070ac:	3218      	adds	r2, #24
240070ae:	4293      	cmp	r3, r2
240070b0:	d012      	beq.n	240070d8 <I2C_DMAError+0x54>
240070b2:	3218      	adds	r2, #24
240070b4:	4293      	cmp	r3, r2
240070b6:	d00f      	beq.n	240070d8 <I2C_DMAError+0x54>
240070b8:	3218      	adds	r2, #24
240070ba:	4293      	cmp	r3, r2
240070bc:	d00c      	beq.n	240070d8 <I2C_DMAError+0x54>
240070be:	f502 7256 	add.w	r2, r2, #856	; 0x358
240070c2:	4293      	cmp	r3, r2
240070c4:	d008      	beq.n	240070d8 <I2C_DMAError+0x54>
240070c6:	3218      	adds	r2, #24
240070c8:	4293      	cmp	r3, r2
240070ca:	d005      	beq.n	240070d8 <I2C_DMAError+0x54>
240070cc:	3218      	adds	r2, #24
240070ce:	4293      	cmp	r3, r2
240070d0:	d002      	beq.n	240070d8 <I2C_DMAError+0x54>
240070d2:	3218      	adds	r2, #24
240070d4:	4293      	cmp	r3, r2
240070d6:	d0ff      	beq.n	240070d8 <I2C_DMAError+0x54>
240070d8:	685c      	ldr	r4, [r3, #4]
240070da:	fab4 f484 	clz	r4, r4
240070de:	0964      	lsrs	r4, r4, #5
240070e0:	6beb      	ldr	r3, [r5, #60]	; 0x3c
240070e2:	b34b      	cbz	r3, 24007138 <I2C_DMAError+0xb4>
240070e4:	681b      	ldr	r3, [r3, #0]
240070e6:	4a1d      	ldr	r2, [pc, #116]	; (2400715c <I2C_DMAError+0xd8>)
240070e8:	4293      	cmp	r3, r2
240070ea:	d021      	beq.n	24007130 <I2C_DMAError+0xac>
240070ec:	3218      	adds	r2, #24
240070ee:	4293      	cmp	r3, r2
240070f0:	d01e      	beq.n	24007130 <I2C_DMAError+0xac>
240070f2:	3218      	adds	r2, #24
240070f4:	4293      	cmp	r3, r2
240070f6:	d01b      	beq.n	24007130 <I2C_DMAError+0xac>
240070f8:	3218      	adds	r2, #24
240070fa:	4293      	cmp	r3, r2
240070fc:	d018      	beq.n	24007130 <I2C_DMAError+0xac>
240070fe:	3218      	adds	r2, #24
24007100:	4293      	cmp	r3, r2
24007102:	d015      	beq.n	24007130 <I2C_DMAError+0xac>
24007104:	3218      	adds	r2, #24
24007106:	4293      	cmp	r3, r2
24007108:	d012      	beq.n	24007130 <I2C_DMAError+0xac>
2400710a:	3218      	adds	r2, #24
2400710c:	4293      	cmp	r3, r2
2400710e:	d00f      	beq.n	24007130 <I2C_DMAError+0xac>
24007110:	3218      	adds	r2, #24
24007112:	4293      	cmp	r3, r2
24007114:	d00c      	beq.n	24007130 <I2C_DMAError+0xac>
24007116:	f502 7256 	add.w	r2, r2, #856	; 0x358
2400711a:	4293      	cmp	r3, r2
2400711c:	d008      	beq.n	24007130 <I2C_DMAError+0xac>
2400711e:	3218      	adds	r2, #24
24007120:	4293      	cmp	r3, r2
24007122:	d005      	beq.n	24007130 <I2C_DMAError+0xac>
24007124:	3218      	adds	r2, #24
24007126:	4293      	cmp	r3, r2
24007128:	d002      	beq.n	24007130 <I2C_DMAError+0xac>
2400712a:	3218      	adds	r2, #24
2400712c:	4293      	cmp	r3, r2
2400712e:	d0ff      	beq.n	24007130 <I2C_DMAError+0xac>
24007130:	685b      	ldr	r3, [r3, #4]
24007132:	2b00      	cmp	r3, #0
24007134:	bf08      	it	eq
24007136:	2401      	moveq	r4, #1
24007138:	f7fb fc24 	bl	24002984 <HAL_DMA_GetError>
2400713c:	2802      	cmp	r0, #2
2400713e:	d00b      	beq.n	24007158 <I2C_DMAError+0xd4>
24007140:	b154      	cbz	r4, 24007158 <I2C_DMAError+0xd4>
24007142:	682a      	ldr	r2, [r5, #0]
24007144:	4628      	mov	r0, r5
24007146:	2110      	movs	r1, #16
24007148:	6853      	ldr	r3, [r2, #4]
2400714a:	f443 4300 	orr.w	r3, r3, #32768	; 0x8000
2400714e:	6053      	str	r3, [r2, #4]
24007150:	e8bd 4038 	ldmia.w	sp!, {r3, r4, r5, lr}
24007154:	f7ff bb98 	b.w	24006888 <I2C_ITError>
24007158:	bd38      	pop	{r3, r4, r5, pc}
2400715a:	bf00      	nop
2400715c:	40020010 	.word	0x40020010

24007160 <I2C_DMAMasterTransmitCplt>:
24007160:	b510      	push	{r4, lr}
24007162:	6b84      	ldr	r4, [r0, #56]	; 0x38
24007164:	6822      	ldr	r2, [r4, #0]
24007166:	6813      	ldr	r3, [r2, #0]
24007168:	f423 4380 	bic.w	r3, r3, #16384	; 0x4000
2400716c:	6013      	str	r3, [r2, #0]
2400716e:	8d63      	ldrh	r3, [r4, #42]	; 0x2a
24007170:	b29b      	uxth	r3, r3
24007172:	b92b      	cbnz	r3, 24007180 <I2C_DMAMasterTransmitCplt+0x20>
24007174:	2120      	movs	r1, #32
24007176:	4620      	mov	r0, r4
24007178:	e8bd 4010 	ldmia.w	sp!, {r4, lr}
2400717c:	f7fd ba2a 	b.w	240045d4 <I2C_Enable_IRQ>
24007180:	8d23      	ldrh	r3, [r4, #40]	; 0x28
24007182:	6a61      	ldr	r1, [r4, #36]	; 0x24
24007184:	4419      	add	r1, r3
24007186:	8d63      	ldrh	r3, [r4, #42]	; 0x2a
24007188:	b29b      	uxth	r3, r3
2400718a:	6261      	str	r1, [r4, #36]	; 0x24
2400718c:	2bff      	cmp	r3, #255	; 0xff
2400718e:	d80d      	bhi.n	240071ac <I2C_DMAMasterTransmitCplt+0x4c>
24007190:	8d63      	ldrh	r3, [r4, #42]	; 0x2a
24007192:	b29b      	uxth	r3, r3
24007194:	3228      	adds	r2, #40	; 0x28
24007196:	6ba0      	ldr	r0, [r4, #56]	; 0x38
24007198:	8523      	strh	r3, [r4, #40]	; 0x28
2400719a:	f7fa fb59 	bl	24001850 <HAL_DMA_Start_IT>
2400719e:	b138      	cbz	r0, 240071b0 <I2C_DMAMasterTransmitCplt+0x50>
240071a0:	4620      	mov	r0, r4
240071a2:	2110      	movs	r1, #16
240071a4:	e8bd 4010 	ldmia.w	sp!, {r4, lr}
240071a8:	f7ff bb6e 	b.w	24006888 <I2C_ITError>
240071ac:	23ff      	movs	r3, #255	; 0xff
240071ae:	e7f1      	b.n	24007194 <I2C_DMAMasterTransmitCplt+0x34>
240071b0:	2140      	movs	r1, #64	; 0x40
240071b2:	e7e0      	b.n	24007176 <I2C_DMAMasterTransmitCplt+0x16>

240071b4 <I2C_DMAMasterReceiveCplt>:
240071b4:	b510      	push	{r4, lr}
240071b6:	6b84      	ldr	r4, [r0, #56]	; 0x38
240071b8:	6821      	ldr	r1, [r4, #0]
240071ba:	680b      	ldr	r3, [r1, #0]
240071bc:	f423 4300 	bic.w	r3, r3, #32768	; 0x8000
240071c0:	600b      	str	r3, [r1, #0]
240071c2:	8d63      	ldrh	r3, [r4, #42]	; 0x2a
240071c4:	b29b      	uxth	r3, r3
240071c6:	b92b      	cbnz	r3, 240071d4 <I2C_DMAMasterReceiveCplt+0x20>
240071c8:	2120      	movs	r1, #32
240071ca:	4620      	mov	r0, r4
240071cc:	e8bd 4010 	ldmia.w	sp!, {r4, lr}
240071d0:	f7fd ba00 	b.w	240045d4 <I2C_Enable_IRQ>
240071d4:	8d23      	ldrh	r3, [r4, #40]	; 0x28
240071d6:	6a62      	ldr	r2, [r4, #36]	; 0x24
240071d8:	441a      	add	r2, r3
240071da:	8d63      	ldrh	r3, [r4, #42]	; 0x2a
240071dc:	b29b      	uxth	r3, r3
240071de:	6262      	str	r2, [r4, #36]	; 0x24
240071e0:	2bff      	cmp	r3, #255	; 0xff
240071e2:	d80d      	bhi.n	24007200 <I2C_DMAMasterReceiveCplt+0x4c>
240071e4:	8d63      	ldrh	r3, [r4, #42]	; 0x2a
240071e6:	b29b      	uxth	r3, r3
240071e8:	3124      	adds	r1, #36	; 0x24
240071ea:	6be0      	ldr	r0, [r4, #60]	; 0x3c
240071ec:	8523      	strh	r3, [r4, #40]	; 0x28
240071ee:	f7fa fb2f 	bl	24001850 <HAL_DMA_Start_IT>
240071f2:	b138      	cbz	r0, 24007204 <I2C_DMAMasterReceiveCplt+0x50>
240071f4:	4620      	mov	r0, r4
240071f6:	2110      	movs	r1, #16
240071f8:	e8bd 4010 	ldmia.w	sp!, {r4, lr}
240071fc:	f7ff bb44 	b.w	24006888 <I2C_ITError>
24007200:	23ff      	movs	r3, #255	; 0xff
24007202:	e7f1      	b.n	240071e8 <I2C_DMAMasterReceiveCplt+0x34>
24007204:	2140      	movs	r1, #64	; 0x40
24007206:	e7e0      	b.n	240071ca <I2C_DMAMasterReceiveCplt+0x16>

24007208 <HAL_I2C_ER_IRQHandler>:
24007208:	6803      	ldr	r3, [r0, #0]
2400720a:	6999      	ldr	r1, [r3, #24]
2400720c:	681a      	ldr	r2, [r3, #0]
2400720e:	b410      	push	{r4}
24007210:	05cc      	lsls	r4, r1, #23
24007212:	d508      	bpl.n	24007226 <HAL_I2C_ER_IRQHandler+0x1e>
24007214:	0614      	lsls	r4, r2, #24
24007216:	d506      	bpl.n	24007226 <HAL_I2C_ER_IRQHandler+0x1e>
24007218:	6c44      	ldr	r4, [r0, #68]	; 0x44
2400721a:	f044 0401 	orr.w	r4, r4, #1
2400721e:	6444      	str	r4, [r0, #68]	; 0x44
24007220:	f44f 7480 	mov.w	r4, #256	; 0x100
24007224:	61dc      	str	r4, [r3, #28]
24007226:	054c      	lsls	r4, r1, #21
24007228:	d508      	bpl.n	2400723c <HAL_I2C_ER_IRQHandler+0x34>
2400722a:	0614      	lsls	r4, r2, #24
2400722c:	d506      	bpl.n	2400723c <HAL_I2C_ER_IRQHandler+0x34>
2400722e:	6c44      	ldr	r4, [r0, #68]	; 0x44
24007230:	f044 0408 	orr.w	r4, r4, #8
24007234:	6444      	str	r4, [r0, #68]	; 0x44
24007236:	f44f 6480 	mov.w	r4, #1024	; 0x400
2400723a:	61dc      	str	r4, [r3, #28]
2400723c:	0589      	lsls	r1, r1, #22
2400723e:	d508      	bpl.n	24007252 <HAL_I2C_ER_IRQHandler+0x4a>
24007240:	0612      	lsls	r2, r2, #24
24007242:	d506      	bpl.n	24007252 <HAL_I2C_ER_IRQHandler+0x4a>
24007244:	6c42      	ldr	r2, [r0, #68]	; 0x44
24007246:	f042 0202 	orr.w	r2, r2, #2
2400724a:	6442      	str	r2, [r0, #68]	; 0x44
2400724c:	f44f 7200 	mov.w	r2, #512	; 0x200
24007250:	61da      	str	r2, [r3, #28]
24007252:	6c41      	ldr	r1, [r0, #68]	; 0x44
24007254:	f011 0f0b 	tst.w	r1, #11
24007258:	d003      	beq.n	24007262 <HAL_I2C_ER_IRQHandler+0x5a>
2400725a:	f85d 4b04 	ldr.w	r4, [sp], #4
2400725e:	f7ff bb13 	b.w	24006888 <I2C_ITError>
24007262:	f85d 4b04 	ldr.w	r4, [sp], #4
24007266:	4770      	bx	lr

24007268 <I2C_DMAAbort>:
24007268:	6b80      	ldr	r0, [r0, #56]	; 0x38
2400726a:	6b83      	ldr	r3, [r0, #56]	; 0x38
2400726c:	b10b      	cbz	r3, 24007272 <I2C_DMAAbort+0xa>
2400726e:	2200      	movs	r2, #0
24007270:	651a      	str	r2, [r3, #80]	; 0x50
24007272:	6bc3      	ldr	r3, [r0, #60]	; 0x3c
24007274:	b10b      	cbz	r3, 2400727a <I2C_DMAAbort+0x12>
24007276:	2200      	movs	r2, #0
24007278:	651a      	str	r2, [r3, #80]	; 0x50
2400727a:	f7ff baef 	b.w	2400685c <I2C_TreatErrorCallback>

2400727e <HAL_I2C_GetState>:
2400727e:	f890 0041 	ldrb.w	r0, [r0, #65]	; 0x41
24007282:	4770      	bx	lr

24007284 <HAL_I2C_GetMode>:
24007284:	f890 0042 	ldrb.w	r0, [r0, #66]	; 0x42
24007288:	4770      	bx	lr

2400728a <HAL_I2C_GetError>:
2400728a:	6c40      	ldr	r0, [r0, #68]	; 0x44
2400728c:	4770      	bx	lr

2400728e <HAL_I2CEx_ConfigAnalogFilter>:
2400728e:	b510      	push	{r4, lr}
24007290:	f890 3041 	ldrb.w	r3, [r0, #65]	; 0x41
24007294:	2b20      	cmp	r3, #32
24007296:	b2dc      	uxtb	r4, r3
24007298:	d11d      	bne.n	240072d6 <HAL_I2CEx_ConfigAnalogFilter+0x48>
2400729a:	f890 3040 	ldrb.w	r3, [r0, #64]	; 0x40
2400729e:	2b01      	cmp	r3, #1
240072a0:	d019      	beq.n	240072d6 <HAL_I2CEx_ConfigAnalogFilter+0x48>
240072a2:	2324      	movs	r3, #36	; 0x24
240072a4:	f880 3041 	strb.w	r3, [r0, #65]	; 0x41
240072a8:	6803      	ldr	r3, [r0, #0]
240072aa:	681a      	ldr	r2, [r3, #0]
240072ac:	f022 0201 	bic.w	r2, r2, #1
240072b0:	601a      	str	r2, [r3, #0]
240072b2:	681a      	ldr	r2, [r3, #0]
240072b4:	f422 5280 	bic.w	r2, r2, #4096	; 0x1000
240072b8:	601a      	str	r2, [r3, #0]
240072ba:	681a      	ldr	r2, [r3, #0]
240072bc:	4311      	orrs	r1, r2
240072be:	6019      	str	r1, [r3, #0]
240072c0:	681a      	ldr	r2, [r3, #0]
240072c2:	f042 0201 	orr.w	r2, r2, #1
240072c6:	601a      	str	r2, [r3, #0]
240072c8:	2300      	movs	r3, #0
240072ca:	f880 4041 	strb.w	r4, [r0, #65]	; 0x41
240072ce:	f880 3040 	strb.w	r3, [r0, #64]	; 0x40
240072d2:	4618      	mov	r0, r3
240072d4:	bd10      	pop	{r4, pc}
240072d6:	2002      	movs	r0, #2
240072d8:	e7fc      	b.n	240072d4 <HAL_I2CEx_ConfigAnalogFilter+0x46>

240072da <HAL_I2CEx_ConfigDigitalFilter>:
240072da:	b510      	push	{r4, lr}
240072dc:	f890 3041 	ldrb.w	r3, [r0, #65]	; 0x41
240072e0:	2b20      	cmp	r3, #32
240072e2:	b2dc      	uxtb	r4, r3
240072e4:	d11c      	bne.n	24007320 <HAL_I2CEx_ConfigDigitalFilter+0x46>
240072e6:	f890 3040 	ldrb.w	r3, [r0, #64]	; 0x40
240072ea:	2b01      	cmp	r3, #1
240072ec:	d018      	beq.n	24007320 <HAL_I2CEx_ConfigDigitalFilter+0x46>
240072ee:	2324      	movs	r3, #36	; 0x24
240072f0:	f880 3041 	strb.w	r3, [r0, #65]	; 0x41
240072f4:	6803      	ldr	r3, [r0, #0]
240072f6:	681a      	ldr	r2, [r3, #0]
240072f8:	f022 0201 	bic.w	r2, r2, #1
240072fc:	601a      	str	r2, [r3, #0]
240072fe:	681a      	ldr	r2, [r3, #0]
24007300:	f422 6270 	bic.w	r2, r2, #3840	; 0xf00
24007304:	ea42 2101 	orr.w	r1, r2, r1, lsl #8
24007308:	6019      	str	r1, [r3, #0]
2400730a:	681a      	ldr	r2, [r3, #0]
2400730c:	f042 0201 	orr.w	r2, r2, #1
24007310:	601a      	str	r2, [r3, #0]
24007312:	2300      	movs	r3, #0
24007314:	f880 4041 	strb.w	r4, [r0, #65]	; 0x41
24007318:	f880 3040 	strb.w	r3, [r0, #64]	; 0x40
2400731c:	4618      	mov	r0, r3
2400731e:	bd10      	pop	{r4, pc}
24007320:	2002      	movs	r0, #2
24007322:	e7fc      	b.n	2400731e <HAL_I2CEx_ConfigDigitalFilter+0x44>

24007324 <HAL_I2CEx_EnableWakeUp>:
24007324:	f890 3041 	ldrb.w	r3, [r0, #65]	; 0x41
24007328:	2b20      	cmp	r3, #32
2400732a:	b2d9      	uxtb	r1, r3
2400732c:	d11a      	bne.n	24007364 <HAL_I2CEx_EnableWakeUp+0x40>
2400732e:	f890 3040 	ldrb.w	r3, [r0, #64]	; 0x40
24007332:	2b01      	cmp	r3, #1
24007334:	d016      	beq.n	24007364 <HAL_I2CEx_EnableWakeUp+0x40>
24007336:	2324      	movs	r3, #36	; 0x24
24007338:	f880 3041 	strb.w	r3, [r0, #65]	; 0x41
2400733c:	6803      	ldr	r3, [r0, #0]
2400733e:	681a      	ldr	r2, [r3, #0]
24007340:	f022 0201 	bic.w	r2, r2, #1
24007344:	601a      	str	r2, [r3, #0]
24007346:	681a      	ldr	r2, [r3, #0]
24007348:	f442 2280 	orr.w	r2, r2, #262144	; 0x40000
2400734c:	601a      	str	r2, [r3, #0]
2400734e:	681a      	ldr	r2, [r3, #0]
24007350:	f042 0201 	orr.w	r2, r2, #1
24007354:	601a      	str	r2, [r3, #0]
24007356:	2300      	movs	r3, #0
24007358:	f880 1041 	strb.w	r1, [r0, #65]	; 0x41
2400735c:	f880 3040 	strb.w	r3, [r0, #64]	; 0x40
24007360:	4618      	mov	r0, r3
24007362:	4770      	bx	lr
24007364:	2002      	movs	r0, #2
24007366:	4770      	bx	lr

24007368 <HAL_I2CEx_DisableWakeUp>:
24007368:	f890 3041 	ldrb.w	r3, [r0, #65]	; 0x41
2400736c:	2b20      	cmp	r3, #32
2400736e:	b2d9      	uxtb	r1, r3
24007370:	d11a      	bne.n	240073a8 <HAL_I2CEx_DisableWakeUp+0x40>
24007372:	f890 3040 	ldrb.w	r3, [r0, #64]	; 0x40
24007376:	2b01      	cmp	r3, #1
24007378:	d016      	beq.n	240073a8 <HAL_I2CEx_DisableWakeUp+0x40>
2400737a:	2324      	movs	r3, #36	; 0x24
2400737c:	f880 3041 	strb.w	r3, [r0, #65]	; 0x41
24007380:	6803      	ldr	r3, [r0, #0]
24007382:	681a      	ldr	r2, [r3, #0]
24007384:	f022 0201 	bic.w	r2, r2, #1
24007388:	601a      	str	r2, [r3, #0]
2400738a:	681a      	ldr	r2, [r3, #0]
2400738c:	f422 2280 	bic.w	r2, r2, #262144	; 0x40000
24007390:	601a      	str	r2, [r3, #0]
24007392:	681a      	ldr	r2, [r3, #0]
24007394:	f042 0201 	orr.w	r2, r2, #1
24007398:	601a      	str	r2, [r3, #0]
2400739a:	2300      	movs	r3, #0
2400739c:	f880 1041 	strb.w	r1, [r0, #65]	; 0x41
240073a0:	f880 3040 	strb.w	r3, [r0, #64]	; 0x40
240073a4:	4618      	mov	r0, r3
240073a6:	4770      	bx	lr
240073a8:	2002      	movs	r0, #2
240073aa:	4770      	bx	lr

240073ac <HAL_I2CEx_EnableFastModePlus>:
240073ac:	4a09      	ldr	r2, [pc, #36]	; (240073d4 <HAL_I2CEx_EnableFastModePlus+0x28>)
240073ae:	b082      	sub	sp, #8
240073b0:	f8d2 10f4 	ldr.w	r1, [r2, #244]	; 0xf4
240073b4:	f041 0102 	orr.w	r1, r1, #2
240073b8:	f8c2 10f4 	str.w	r1, [r2, #244]	; 0xf4
240073bc:	f8d2 20f4 	ldr.w	r2, [r2, #244]	; 0xf4
240073c0:	f002 0202 	and.w	r2, r2, #2
240073c4:	9201      	str	r2, [sp, #4]
240073c6:	4a04      	ldr	r2, [pc, #16]	; (240073d8 <HAL_I2CEx_EnableFastModePlus+0x2c>)
240073c8:	9b01      	ldr	r3, [sp, #4]
240073ca:	6853      	ldr	r3, [r2, #4]
240073cc:	4318      	orrs	r0, r3
240073ce:	6050      	str	r0, [r2, #4]
240073d0:	b002      	add	sp, #8
240073d2:	4770      	bx	lr
240073d4:	58024400 	.word	0x58024400
240073d8:	58000400 	.word	0x58000400

240073dc <HAL_I2CEx_DisableFastModePlus>:
240073dc:	4a0a      	ldr	r2, [pc, #40]	; (24007408 <HAL_I2CEx_DisableFastModePlus+0x2c>)
240073de:	b082      	sub	sp, #8
240073e0:	f8d2 10f4 	ldr.w	r1, [r2, #244]	; 0xf4
240073e4:	f041 0102 	orr.w	r1, r1, #2
240073e8:	f8c2 10f4 	str.w	r1, [r2, #244]	; 0xf4
240073ec:	f8d2 20f4 	ldr.w	r2, [r2, #244]	; 0xf4
240073f0:	f002 0202 	and.w	r2, r2, #2
240073f4:	9201      	str	r2, [sp, #4]
240073f6:	4a05      	ldr	r2, [pc, #20]	; (2400740c <HAL_I2CEx_DisableFastModePlus+0x30>)
240073f8:	9b01      	ldr	r3, [sp, #4]
240073fa:	6853      	ldr	r3, [r2, #4]
240073fc:	ea23 0000 	bic.w	r0, r3, r0
24007400:	6050      	str	r0, [r2, #4]
24007402:	b002      	add	sp, #8
24007404:	4770      	bx	lr
24007406:	bf00      	nop
24007408:	58024400 	.word	0x58024400
2400740c:	58000400 	.word	0x58000400

24007410 <MDMA_SetConfig>:
24007410:	b530      	push	{r4, r5, lr}
24007412:	6804      	ldr	r4, [r0, #0]
24007414:	f3c3 0310 	ubfx	r3, r3, #0, #17
24007418:	f011 4f5f 	tst.w	r1, #3741319168	; 0xdf000000
2400741c:	6965      	ldr	r5, [r4, #20]
2400741e:	ea4f 4555 	mov.w	r5, r5, lsr #17
24007422:	ea4f 4545 	mov.w	r5, r5, lsl #17
24007426:	ea45 0503 	orr.w	r5, r5, r3
2400742a:	6165      	str	r5, [r4, #20]
2400742c:	9d03      	ldr	r5, [sp, #12]
2400742e:	6963      	ldr	r3, [r4, #20]
24007430:	f105 35ff 	add.w	r5, r5, #4294967295
24007434:	f3c3 0313 	ubfx	r3, r3, #0, #20
24007438:	ea43 5305 	orr.w	r3, r3, r5, lsl #20
2400743c:	6163      	str	r3, [r4, #20]
2400743e:	f04f 031f 	mov.w	r3, #31
24007442:	6063      	str	r3, [r4, #4]
24007444:	61e2      	str	r2, [r4, #28]
24007446:	61a1      	str	r1, [r4, #24]
24007448:	6aa3      	ldr	r3, [r4, #40]	; 0x28
2400744a:	bf0c      	ite	eq
2400744c:	f443 3380 	orreq.w	r3, r3, #65536	; 0x10000
24007450:	f423 3380 	bicne.w	r3, r3, #65536	; 0x10000
24007454:	f012 4f5f 	tst.w	r2, #3741319168	; 0xdf000000
24007458:	62a3      	str	r3, [r4, #40]	; 0x28
2400745a:	6aa3      	ldr	r3, [r4, #40]	; 0x28
2400745c:	bf0c      	ite	eq
2400745e:	f443 3300 	orreq.w	r3, r3, #131072	; 0x20000
24007462:	f423 3300 	bicne.w	r3, r3, #131072	; 0x20000
24007466:	62a3      	str	r3, [r4, #40]	; 0x28
24007468:	6dc3      	ldr	r3, [r0, #92]	; 0x5c
2400746a:	6263      	str	r3, [r4, #36]	; 0x24
2400746c:	bd30      	pop	{r4, r5, pc}

2400746e <HAL_MDMA_Init>:
2400746e:	b538      	push	{r3, r4, r5, lr}
24007470:	4604      	mov	r4, r0
24007472:	f7f9 f997 	bl	240007a4 <HAL_GetTick>
24007476:	4605      	mov	r5, r0
24007478:	2c00      	cmp	r4, #0
2400747a:	d061      	beq.n	24007540 <HAL_MDMA_Init+0xd2>
2400747c:	2300      	movs	r3, #0
2400747e:	6822      	ldr	r2, [r4, #0]
24007480:	f884 303c 	strb.w	r3, [r4, #60]	; 0x3c
24007484:	2302      	movs	r3, #2
24007486:	f884 303d 	strb.w	r3, [r4, #61]	; 0x3d
2400748a:	68d3      	ldr	r3, [r2, #12]
2400748c:	f023 0301 	bic.w	r3, r3, #1
24007490:	60d3      	str	r3, [r2, #12]
24007492:	6823      	ldr	r3, [r4, #0]
24007494:	68da      	ldr	r2, [r3, #12]
24007496:	07d2      	lsls	r2, r2, #31
24007498:	d448      	bmi.n	2400752c <HAL_MDMA_Init+0xbe>
2400749a:	e9d4 2103 	ldrd	r2, r1, [r4, #12]
2400749e:	430a      	orrs	r2, r1
240074a0:	60da      	str	r2, [r3, #12]
240074a2:	e9d4 2105 	ldrd	r2, r1, [r4, #20]
240074a6:	430a      	orrs	r2, r1
240074a8:	69e1      	ldr	r1, [r4, #28]
240074aa:	430a      	orrs	r2, r1
240074ac:	6a21      	ldr	r1, [r4, #32]
240074ae:	430a      	orrs	r2, r1
240074b0:	6a61      	ldr	r1, [r4, #36]	; 0x24
240074b2:	430a      	orrs	r2, r1
240074b4:	6ae1      	ldr	r1, [r4, #44]	; 0x2c
240074b6:	430a      	orrs	r2, r1
240074b8:	6b21      	ldr	r1, [r4, #48]	; 0x30
240074ba:	430a      	orrs	r2, r1
240074bc:	68a1      	ldr	r1, [r4, #8]
240074be:	430a      	orrs	r2, r1
240074c0:	6aa1      	ldr	r1, [r4, #40]	; 0x28
240074c2:	3901      	subs	r1, #1
240074c4:	ea42 4281 	orr.w	r2, r2, r1, lsl #18
240074c8:	6861      	ldr	r1, [r4, #4]
240074ca:	f1b1 4f80 	cmp.w	r1, #1073741824	; 0x40000000
240074ce:	611a      	str	r2, [r3, #16]
240074d0:	d103      	bne.n	240074da <HAL_MDMA_Init+0x6c>
240074d2:	691a      	ldr	r2, [r3, #16]
240074d4:	f042 4240 	orr.w	r2, r2, #3221225472	; 0xc0000000
240074d8:	611a      	str	r2, [r3, #16]
240074da:	2200      	movs	r2, #0
240074dc:	615a      	str	r2, [r3, #20]
240074de:	6b62      	ldr	r2, [r4, #52]	; 0x34
240074e0:	2a00      	cmp	r2, #0
240074e2:	da04      	bge.n	240074ee <HAL_MDMA_Init+0x80>
240074e4:	6958      	ldr	r0, [r3, #20]
240074e6:	4252      	negs	r2, r2
240074e8:	f440 2080 	orr.w	r0, r0, #262144	; 0x40000
240074ec:	6158      	str	r0, [r3, #20]
240074ee:	b292      	uxth	r2, r2
240074f0:	621a      	str	r2, [r3, #32]
240074f2:	6ba2      	ldr	r2, [r4, #56]	; 0x38
240074f4:	2a00      	cmp	r2, #0
240074f6:	da25      	bge.n	24007544 <HAL_MDMA_Init+0xd6>
240074f8:	6958      	ldr	r0, [r3, #20]
240074fa:	4252      	negs	r2, r2
240074fc:	f440 2000 	orr.w	r0, r0, #524288	; 0x80000
24007500:	6158      	str	r0, [r3, #20]
24007502:	6a18      	ldr	r0, [r3, #32]
24007504:	ea40 4202 	orr.w	r2, r0, r2, lsl #16
24007508:	f1b1 4f80 	cmp.w	r1, #1073741824	; 0x40000000
2400750c:	621a      	str	r2, [r3, #32]
2400750e:	f04f 0200 	mov.w	r2, #0
24007512:	d019      	beq.n	24007548 <HAL_MDMA_Init+0xda>
24007514:	b2c9      	uxtb	r1, r1
24007516:	6299      	str	r1, [r3, #40]	; 0x28
24007518:	625a      	str	r2, [r3, #36]	; 0x24
2400751a:	2000      	movs	r0, #0
2400751c:	2301      	movs	r3, #1
2400751e:	66a2      	str	r2, [r4, #104]	; 0x68
24007520:	6662      	str	r2, [r4, #100]	; 0x64
24007522:	f884 303d 	strb.w	r3, [r4, #61]	; 0x3d
24007526:	e9c4 2217 	strd	r2, r2, [r4, #92]	; 0x5c
2400752a:	bd38      	pop	{r3, r4, r5, pc}
2400752c:	f7f9 f93a 	bl	240007a4 <HAL_GetTick>
24007530:	1b40      	subs	r0, r0, r5
24007532:	2805      	cmp	r0, #5
24007534:	d9ad      	bls.n	24007492 <HAL_MDMA_Init+0x24>
24007536:	2340      	movs	r3, #64	; 0x40
24007538:	66a3      	str	r3, [r4, #104]	; 0x68
2400753a:	2303      	movs	r3, #3
2400753c:	f884 303d 	strb.w	r3, [r4, #61]	; 0x3d
24007540:	2001      	movs	r0, #1
24007542:	e7f2      	b.n	2400752a <HAL_MDMA_Init+0xbc>
24007544:	6a18      	ldr	r0, [r3, #32]
24007546:	e7dd      	b.n	24007504 <HAL_MDMA_Init+0x96>
24007548:	629a      	str	r2, [r3, #40]	; 0x28
2400754a:	e7e5      	b.n	24007518 <HAL_MDMA_Init+0xaa>

2400754c <HAL_MDMA_DeInit>:
2400754c:	b1d8      	cbz	r0, 24007586 <HAL_MDMA_DeInit+0x3a>
2400754e:	6802      	ldr	r2, [r0, #0]
24007550:	211f      	movs	r1, #31
24007552:	68d3      	ldr	r3, [r2, #12]
24007554:	f023 0301 	bic.w	r3, r3, #1
24007558:	60d3      	str	r3, [r2, #12]
2400755a:	2300      	movs	r3, #0
2400755c:	60d3      	str	r3, [r2, #12]
2400755e:	6113      	str	r3, [r2, #16]
24007560:	6153      	str	r3, [r2, #20]
24007562:	6193      	str	r3, [r2, #24]
24007564:	61d3      	str	r3, [r2, #28]
24007566:	6213      	str	r3, [r2, #32]
24007568:	6253      	str	r3, [r2, #36]	; 0x24
2400756a:	6293      	str	r3, [r2, #40]	; 0x28
2400756c:	6313      	str	r3, [r2, #48]	; 0x30
2400756e:	6353      	str	r3, [r2, #52]	; 0x34
24007570:	6051      	str	r1, [r2, #4]
24007572:	6683      	str	r3, [r0, #104]	; 0x68
24007574:	6643      	str	r3, [r0, #100]	; 0x64
24007576:	f880 303d 	strb.w	r3, [r0, #61]	; 0x3d
2400757a:	f880 303c 	strb.w	r3, [r0, #60]	; 0x3c
2400757e:	e9c0 3317 	strd	r3, r3, [r0, #92]	; 0x5c
24007582:	4618      	mov	r0, r3
24007584:	4770      	bx	lr
24007586:	2001      	movs	r0, #1
24007588:	4770      	bx	lr

2400758a <HAL_MDMA_ConfigPostRequestMask>:
2400758a:	b530      	push	{r4, r5, lr}
2400758c:	b320      	cbz	r0, 240075d8 <HAL_MDMA_ConfigPostRequestMask+0x4e>
2400758e:	f890 303c 	ldrb.w	r3, [r0, #60]	; 0x3c
24007592:	2b01      	cmp	r3, #1
24007594:	d022      	beq.n	240075dc <HAL_MDMA_ConfigPostRequestMask+0x52>
24007596:	2301      	movs	r3, #1
24007598:	f890 503d 	ldrb.w	r5, [r0, #61]	; 0x3d
2400759c:	429d      	cmp	r5, r3
2400759e:	b2ec      	uxtb	r4, r5
240075a0:	f880 303c 	strb.w	r3, [r0, #60]	; 0x3c
240075a4:	d116      	bne.n	240075d4 <HAL_MDMA_ConfigPostRequestMask+0x4a>
240075a6:	6803      	ldr	r3, [r0, #0]
240075a8:	691d      	ldr	r5, [r3, #16]
240075aa:	f015 4580 	ands.w	r5, r5, #1073741824	; 0x40000000
240075ae:	d107      	bne.n	240075c0 <HAL_MDMA_ConfigPostRequestMask+0x36>
240075b0:	6319      	str	r1, [r3, #48]	; 0x30
240075b2:	635a      	str	r2, [r3, #52]	; 0x34
240075b4:	691a      	ldr	r2, [r3, #16]
240075b6:	b941      	cbnz	r1, 240075ca <HAL_MDMA_ConfigPostRequestMask+0x40>
240075b8:	f022 4200 	bic.w	r2, r2, #2147483648	; 0x80000000
240075bc:	460c      	mov	r4, r1
240075be:	611a      	str	r2, [r3, #16]
240075c0:	2300      	movs	r3, #0
240075c2:	f880 303c 	strb.w	r3, [r0, #60]	; 0x3c
240075c6:	4620      	mov	r0, r4
240075c8:	bd30      	pop	{r4, r5, pc}
240075ca:	f042 4200 	orr.w	r2, r2, #2147483648	; 0x80000000
240075ce:	462c      	mov	r4, r5
240075d0:	611a      	str	r2, [r3, #16]
240075d2:	e7f5      	b.n	240075c0 <HAL_MDMA_ConfigPostRequestMask+0x36>
240075d4:	461c      	mov	r4, r3
240075d6:	e7f3      	b.n	240075c0 <HAL_MDMA_ConfigPostRequestMask+0x36>
240075d8:	2401      	movs	r4, #1
240075da:	e7f4      	b.n	240075c6 <HAL_MDMA_ConfigPostRequestMask+0x3c>
240075dc:	2402      	movs	r4, #2
240075de:	e7f2      	b.n	240075c6 <HAL_MDMA_ConfigPostRequestMask+0x3c>

240075e0 <HAL_MDMA_RegisterCallback>:
240075e0:	b308      	cbz	r0, 24007626 <HAL_MDMA_RegisterCallback+0x46>
240075e2:	f890 303c 	ldrb.w	r3, [r0, #60]	; 0x3c
240075e6:	2b01      	cmp	r3, #1
240075e8:	d01f      	beq.n	2400762a <HAL_MDMA_RegisterCallback+0x4a>
240075ea:	f890 303d 	ldrb.w	r3, [r0, #61]	; 0x3d
240075ee:	2b01      	cmp	r3, #1
240075f0:	d117      	bne.n	24007622 <HAL_MDMA_RegisterCallback+0x42>
240075f2:	2905      	cmp	r1, #5
240075f4:	d80b      	bhi.n	2400760e <HAL_MDMA_RegisterCallback+0x2e>
240075f6:	e8df f001 	tbb	[pc, r1]
240075fa:	0903      	.short	0x0903
240075fc:	12100e0c 	.word	0x12100e0c
24007600:	6442      	str	r2, [r0, #68]	; 0x44
24007602:	2300      	movs	r3, #0
24007604:	f880 303c 	strb.w	r3, [r0, #60]	; 0x3c
24007608:	4608      	mov	r0, r1
2400760a:	4770      	bx	lr
2400760c:	6482      	str	r2, [r0, #72]	; 0x48
2400760e:	2100      	movs	r1, #0
24007610:	e7f7      	b.n	24007602 <HAL_MDMA_RegisterCallback+0x22>
24007612:	64c2      	str	r2, [r0, #76]	; 0x4c
24007614:	e7fb      	b.n	2400760e <HAL_MDMA_RegisterCallback+0x2e>
24007616:	6502      	str	r2, [r0, #80]	; 0x50
24007618:	e7f9      	b.n	2400760e <HAL_MDMA_RegisterCallback+0x2e>
2400761a:	6542      	str	r2, [r0, #84]	; 0x54
2400761c:	e7f7      	b.n	2400760e <HAL_MDMA_RegisterCallback+0x2e>
2400761e:	6582      	str	r2, [r0, #88]	; 0x58
24007620:	e7f5      	b.n	2400760e <HAL_MDMA_RegisterCallback+0x2e>
24007622:	2101      	movs	r1, #1
24007624:	e7ed      	b.n	24007602 <HAL_MDMA_RegisterCallback+0x22>
24007626:	2001      	movs	r0, #1
24007628:	4770      	bx	lr
2400762a:	2002      	movs	r0, #2
2400762c:	4770      	bx	lr

2400762e <HAL_MDMA_UnRegisterCallback>:
2400762e:	b510      	push	{r4, lr}
24007630:	b368      	cbz	r0, 2400768e <HAL_MDMA_UnRegisterCallback+0x60>
24007632:	f890 303c 	ldrb.w	r3, [r0, #60]	; 0x3c
24007636:	2b01      	cmp	r3, #1
24007638:	d02b      	beq.n	24007692 <HAL_MDMA_UnRegisterCallback+0x64>
2400763a:	2301      	movs	r3, #1
2400763c:	f890 403d 	ldrb.w	r4, [r0, #61]	; 0x3d
24007640:	429c      	cmp	r4, r3
24007642:	b2e2      	uxtb	r2, r4
24007644:	f880 303c 	strb.w	r3, [r0, #60]	; 0x3c
24007648:	d11f      	bne.n	2400768a <HAL_MDMA_UnRegisterCallback+0x5c>
2400764a:	2300      	movs	r3, #0
2400764c:	2906      	cmp	r1, #6
2400764e:	d807      	bhi.n	24007660 <HAL_MDMA_UnRegisterCallback+0x32>
24007650:	e8df f001 	tbb	[pc, r1]
24007654:	100e0b04 	.word	0x100e0b04
24007658:	1912      	.short	0x1912
2400765a:	14          	.byte	0x14
2400765b:	00          	.byte	0x00
2400765c:	460a      	mov	r2, r1
2400765e:	6443      	str	r3, [r0, #68]	; 0x44
24007660:	2300      	movs	r3, #0
24007662:	f880 303c 	strb.w	r3, [r0, #60]	; 0x3c
24007666:	4610      	mov	r0, r2
24007668:	bd10      	pop	{r4, pc}
2400766a:	6483      	str	r3, [r0, #72]	; 0x48
2400766c:	2200      	movs	r2, #0
2400766e:	e7f7      	b.n	24007660 <HAL_MDMA_UnRegisterCallback+0x32>
24007670:	64c3      	str	r3, [r0, #76]	; 0x4c
24007672:	e7fb      	b.n	2400766c <HAL_MDMA_UnRegisterCallback+0x3e>
24007674:	6503      	str	r3, [r0, #80]	; 0x50
24007676:	e7f9      	b.n	2400766c <HAL_MDMA_UnRegisterCallback+0x3e>
24007678:	6543      	str	r3, [r0, #84]	; 0x54
2400767a:	e7f7      	b.n	2400766c <HAL_MDMA_UnRegisterCallback+0x3e>
2400767c:	e9c0 3311 	strd	r3, r3, [r0, #68]	; 0x44
24007680:	e9c0 3313 	strd	r3, r3, [r0, #76]	; 0x4c
24007684:	6543      	str	r3, [r0, #84]	; 0x54
24007686:	6583      	str	r3, [r0, #88]	; 0x58
24007688:	e7f0      	b.n	2400766c <HAL_MDMA_UnRegisterCallback+0x3e>
2400768a:	461a      	mov	r2, r3
2400768c:	e7e8      	b.n	24007660 <HAL_MDMA_UnRegisterCallback+0x32>
2400768e:	2201      	movs	r2, #1
24007690:	e7e9      	b.n	24007666 <HAL_MDMA_UnRegisterCallback+0x38>
24007692:	2202      	movs	r2, #2
24007694:	e7e7      	b.n	24007666 <HAL_MDMA_UnRegisterCallback+0x38>

24007696 <HAL_MDMA_LinkedList_CreateNode>:
24007696:	b510      	push	{r4, lr}
24007698:	2800      	cmp	r0, #0
2400769a:	d065      	beq.n	24007768 <HAL_MDMA_LinkedList_CreateNode+0xd2>
2400769c:	2900      	cmp	r1, #0
2400769e:	d063      	beq.n	24007768 <HAL_MDMA_LinkedList_CreateNode+0xd2>
240076a0:	2300      	movs	r3, #0
240076a2:	6143      	str	r3, [r0, #20]
240076a4:	6183      	str	r3, [r0, #24]
240076a6:	6203      	str	r3, [r0, #32]
240076a8:	6243      	str	r3, [r0, #36]	; 0x24
240076aa:	61c3      	str	r3, [r0, #28]
240076ac:	e9d1 3204 	ldrd	r3, r2, [r1, #16]
240076b0:	4313      	orrs	r3, r2
240076b2:	698a      	ldr	r2, [r1, #24]
240076b4:	4313      	orrs	r3, r2
240076b6:	69ca      	ldr	r2, [r1, #28]
240076b8:	4313      	orrs	r3, r2
240076ba:	6a0a      	ldr	r2, [r1, #32]
240076bc:	4313      	orrs	r3, r2
240076be:	6a8a      	ldr	r2, [r1, #40]	; 0x28
240076c0:	4313      	orrs	r3, r2
240076c2:	6aca      	ldr	r2, [r1, #44]	; 0x2c
240076c4:	4313      	orrs	r3, r2
240076c6:	684a      	ldr	r2, [r1, #4]
240076c8:	4313      	orrs	r3, r2
240076ca:	6a4a      	ldr	r2, [r1, #36]	; 0x24
240076cc:	3a01      	subs	r2, #1
240076ce:	ea43 4382 	orr.w	r3, r3, r2, lsl #18
240076d2:	680a      	ldr	r2, [r1, #0]
240076d4:	f1b2 4f80 	cmp.w	r2, #1073741824	; 0x40000000
240076d8:	6003      	str	r3, [r0, #0]
240076da:	d147      	bne.n	2400776c <HAL_MDMA_LinkedList_CreateNode+0xd6>
240076dc:	6803      	ldr	r3, [r0, #0]
240076de:	f043 4380 	orr.w	r3, r3, #1073741824	; 0x40000000
240076e2:	6003      	str	r3, [r0, #0]
240076e4:	6803      	ldr	r3, [r0, #0]
240076e6:	f043 4300 	orr.w	r3, r3, #2147483648	; 0x80000000
240076ea:	6003      	str	r3, [r0, #0]
240076ec:	6c4b      	ldr	r3, [r1, #68]	; 0x44
240076ee:	3b01      	subs	r3, #1
240076f0:	051b      	lsls	r3, r3, #20
240076f2:	6043      	str	r3, [r0, #4]
240076f4:	6b0b      	ldr	r3, [r1, #48]	; 0x30
240076f6:	2b00      	cmp	r3, #0
240076f8:	da04      	bge.n	24007704 <HAL_MDMA_LinkedList_CreateNode+0x6e>
240076fa:	6844      	ldr	r4, [r0, #4]
240076fc:	425b      	negs	r3, r3
240076fe:	f444 2480 	orr.w	r4, r4, #262144	; 0x40000
24007702:	6044      	str	r4, [r0, #4]
24007704:	b29b      	uxth	r3, r3
24007706:	6103      	str	r3, [r0, #16]
24007708:	6b4b      	ldr	r3, [r1, #52]	; 0x34
2400770a:	2b00      	cmp	r3, #0
2400770c:	da2a      	bge.n	24007764 <HAL_MDMA_LinkedList_CreateNode+0xce>
2400770e:	6844      	ldr	r4, [r0, #4]
24007710:	425b      	negs	r3, r3
24007712:	f444 2400 	orr.w	r4, r4, #524288	; 0x80000
24007716:	6044      	str	r4, [r0, #4]
24007718:	6904      	ldr	r4, [r0, #16]
2400771a:	ea44 4303 	orr.w	r3, r4, r3, lsl #16
2400771e:	f1b2 4f80 	cmp.w	r2, #1073741824	; 0x40000000
24007722:	6103      	str	r3, [r0, #16]
24007724:	6c0c      	ldr	r4, [r1, #64]	; 0x40
24007726:	6843      	ldr	r3, [r0, #4]
24007728:	ea43 0304 	orr.w	r3, r3, r4
2400772c:	6b8c      	ldr	r4, [r1, #56]	; 0x38
2400772e:	6043      	str	r3, [r0, #4]
24007730:	6bcb      	ldr	r3, [r1, #60]	; 0x3c
24007732:	60c3      	str	r3, [r0, #12]
24007734:	6084      	str	r4, [r0, #8]
24007736:	d005      	beq.n	24007744 <HAL_MDMA_LinkedList_CreateNode+0xae>
24007738:	b2d2      	uxtb	r2, r2
2400773a:	6182      	str	r2, [r0, #24]
2400773c:	6c8a      	ldr	r2, [r1, #72]	; 0x48
2400773e:	6202      	str	r2, [r0, #32]
24007740:	6cca      	ldr	r2, [r1, #76]	; 0x4c
24007742:	6242      	str	r2, [r0, #36]	; 0x24
24007744:	f014 4f5f 	tst.w	r4, #3741319168	; 0xdf000000
24007748:	d103      	bne.n	24007752 <HAL_MDMA_LinkedList_CreateNode+0xbc>
2400774a:	6982      	ldr	r2, [r0, #24]
2400774c:	f442 3280 	orr.w	r2, r2, #65536	; 0x10000
24007750:	6182      	str	r2, [r0, #24]
24007752:	f013 435f 	ands.w	r3, r3, #3741319168	; 0xdf000000
24007756:	d103      	bne.n	24007760 <HAL_MDMA_LinkedList_CreateNode+0xca>
24007758:	6982      	ldr	r2, [r0, #24]
2400775a:	f442 3200 	orr.w	r2, r2, #131072	; 0x20000
2400775e:	6182      	str	r2, [r0, #24]
24007760:	2000      	movs	r0, #0
24007762:	e002      	b.n	2400776a <HAL_MDMA_LinkedList_CreateNode+0xd4>
24007764:	6904      	ldr	r4, [r0, #16]
24007766:	e7d8      	b.n	2400771a <HAL_MDMA_LinkedList_CreateNode+0x84>
24007768:	2001      	movs	r0, #1
2400776a:	bd10      	pop	{r4, pc}
2400776c:	6c8b      	ldr	r3, [r1, #72]	; 0x48
2400776e:	2b00      	cmp	r3, #0
24007770:	d1b8      	bne.n	240076e4 <HAL_MDMA_LinkedList_CreateNode+0x4e>
24007772:	e7bb      	b.n	240076ec <HAL_MDMA_LinkedList_CreateNode+0x56>

24007774 <HAL_MDMA_LinkedList_AddNode>:
24007774:	b5f0      	push	{r4, r5, r6, r7, lr}
24007776:	2800      	cmp	r0, #0
24007778:	d061      	beq.n	2400783e <HAL_MDMA_LinkedList_AddNode+0xca>
2400777a:	2900      	cmp	r1, #0
2400777c:	d05f      	beq.n	2400783e <HAL_MDMA_LinkedList_AddNode+0xca>
2400777e:	f890 303c 	ldrb.w	r3, [r0, #60]	; 0x3c
24007782:	2b01      	cmp	r3, #1
24007784:	d059      	beq.n	2400783a <HAL_MDMA_LinkedList_AddNode+0xc6>
24007786:	f890 403d 	ldrb.w	r4, [r0, #61]	; 0x3d
2400778a:	2301      	movs	r3, #1
2400778c:	2c01      	cmp	r4, #1
2400778e:	f880 303c 	strb.w	r3, [r0, #60]	; 0x3c
24007792:	b2e3      	uxtb	r3, r4
24007794:	f04f 0402 	mov.w	r4, #2
24007798:	d14c      	bne.n	24007834 <HAL_MDMA_LinkedList_AddNode+0xc0>
2400779a:	f880 403d 	strb.w	r4, [r0, #61]	; 0x3d
2400779e:	6dc4      	ldr	r4, [r0, #92]	; 0x5c
240077a0:	b97c      	cbnz	r4, 240077c2 <HAL_MDMA_LinkedList_AddNode+0x4e>
240077a2:	b932      	cbnz	r2, 240077b2 <HAL_MDMA_LinkedList_AddNode+0x3e>
240077a4:	6804      	ldr	r4, [r0, #0]
240077a6:	6261      	str	r1, [r4, #36]	; 0x24
240077a8:	65c1      	str	r1, [r0, #92]	; 0x5c
240077aa:	614a      	str	r2, [r1, #20]
240077ac:	e9c0 1318 	strd	r1, r3, [r0, #96]	; 0x60
240077b0:	4613      	mov	r3, r2
240077b2:	2200      	movs	r2, #0
240077b4:	f880 203c 	strb.w	r2, [r0, #60]	; 0x3c
240077b8:	2201      	movs	r2, #1
240077ba:	f880 203d 	strb.w	r2, [r0, #61]	; 0x3d
240077be:	4618      	mov	r0, r3
240077c0:	bdf0      	pop	{r4, r5, r6, r7, pc}
240077c2:	428c      	cmp	r4, r1
240077c4:	d0f5      	beq.n	240077b2 <HAL_MDMA_LinkedList_AddNode+0x3e>
240077c6:	2300      	movs	r3, #0
240077c8:	6e47      	ldr	r7, [r0, #100]	; 0x64
240077ca:	4626      	mov	r6, r4
240077cc:	461d      	mov	r5, r3
240077ce:	42af      	cmp	r7, r5
240077d0:	d00b      	beq.n	240077ea <HAL_MDMA_LinkedList_AddNode+0x76>
240077d2:	2b00      	cmp	r3, #0
240077d4:	d1ed      	bne.n	240077b2 <HAL_MDMA_LinkedList_AddNode+0x3e>
240077d6:	6973      	ldr	r3, [r6, #20]
240077d8:	3501      	adds	r5, #1
240077da:	6976      	ldr	r6, [r6, #20]
240077dc:	eba1 0c03 	sub.w	ip, r1, r3
240077e0:	f1dc 0300 	rsbs	r3, ip, #0
240077e4:	eb43 030c 	adc.w	r3, r3, ip
240077e8:	e7f1      	b.n	240077ce <HAL_MDMA_LinkedList_AddNode+0x5a>
240077ea:	2b00      	cmp	r3, #0
240077ec:	d1e1      	bne.n	240077b2 <HAL_MDMA_LinkedList_AddNode+0x3e>
240077ee:	6e06      	ldr	r6, [r0, #96]	; 0x60
240077f0:	4296      	cmp	r6, r2
240077f2:	d000      	beq.n	240077f6 <HAL_MDMA_LinkedList_AddNode+0x82>
240077f4:	b9c2      	cbnz	r2, 24007828 <HAL_MDMA_LinkedList_AddNode+0xb4>
240077f6:	6972      	ldr	r2, [r6, #20]
240077f8:	3501      	adds	r5, #1
240077fa:	614a      	str	r2, [r1, #20]
240077fc:	6171      	str	r1, [r6, #20]
240077fe:	6601      	str	r1, [r0, #96]	; 0x60
24007800:	6645      	str	r5, [r0, #100]	; 0x64
24007802:	e7d6      	b.n	240077b2 <HAL_MDMA_LinkedList_AddNode+0x3e>
24007804:	4294      	cmp	r4, r2
24007806:	f107 0701 	add.w	r7, r7, #1
2400780a:	d10b      	bne.n	24007824 <HAL_MDMA_LinkedList_AddNode+0xb0>
2400780c:	6966      	ldr	r6, [r4, #20]
2400780e:	3501      	adds	r5, #1
24007810:	614e      	str	r6, [r1, #20]
24007812:	2601      	movs	r6, #1
24007814:	6161      	str	r1, [r4, #20]
24007816:	6645      	str	r5, [r0, #100]	; 0x64
24007818:	6e45      	ldr	r5, [r0, #100]	; 0x64
2400781a:	42bd      	cmp	r5, r7
2400781c:	d907      	bls.n	2400782e <HAL_MDMA_LinkedList_AddNode+0xba>
2400781e:	2e00      	cmp	r6, #0
24007820:	d0f0      	beq.n	24007804 <HAL_MDMA_LinkedList_AddNode+0x90>
24007822:	e7c6      	b.n	240077b2 <HAL_MDMA_LinkedList_AddNode+0x3e>
24007824:	6964      	ldr	r4, [r4, #20]
24007826:	e7f7      	b.n	24007818 <HAL_MDMA_LinkedList_AddNode+0xa4>
24007828:	461e      	mov	r6, r3
2400782a:	461f      	mov	r7, r3
2400782c:	e7f4      	b.n	24007818 <HAL_MDMA_LinkedList_AddNode+0xa4>
2400782e:	f086 0301 	eor.w	r3, r6, #1
24007832:	e7be      	b.n	240077b2 <HAL_MDMA_LinkedList_AddNode+0x3e>
24007834:	2300      	movs	r3, #0
24007836:	f880 303c 	strb.w	r3, [r0, #60]	; 0x3c
2400783a:	2302      	movs	r3, #2
2400783c:	e7bf      	b.n	240077be <HAL_MDMA_LinkedList_AddNode+0x4a>
2400783e:	2301      	movs	r3, #1
24007840:	e7bd      	b.n	240077be <HAL_MDMA_LinkedList_AddNode+0x4a>

24007842 <HAL_MDMA_LinkedList_RemoveNode>:
24007842:	b570      	push	{r4, r5, r6, lr}
24007844:	2800      	cmp	r0, #0
24007846:	d056      	beq.n	240078f6 <HAL_MDMA_LinkedList_RemoveNode+0xb4>
24007848:	2900      	cmp	r1, #0
2400784a:	d054      	beq.n	240078f6 <HAL_MDMA_LinkedList_RemoveNode+0xb4>
2400784c:	f890 303c 	ldrb.w	r3, [r0, #60]	; 0x3c
24007850:	2b01      	cmp	r3, #1
24007852:	d04e      	beq.n	240078f2 <HAL_MDMA_LinkedList_RemoveNode+0xb0>
24007854:	f890 203d 	ldrb.w	r2, [r0, #61]	; 0x3d
24007858:	2301      	movs	r3, #1
2400785a:	2a01      	cmp	r2, #1
2400785c:	f880 303c 	strb.w	r3, [r0, #60]	; 0x3c
24007860:	b2d3      	uxtb	r3, r2
24007862:	f04f 0202 	mov.w	r2, #2
24007866:	d141      	bne.n	240078ec <HAL_MDMA_LinkedList_RemoveNode+0xaa>
24007868:	f880 203d 	strb.w	r2, [r0, #61]	; 0x3d
2400786c:	6dc2      	ldr	r2, [r0, #92]	; 0x5c
2400786e:	b172      	cbz	r2, 2400788e <HAL_MDMA_LinkedList_RemoveNode+0x4c>
24007870:	6e05      	ldr	r5, [r0, #96]	; 0x60
24007872:	b165      	cbz	r5, 2400788e <HAL_MDMA_LinkedList_RemoveNode+0x4c>
24007874:	6e44      	ldr	r4, [r0, #100]	; 0x64
24007876:	b154      	cbz	r4, 2400788e <HAL_MDMA_LinkedList_RemoveNode+0x4c>
24007878:	428a      	cmp	r2, r1
2400787a:	f04f 0300 	mov.w	r3, #0
2400787e:	d130      	bne.n	240078e2 <HAL_MDMA_LinkedList_RemoveNode+0xa0>
24007880:	4295      	cmp	r5, r2
24007882:	6806      	ldr	r6, [r0, #0]
24007884:	d10b      	bne.n	2400789e <HAL_MDMA_LinkedList_RemoveNode+0x5c>
24007886:	6643      	str	r3, [r0, #100]	; 0x64
24007888:	e9c0 3317 	strd	r3, r3, [r0, #92]	; 0x5c
2400788c:	6273      	str	r3, [r6, #36]	; 0x24
2400788e:	2200      	movs	r2, #0
24007890:	f880 203c 	strb.w	r2, [r0, #60]	; 0x3c
24007894:	2201      	movs	r2, #1
24007896:	f880 203d 	strb.w	r2, [r0, #61]	; 0x3d
2400789a:	4618      	mov	r0, r3
2400789c:	bd70      	pop	{r4, r5, r6, pc}
2400789e:	696b      	ldr	r3, [r5, #20]
240078a0:	4299      	cmp	r1, r3
240078a2:	d101      	bne.n	240078a8 <HAL_MDMA_LinkedList_RemoveNode+0x66>
240078a4:	694b      	ldr	r3, [r1, #20]
240078a6:	616b      	str	r3, [r5, #20]
240078a8:	694b      	ldr	r3, [r1, #20]
240078aa:	3c01      	subs	r4, #1
240078ac:	6273      	str	r3, [r6, #36]	; 0x24
240078ae:	6a73      	ldr	r3, [r6, #36]	; 0x24
240078b0:	6644      	str	r4, [r0, #100]	; 0x64
240078b2:	65c3      	str	r3, [r0, #92]	; 0x5c
240078b4:	2300      	movs	r3, #0
240078b6:	e7ea      	b.n	2400788e <HAL_MDMA_LinkedList_RemoveNode+0x4c>
240078b8:	6956      	ldr	r6, [r2, #20]
240078ba:	3501      	adds	r5, #1
240078bc:	42b1      	cmp	r1, r6
240078be:	d10e      	bne.n	240078de <HAL_MDMA_LinkedList_RemoveNode+0x9c>
240078c0:	6e03      	ldr	r3, [r0, #96]	; 0x60
240078c2:	3c01      	subs	r4, #1
240078c4:	428b      	cmp	r3, r1
240078c6:	694b      	ldr	r3, [r1, #20]
240078c8:	bf08      	it	eq
240078ca:	6602      	streq	r2, [r0, #96]	; 0x60
240078cc:	6153      	str	r3, [r2, #20]
240078ce:	2301      	movs	r3, #1
240078d0:	6644      	str	r4, [r0, #100]	; 0x64
240078d2:	6e44      	ldr	r4, [r0, #100]	; 0x64
240078d4:	42ac      	cmp	r4, r5
240078d6:	d906      	bls.n	240078e6 <HAL_MDMA_LinkedList_RemoveNode+0xa4>
240078d8:	2b00      	cmp	r3, #0
240078da:	d0ed      	beq.n	240078b8 <HAL_MDMA_LinkedList_RemoveNode+0x76>
240078dc:	e7ea      	b.n	240078b4 <HAL_MDMA_LinkedList_RemoveNode+0x72>
240078de:	6952      	ldr	r2, [r2, #20]
240078e0:	e7f7      	b.n	240078d2 <HAL_MDMA_LinkedList_RemoveNode+0x90>
240078e2:	461d      	mov	r5, r3
240078e4:	e7f5      	b.n	240078d2 <HAL_MDMA_LinkedList_RemoveNode+0x90>
240078e6:	f083 0301 	eor.w	r3, r3, #1
240078ea:	e7d0      	b.n	2400788e <HAL_MDMA_LinkedList_RemoveNode+0x4c>
240078ec:	2300      	movs	r3, #0
240078ee:	f880 303c 	strb.w	r3, [r0, #60]	; 0x3c
240078f2:	2302      	movs	r3, #2
240078f4:	e7d1      	b.n	2400789a <HAL_MDMA_LinkedList_RemoveNode+0x58>
240078f6:	2301      	movs	r3, #1
240078f8:	e7cf      	b.n	2400789a <HAL_MDMA_LinkedList_RemoveNode+0x58>

240078fa <HAL_MDMA_LinkedList_EnableCircularMode>:
240078fa:	b510      	push	{r4, lr}
240078fc:	b1f0      	cbz	r0, 2400793c <HAL_MDMA_LinkedList_EnableCircularMode+0x42>
240078fe:	f890 303c 	ldrb.w	r3, [r0, #60]	; 0x3c
24007902:	2b01      	cmp	r3, #1
24007904:	d01c      	beq.n	24007940 <HAL_MDMA_LinkedList_EnableCircularMode+0x46>
24007906:	f890 203d 	ldrb.w	r2, [r0, #61]	; 0x3d
2400790a:	2301      	movs	r3, #1
2400790c:	2a01      	cmp	r2, #1
2400790e:	f880 303c 	strb.w	r3, [r0, #60]	; 0x3c
24007912:	b2d3      	uxtb	r3, r2
24007914:	d109      	bne.n	2400792a <HAL_MDMA_LinkedList_EnableCircularMode+0x30>
24007916:	2202      	movs	r2, #2
24007918:	6dc1      	ldr	r1, [r0, #92]	; 0x5c
2400791a:	f880 203d 	strb.w	r2, [r0, #61]	; 0x3d
2400791e:	b129      	cbz	r1, 2400792c <HAL_MDMA_LinkedList_EnableCircularMode+0x32>
24007920:	6e02      	ldr	r2, [r0, #96]	; 0x60
24007922:	b11a      	cbz	r2, 2400792c <HAL_MDMA_LinkedList_EnableCircularMode+0x32>
24007924:	6e44      	ldr	r4, [r0, #100]	; 0x64
24007926:	b10c      	cbz	r4, 2400792c <HAL_MDMA_LinkedList_EnableCircularMode+0x32>
24007928:	6151      	str	r1, [r2, #20]
2400792a:	2300      	movs	r3, #0
2400792c:	2200      	movs	r2, #0
2400792e:	f880 203c 	strb.w	r2, [r0, #60]	; 0x3c
24007932:	2201      	movs	r2, #1
24007934:	f880 203d 	strb.w	r2, [r0, #61]	; 0x3d
24007938:	4618      	mov	r0, r3
2400793a:	bd10      	pop	{r4, pc}
2400793c:	2301      	movs	r3, #1
2400793e:	e7fb      	b.n	24007938 <HAL_MDMA_LinkedList_EnableCircularMode+0x3e>
24007940:	2302      	movs	r3, #2
24007942:	e7f9      	b.n	24007938 <HAL_MDMA_LinkedList_EnableCircularMode+0x3e>

24007944 <HAL_MDMA_LinkedList_DisableCircularMode>:
24007944:	b300      	cbz	r0, 24007988 <HAL_MDMA_LinkedList_DisableCircularMode+0x44>
24007946:	f890 303c 	ldrb.w	r3, [r0, #60]	; 0x3c
2400794a:	2b01      	cmp	r3, #1
2400794c:	d01e      	beq.n	2400798c <HAL_MDMA_LinkedList_DisableCircularMode+0x48>
2400794e:	f890 203d 	ldrb.w	r2, [r0, #61]	; 0x3d
24007952:	2301      	movs	r3, #1
24007954:	2a01      	cmp	r2, #1
24007956:	f880 303c 	strb.w	r3, [r0, #60]	; 0x3c
2400795a:	b2d3      	uxtb	r3, r2
2400795c:	d112      	bne.n	24007984 <HAL_MDMA_LinkedList_DisableCircularMode+0x40>
2400795e:	2202      	movs	r2, #2
24007960:	f880 203d 	strb.w	r2, [r0, #61]	; 0x3d
24007964:	6dc2      	ldr	r2, [r0, #92]	; 0x5c
24007966:	b12a      	cbz	r2, 24007974 <HAL_MDMA_LinkedList_DisableCircularMode+0x30>
24007968:	6e02      	ldr	r2, [r0, #96]	; 0x60
2400796a:	b11a      	cbz	r2, 24007974 <HAL_MDMA_LinkedList_DisableCircularMode+0x30>
2400796c:	6e41      	ldr	r1, [r0, #100]	; 0x64
2400796e:	b109      	cbz	r1, 24007974 <HAL_MDMA_LinkedList_DisableCircularMode+0x30>
24007970:	2300      	movs	r3, #0
24007972:	6153      	str	r3, [r2, #20]
24007974:	2200      	movs	r2, #0
24007976:	f880 203c 	strb.w	r2, [r0, #60]	; 0x3c
2400797a:	2201      	movs	r2, #1
2400797c:	f880 203d 	strb.w	r2, [r0, #61]	; 0x3d
24007980:	4618      	mov	r0, r3
24007982:	4770      	bx	lr
24007984:	2300      	movs	r3, #0
24007986:	e7f5      	b.n	24007974 <HAL_MDMA_LinkedList_DisableCircularMode+0x30>
24007988:	2301      	movs	r3, #1
2400798a:	e7f9      	b.n	24007980 <HAL_MDMA_LinkedList_DisableCircularMode+0x3c>
2400798c:	2302      	movs	r3, #2
2400798e:	e7f7      	b.n	24007980 <HAL_MDMA_LinkedList_DisableCircularMode+0x3c>

24007990 <HAL_MDMA_Start>:
24007990:	b5f7      	push	{r0, r1, r2, r4, r5, r6, r7, lr}
24007992:	b360      	cbz	r0, 240079ee <HAL_MDMA_Start+0x5e>
24007994:	f890 503c 	ldrb.w	r5, [r0, #60]	; 0x3c
24007998:	2d01      	cmp	r5, #1
2400799a:	d026      	beq.n	240079ea <HAL_MDMA_Start+0x5a>
2400799c:	2501      	movs	r5, #1
2400799e:	2602      	movs	r6, #2
240079a0:	f880 503c 	strb.w	r5, [r0, #60]	; 0x3c
240079a4:	f890 503d 	ldrb.w	r5, [r0, #61]	; 0x3d
240079a8:	2d01      	cmp	r5, #1
240079aa:	f04f 0500 	mov.w	r5, #0
240079ae:	d11a      	bne.n	240079e6 <HAL_MDMA_Start+0x56>
240079b0:	6807      	ldr	r7, [r0, #0]
240079b2:	f880 603d 	strb.w	r6, [r0, #61]	; 0x3d
240079b6:	6685      	str	r5, [r0, #104]	; 0x68
240079b8:	68fe      	ldr	r6, [r7, #12]
240079ba:	f026 0601 	bic.w	r6, r6, #1
240079be:	60fe      	str	r6, [r7, #12]
240079c0:	9e08      	ldr	r6, [sp, #32]
240079c2:	9600      	str	r6, [sp, #0]
240079c4:	f7ff fd24 	bl	24007410 <MDMA_SetConfig>
240079c8:	6803      	ldr	r3, [r0, #0]
240079ca:	68da      	ldr	r2, [r3, #12]
240079cc:	f042 0201 	orr.w	r2, r2, #1
240079d0:	60da      	str	r2, [r3, #12]
240079d2:	6842      	ldr	r2, [r0, #4]
240079d4:	f1b2 4f80 	cmp.w	r2, #1073741824	; 0x40000000
240079d8:	d103      	bne.n	240079e2 <HAL_MDMA_Start+0x52>
240079da:	68da      	ldr	r2, [r3, #12]
240079dc:	f442 3280 	orr.w	r2, r2, #65536	; 0x10000
240079e0:	60da      	str	r2, [r3, #12]
240079e2:	4628      	mov	r0, r5
240079e4:	e004      	b.n	240079f0 <HAL_MDMA_Start+0x60>
240079e6:	f880 503c 	strb.w	r5, [r0, #60]	; 0x3c
240079ea:	2002      	movs	r0, #2
240079ec:	e000      	b.n	240079f0 <HAL_MDMA_Start+0x60>
240079ee:	2001      	movs	r0, #1
240079f0:	b003      	add	sp, #12
240079f2:	bdf0      	pop	{r4, r5, r6, r7, pc}

240079f4 <HAL_MDMA_Start_IT>:
240079f4:	b573      	push	{r0, r1, r4, r5, r6, lr}
240079f6:	4604      	mov	r4, r0
240079f8:	2800      	cmp	r0, #0
240079fa:	d042      	beq.n	24007a82 <HAL_MDMA_Start_IT+0x8e>
240079fc:	f890 503c 	ldrb.w	r5, [r0, #60]	; 0x3c
24007a00:	2d01      	cmp	r5, #1
24007a02:	d03c      	beq.n	24007a7e <HAL_MDMA_Start_IT+0x8a>
24007a04:	2501      	movs	r5, #1
24007a06:	2600      	movs	r6, #0
24007a08:	f880 503c 	strb.w	r5, [r0, #60]	; 0x3c
24007a0c:	f890 503d 	ldrb.w	r5, [r0, #61]	; 0x3d
24007a10:	2d01      	cmp	r5, #1
24007a12:	f04f 0502 	mov.w	r5, #2
24007a16:	d130      	bne.n	24007a7a <HAL_MDMA_Start_IT+0x86>
24007a18:	f880 503d 	strb.w	r5, [r0, #61]	; 0x3d
24007a1c:	6686      	str	r6, [r0, #104]	; 0x68
24007a1e:	6806      	ldr	r6, [r0, #0]
24007a20:	68f5      	ldr	r5, [r6, #12]
24007a22:	f025 0501 	bic.w	r5, r5, #1
24007a26:	60f5      	str	r5, [r6, #12]
24007a28:	9d06      	ldr	r5, [sp, #24]
24007a2a:	9500      	str	r5, [sp, #0]
24007a2c:	f7ff fcf0 	bl	24007410 <MDMA_SetConfig>
24007a30:	6803      	ldr	r3, [r0, #0]
24007a32:	68da      	ldr	r2, [r3, #12]
24007a34:	f042 0206 	orr.w	r2, r2, #6
24007a38:	60da      	str	r2, [r3, #12]
24007a3a:	6cc2      	ldr	r2, [r0, #76]	; 0x4c
24007a3c:	b11a      	cbz	r2, 24007a46 <HAL_MDMA_Start_IT+0x52>
24007a3e:	68da      	ldr	r2, [r3, #12]
24007a40:	f042 0210 	orr.w	r2, r2, #16
24007a44:	60da      	str	r2, [r3, #12]
24007a46:	6d22      	ldr	r2, [r4, #80]	; 0x50
24007a48:	b11a      	cbz	r2, 24007a52 <HAL_MDMA_Start_IT+0x5e>
24007a4a:	68da      	ldr	r2, [r3, #12]
24007a4c:	f042 0208 	orr.w	r2, r2, #8
24007a50:	60da      	str	r2, [r3, #12]
24007a52:	6ca2      	ldr	r2, [r4, #72]	; 0x48
24007a54:	b11a      	cbz	r2, 24007a5e <HAL_MDMA_Start_IT+0x6a>
24007a56:	68da      	ldr	r2, [r3, #12]
24007a58:	f042 0220 	orr.w	r2, r2, #32
24007a5c:	60da      	str	r2, [r3, #12]
24007a5e:	68da      	ldr	r2, [r3, #12]
24007a60:	f042 0201 	orr.w	r2, r2, #1
24007a64:	60da      	str	r2, [r3, #12]
24007a66:	6862      	ldr	r2, [r4, #4]
24007a68:	f1b2 4f80 	cmp.w	r2, #1073741824	; 0x40000000
24007a6c:	d103      	bne.n	24007a76 <HAL_MDMA_Start_IT+0x82>
24007a6e:	68da      	ldr	r2, [r3, #12]
24007a70:	f442 3280 	orr.w	r2, r2, #65536	; 0x10000
24007a74:	60da      	str	r2, [r3, #12]
24007a76:	2000      	movs	r0, #0
24007a78:	e004      	b.n	24007a84 <HAL_MDMA_Start_IT+0x90>
24007a7a:	f880 603c 	strb.w	r6, [r0, #60]	; 0x3c
24007a7e:	2002      	movs	r0, #2
24007a80:	e000      	b.n	24007a84 <HAL_MDMA_Start_IT+0x90>
24007a82:	2001      	movs	r0, #1
24007a84:	b002      	add	sp, #8
24007a86:	bd70      	pop	{r4, r5, r6, pc}

24007a88 <HAL_MDMA_Abort>:
24007a88:	b538      	push	{r3, r4, r5, lr}
24007a8a:	4604      	mov	r4, r0
24007a8c:	f7f8 fe8a 	bl	240007a4 <HAL_GetTick>
24007a90:	4605      	mov	r5, r0
24007a92:	b144      	cbz	r4, 24007aa6 <HAL_MDMA_Abort+0x1e>
24007a94:	f894 303d 	ldrb.w	r3, [r4, #61]	; 0x3d
24007a98:	2b02      	cmp	r3, #2
24007a9a:	d006      	beq.n	24007aaa <HAL_MDMA_Abort+0x22>
24007a9c:	2380      	movs	r3, #128	; 0x80
24007a9e:	66a3      	str	r3, [r4, #104]	; 0x68
24007aa0:	2300      	movs	r3, #0
24007aa2:	f884 303c 	strb.w	r3, [r4, #60]	; 0x3c
24007aa6:	2001      	movs	r0, #1
24007aa8:	e015      	b.n	24007ad6 <HAL_MDMA_Abort+0x4e>
24007aaa:	6823      	ldr	r3, [r4, #0]
24007aac:	68da      	ldr	r2, [r3, #12]
24007aae:	f022 023e 	bic.w	r2, r2, #62	; 0x3e
24007ab2:	60da      	str	r2, [r3, #12]
24007ab4:	68da      	ldr	r2, [r3, #12]
24007ab6:	f022 0201 	bic.w	r2, r2, #1
24007aba:	60da      	str	r2, [r3, #12]
24007abc:	6822      	ldr	r2, [r4, #0]
24007abe:	68d3      	ldr	r3, [r2, #12]
24007ac0:	f013 0301 	ands.w	r3, r3, #1
24007ac4:	d108      	bne.n	24007ad8 <HAL_MDMA_Abort+0x50>
24007ac6:	211f      	movs	r1, #31
24007ac8:	4618      	mov	r0, r3
24007aca:	6051      	str	r1, [r2, #4]
24007acc:	2201      	movs	r2, #1
24007ace:	f884 303c 	strb.w	r3, [r4, #60]	; 0x3c
24007ad2:	f884 203d 	strb.w	r2, [r4, #61]	; 0x3d
24007ad6:	bd38      	pop	{r3, r4, r5, pc}
24007ad8:	f7f8 fe64 	bl	240007a4 <HAL_GetTick>
24007adc:	1b40      	subs	r0, r0, r5
24007ade:	2805      	cmp	r0, #5
24007ae0:	d9ec      	bls.n	24007abc <HAL_MDMA_Abort+0x34>
24007ae2:	6ea3      	ldr	r3, [r4, #104]	; 0x68
24007ae4:	f043 0340 	orr.w	r3, r3, #64	; 0x40
24007ae8:	66a3      	str	r3, [r4, #104]	; 0x68
24007aea:	2300      	movs	r3, #0
24007aec:	f884 303c 	strb.w	r3, [r4, #60]	; 0x3c
24007af0:	2303      	movs	r3, #3
24007af2:	f884 303d 	strb.w	r3, [r4, #61]	; 0x3d
24007af6:	e7d6      	b.n	24007aa6 <HAL_MDMA_Abort+0x1e>

24007af8 <HAL_MDMA_Abort_IT>:
24007af8:	b128      	cbz	r0, 24007b06 <HAL_MDMA_Abort_IT+0xe>
24007afa:	f890 303d 	ldrb.w	r3, [r0, #61]	; 0x3d
24007afe:	2b02      	cmp	r3, #2
24007b00:	d003      	beq.n	24007b0a <HAL_MDMA_Abort_IT+0x12>
24007b02:	2380      	movs	r3, #128	; 0x80
24007b04:	6683      	str	r3, [r0, #104]	; 0x68
24007b06:	2001      	movs	r0, #1
24007b08:	4770      	bx	lr
24007b0a:	6802      	ldr	r2, [r0, #0]
24007b0c:	2304      	movs	r3, #4
24007b0e:	f880 303d 	strb.w	r3, [r0, #61]	; 0x3d
24007b12:	2000      	movs	r0, #0
24007b14:	68d3      	ldr	r3, [r2, #12]
24007b16:	f023 0301 	bic.w	r3, r3, #1
24007b1a:	60d3      	str	r3, [r2, #12]
24007b1c:	4770      	bx	lr

24007b1e <HAL_MDMA_PollForTransfer>:
24007b1e:	e92d 41f0 	stmdb	sp!, {r4, r5, r6, r7, r8, lr}
24007b22:	460d      	mov	r5, r1
24007b24:	4617      	mov	r7, r2
24007b26:	4604      	mov	r4, r0
24007b28:	b918      	cbnz	r0, 24007b32 <HAL_MDMA_PollForTransfer+0x14>
24007b2a:	2501      	movs	r5, #1
24007b2c:	4628      	mov	r0, r5
24007b2e:	e8bd 81f0 	ldmia.w	sp!, {r4, r5, r6, r7, r8, pc}
24007b32:	f890 303d 	ldrb.w	r3, [r0, #61]	; 0x3d
24007b36:	2b02      	cmp	r3, #2
24007b38:	b2de      	uxtb	r6, r3
24007b3a:	d002      	beq.n	24007b42 <HAL_MDMA_PollForTransfer+0x24>
24007b3c:	2380      	movs	r3, #128	; 0x80
24007b3e:	6683      	str	r3, [r0, #104]	; 0x68
24007b40:	e7f3      	b.n	24007b2a <HAL_MDMA_PollForTransfer+0xc>
24007b42:	b129      	cbz	r1, 24007b50 <HAL_MDMA_PollForTransfer+0x32>
24007b44:	2901      	cmp	r1, #1
24007b46:	d010      	beq.n	24007b6a <HAL_MDMA_PollForTransfer+0x4c>
24007b48:	2902      	cmp	r1, #2
24007b4a:	bf0c      	ite	eq
24007b4c:	2608      	moveq	r6, #8
24007b4e:	2604      	movne	r6, #4
24007b50:	f7f8 fe28 	bl	240007a4 <HAL_GetTick>
24007b54:	4680      	mov	r8, r0
24007b56:	6823      	ldr	r3, [r4, #0]
24007b58:	681a      	ldr	r2, [r3, #0]
24007b5a:	4232      	tst	r2, r6
24007b5c:	d007      	beq.n	24007b6e <HAL_MDMA_PollForTransfer+0x50>
24007b5e:	2d01      	cmp	r5, #1
24007b60:	d13b      	bne.n	24007bda <HAL_MDMA_PollForTransfer+0xbc>
24007b62:	2210      	movs	r2, #16
24007b64:	2500      	movs	r5, #0
24007b66:	605a      	str	r2, [r3, #4]
24007b68:	e7e0      	b.n	24007b2c <HAL_MDMA_PollForTransfer+0xe>
24007b6a:	2610      	movs	r6, #16
24007b6c:	e7f0      	b.n	24007b50 <HAL_MDMA_PollForTransfer+0x32>
24007b6e:	681a      	ldr	r2, [r3, #0]
24007b70:	07d2      	lsls	r2, r2, #31
24007b72:	d524      	bpl.n	24007bbe <HAL_MDMA_PollForTransfer+0xa0>
24007b74:	689b      	ldr	r3, [r3, #8]
24007b76:	6ea2      	ldr	r2, [r4, #104]	; 0x68
24007b78:	061f      	lsls	r7, r3, #24
24007b7a:	bf54      	ite	pl
24007b7c:	f042 0201 	orrpl.w	r2, r2, #1
24007b80:	f042 0202 	orrmi.w	r2, r2, #2
24007b84:	059e      	lsls	r6, r3, #22
24007b86:	66a2      	str	r2, [r4, #104]	; 0x68
24007b88:	d503      	bpl.n	24007b92 <HAL_MDMA_PollForTransfer+0x74>
24007b8a:	6ea2      	ldr	r2, [r4, #104]	; 0x68
24007b8c:	f042 0204 	orr.w	r2, r2, #4
24007b90:	66a2      	str	r2, [r4, #104]	; 0x68
24007b92:	05dd      	lsls	r5, r3, #23
24007b94:	d503      	bpl.n	24007b9e <HAL_MDMA_PollForTransfer+0x80>
24007b96:	6ea2      	ldr	r2, [r4, #104]	; 0x68
24007b98:	f042 0208 	orr.w	r2, r2, #8
24007b9c:	66a2      	str	r2, [r4, #104]	; 0x68
24007b9e:	0558      	lsls	r0, r3, #21
24007ba0:	d503      	bpl.n	24007baa <HAL_MDMA_PollForTransfer+0x8c>
24007ba2:	6ea2      	ldr	r2, [r4, #104]	; 0x68
24007ba4:	f042 0210 	orr.w	r2, r2, #16
24007ba8:	66a2      	str	r2, [r4, #104]	; 0x68
24007baa:	0519      	lsls	r1, r3, #20
24007bac:	d503      	bpl.n	24007bb6 <HAL_MDMA_PollForTransfer+0x98>
24007bae:	6ea3      	ldr	r3, [r4, #104]	; 0x68
24007bb0:	f043 0320 	orr.w	r3, r3, #32
24007bb4:	66a3      	str	r3, [r4, #104]	; 0x68
24007bb6:	4620      	mov	r0, r4
24007bb8:	f7ff ff66 	bl	24007a88 <HAL_MDMA_Abort>
24007bbc:	e7b5      	b.n	24007b2a <HAL_MDMA_PollForTransfer+0xc>
24007bbe:	1c7a      	adds	r2, r7, #1
24007bc0:	d0ca      	beq.n	24007b58 <HAL_MDMA_PollForTransfer+0x3a>
24007bc2:	f7f8 fdef 	bl	240007a4 <HAL_GetTick>
24007bc6:	eba0 0008 	sub.w	r0, r0, r8
24007bca:	42b8      	cmp	r0, r7
24007bcc:	d801      	bhi.n	24007bd2 <HAL_MDMA_PollForTransfer+0xb4>
24007bce:	2f00      	cmp	r7, #0
24007bd0:	d1c1      	bne.n	24007b56 <HAL_MDMA_PollForTransfer+0x38>
24007bd2:	6ea3      	ldr	r3, [r4, #104]	; 0x68
24007bd4:	f043 0340 	orr.w	r3, r3, #64	; 0x40
24007bd8:	e7ec      	b.n	24007bb4 <HAL_MDMA_PollForTransfer+0x96>
24007bda:	2d02      	cmp	r5, #2
24007bdc:	d101      	bne.n	24007be2 <HAL_MDMA_PollForTransfer+0xc4>
24007bde:	2218      	movs	r2, #24
24007be0:	e7c0      	b.n	24007b64 <HAL_MDMA_PollForTransfer+0x46>
24007be2:	2d03      	cmp	r5, #3
24007be4:	d101      	bne.n	24007bea <HAL_MDMA_PollForTransfer+0xcc>
24007be6:	221c      	movs	r2, #28
24007be8:	e7bc      	b.n	24007b64 <HAL_MDMA_PollForTransfer+0x46>
24007bea:	2d00      	cmp	r5, #0
24007bec:	d19d      	bne.n	24007b2a <HAL_MDMA_PollForTransfer+0xc>
24007bee:	221e      	movs	r2, #30
24007bf0:	605a      	str	r2, [r3, #4]
24007bf2:	2301      	movs	r3, #1
24007bf4:	f884 503c 	strb.w	r5, [r4, #60]	; 0x3c
24007bf8:	f884 303d 	strb.w	r3, [r4, #61]	; 0x3d
24007bfc:	e796      	b.n	24007b2c <HAL_MDMA_PollForTransfer+0xe>

24007bfe <HAL_MDMA_GenerateSWRequest>:
24007bfe:	b130      	cbz	r0, 24007c0e <HAL_MDMA_GenerateSWRequest+0x10>
24007c00:	6802      	ldr	r2, [r0, #0]
24007c02:	6911      	ldr	r1, [r2, #16]
24007c04:	68d3      	ldr	r3, [r2, #12]
24007c06:	07db      	lsls	r3, r3, #31
24007c08:	d403      	bmi.n	24007c12 <HAL_MDMA_GenerateSWRequest+0x14>
24007c0a:	2380      	movs	r3, #128	; 0x80
24007c0c:	6683      	str	r3, [r0, #104]	; 0x68
24007c0e:	2001      	movs	r0, #1
24007c10:	4770      	bx	lr
24007c12:	6813      	ldr	r3, [r2, #0]
24007c14:	f413 3380 	ands.w	r3, r3, #65536	; 0x10000
24007c18:	d101      	bne.n	24007c1e <HAL_MDMA_GenerateSWRequest+0x20>
24007c1a:	0049      	lsls	r1, r1, #1
24007c1c:	d402      	bmi.n	24007c24 <HAL_MDMA_GenerateSWRequest+0x26>
24007c1e:	f44f 7380 	mov.w	r3, #256	; 0x100
24007c22:	e7f3      	b.n	24007c0c <HAL_MDMA_GenerateSWRequest+0xe>
24007c24:	68d1      	ldr	r1, [r2, #12]
24007c26:	4618      	mov	r0, r3
24007c28:	f441 3180 	orr.w	r1, r1, #65536	; 0x10000
24007c2c:	60d1      	str	r1, [r2, #12]
24007c2e:	4770      	bx	lr

24007c30 <HAL_MDMA_IRQHandler>:
24007c30:	2300      	movs	r3, #0
24007c32:	b537      	push	{r0, r1, r2, r4, r5, lr}
24007c34:	f04f 42a4 	mov.w	r2, #1375731712	; 0x52000000
24007c38:	9301      	str	r3, [sp, #4]
24007c3a:	6803      	ldr	r3, [r0, #0]
24007c3c:	4604      	mov	r4, r0
24007c3e:	6810      	ldr	r0, [r2, #0]
24007c40:	2101      	movs	r1, #1
24007c42:	f103 422e 	add.w	r2, r3, #2919235584	; 0xae000000
24007c46:	3a40      	subs	r2, #64	; 0x40
24007c48:	f3c2 1284 	ubfx	r2, r2, #6, #5
24007c4c:	fa01 f202 	lsl.w	r2, r1, r2
24007c50:	4202      	tst	r2, r0
24007c52:	f000 80a0 	beq.w	24007d96 <HAL_MDMA_IRQHandler+0x166>
24007c56:	4a51      	ldr	r2, [pc, #324]	; (24007d9c <HAL_MDMA_IRQHandler+0x16c>)
24007c58:	6815      	ldr	r5, [r2, #0]
24007c5a:	681a      	ldr	r2, [r3, #0]
24007c5c:	07d1      	lsls	r1, r2, #31
24007c5e:	d529      	bpl.n	24007cb4 <HAL_MDMA_IRQHandler+0x84>
24007c60:	68da      	ldr	r2, [r3, #12]
24007c62:	0792      	lsls	r2, r2, #30
24007c64:	d526      	bpl.n	24007cb4 <HAL_MDMA_IRQHandler+0x84>
24007c66:	68da      	ldr	r2, [r3, #12]
24007c68:	f022 0202 	bic.w	r2, r2, #2
24007c6c:	60da      	str	r2, [r3, #12]
24007c6e:	689a      	ldr	r2, [r3, #8]
24007c70:	6ea1      	ldr	r1, [r4, #104]	; 0x68
24007c72:	0610      	lsls	r0, r2, #24
24007c74:	bf54      	ite	pl
24007c76:	f041 0101 	orrpl.w	r1, r1, #1
24007c7a:	f041 0102 	orrmi.w	r1, r1, #2
24007c7e:	66a1      	str	r1, [r4, #104]	; 0x68
24007c80:	0591      	lsls	r1, r2, #22
24007c82:	d503      	bpl.n	24007c8c <HAL_MDMA_IRQHandler+0x5c>
24007c84:	6ea1      	ldr	r1, [r4, #104]	; 0x68
24007c86:	f041 0104 	orr.w	r1, r1, #4
24007c8a:	66a1      	str	r1, [r4, #104]	; 0x68
24007c8c:	05d0      	lsls	r0, r2, #23
24007c8e:	d503      	bpl.n	24007c98 <HAL_MDMA_IRQHandler+0x68>
24007c90:	6ea1      	ldr	r1, [r4, #104]	; 0x68
24007c92:	f041 0108 	orr.w	r1, r1, #8
24007c96:	66a1      	str	r1, [r4, #104]	; 0x68
24007c98:	0551      	lsls	r1, r2, #21
24007c9a:	d503      	bpl.n	24007ca4 <HAL_MDMA_IRQHandler+0x74>
24007c9c:	6ea1      	ldr	r1, [r4, #104]	; 0x68
24007c9e:	f041 0110 	orr.w	r1, r1, #16
24007ca2:	66a1      	str	r1, [r4, #104]	; 0x68
24007ca4:	0512      	lsls	r2, r2, #20
24007ca6:	d503      	bpl.n	24007cb0 <HAL_MDMA_IRQHandler+0x80>
24007ca8:	6ea2      	ldr	r2, [r4, #104]	; 0x68
24007caa:	f042 0220 	orr.w	r2, r2, #32
24007cae:	66a2      	str	r2, [r4, #104]	; 0x68
24007cb0:	2201      	movs	r2, #1
24007cb2:	605a      	str	r2, [r3, #4]
24007cb4:	681a      	ldr	r2, [r3, #0]
24007cb6:	06d0      	lsls	r0, r2, #27
24007cb8:	d508      	bpl.n	24007ccc <HAL_MDMA_IRQHandler+0x9c>
24007cba:	68da      	ldr	r2, [r3, #12]
24007cbc:	0691      	lsls	r1, r2, #26
24007cbe:	d505      	bpl.n	24007ccc <HAL_MDMA_IRQHandler+0x9c>
24007cc0:	2210      	movs	r2, #16
24007cc2:	605a      	str	r2, [r3, #4]
24007cc4:	6ca3      	ldr	r3, [r4, #72]	; 0x48
24007cc6:	b10b      	cbz	r3, 24007ccc <HAL_MDMA_IRQHandler+0x9c>
24007cc8:	4620      	mov	r0, r4
24007cca:	4798      	blx	r3
24007ccc:	6823      	ldr	r3, [r4, #0]
24007cce:	681a      	ldr	r2, [r3, #0]
24007cd0:	0712      	lsls	r2, r2, #28
24007cd2:	d508      	bpl.n	24007ce6 <HAL_MDMA_IRQHandler+0xb6>
24007cd4:	68da      	ldr	r2, [r3, #12]
24007cd6:	06d0      	lsls	r0, r2, #27
24007cd8:	d505      	bpl.n	24007ce6 <HAL_MDMA_IRQHandler+0xb6>
24007cda:	2208      	movs	r2, #8
24007cdc:	605a      	str	r2, [r3, #4]
24007cde:	6ce3      	ldr	r3, [r4, #76]	; 0x4c
24007ce0:	b10b      	cbz	r3, 24007ce6 <HAL_MDMA_IRQHandler+0xb6>
24007ce2:	4620      	mov	r0, r4
24007ce4:	4798      	blx	r3
24007ce6:	6823      	ldr	r3, [r4, #0]
24007ce8:	681a      	ldr	r2, [r3, #0]
24007cea:	0751      	lsls	r1, r2, #29
24007cec:	d508      	bpl.n	24007d00 <HAL_MDMA_IRQHandler+0xd0>
24007cee:	68da      	ldr	r2, [r3, #12]
24007cf0:	0712      	lsls	r2, r2, #28
24007cf2:	d505      	bpl.n	24007d00 <HAL_MDMA_IRQHandler+0xd0>
24007cf4:	2204      	movs	r2, #4
24007cf6:	605a      	str	r2, [r3, #4]
24007cf8:	6d23      	ldr	r3, [r4, #80]	; 0x50
24007cfa:	b10b      	cbz	r3, 24007d00 <HAL_MDMA_IRQHandler+0xd0>
24007cfc:	4620      	mov	r0, r4
24007cfe:	4798      	blx	r3
24007d00:	6823      	ldr	r3, [r4, #0]
24007d02:	681a      	ldr	r2, [r3, #0]
24007d04:	0790      	lsls	r0, r2, #30
24007d06:	d524      	bpl.n	24007d52 <HAL_MDMA_IRQHandler+0x122>
24007d08:	68da      	ldr	r2, [r3, #12]
24007d0a:	0751      	lsls	r1, r2, #29
24007d0c:	d521      	bpl.n	24007d52 <HAL_MDMA_IRQHandler+0x122>
24007d0e:	68da      	ldr	r2, [r3, #12]
24007d10:	f022 023e 	bic.w	r2, r2, #62	; 0x3e
24007d14:	60da      	str	r2, [r3, #12]
24007d16:	f894 203d 	ldrb.w	r2, [r4, #61]	; 0x3d
24007d1a:	2a04      	cmp	r2, #4
24007d1c:	f04f 0200 	mov.w	r2, #0
24007d20:	d10c      	bne.n	24007d3c <HAL_MDMA_IRQHandler+0x10c>
24007d22:	2301      	movs	r3, #1
24007d24:	f884 203c 	strb.w	r2, [r4, #60]	; 0x3c
24007d28:	f884 303d 	strb.w	r3, [r4, #61]	; 0x3d
24007d2c:	6da3      	ldr	r3, [r4, #88]	; 0x58
24007d2e:	2b00      	cmp	r3, #0
24007d30:	d031      	beq.n	24007d96 <HAL_MDMA_IRQHandler+0x166>
24007d32:	4620      	mov	r0, r4
24007d34:	b003      	add	sp, #12
24007d36:	e8bd 4030 	ldmia.w	sp!, {r4, r5, lr}
24007d3a:	4718      	bx	r3
24007d3c:	2102      	movs	r1, #2
24007d3e:	6059      	str	r1, [r3, #4]
24007d40:	2301      	movs	r3, #1
24007d42:	f884 203c 	strb.w	r2, [r4, #60]	; 0x3c
24007d46:	f884 303d 	strb.w	r3, [r4, #61]	; 0x3d
24007d4a:	6c63      	ldr	r3, [r4, #68]	; 0x44
24007d4c:	b10b      	cbz	r3, 24007d52 <HAL_MDMA_IRQHandler+0x122>
24007d4e:	4620      	mov	r0, r4
24007d50:	4798      	blx	r3
24007d52:	6ea3      	ldr	r3, [r4, #104]	; 0x68
24007d54:	b1fb      	cbz	r3, 24007d96 <HAL_MDMA_IRQHandler+0x166>
24007d56:	f44f 5316 	mov.w	r3, #9600	; 0x2580
24007d5a:	fbb5 f5f3 	udiv	r5, r5, r3
24007d5e:	2304      	movs	r3, #4
24007d60:	f884 303d 	strb.w	r3, [r4, #61]	; 0x3d
24007d64:	6823      	ldr	r3, [r4, #0]
24007d66:	68da      	ldr	r2, [r3, #12]
24007d68:	f022 0201 	bic.w	r2, r2, #1
24007d6c:	60da      	str	r2, [r3, #12]
24007d6e:	9a01      	ldr	r2, [sp, #4]
24007d70:	3201      	adds	r2, #1
24007d72:	42aa      	cmp	r2, r5
24007d74:	9201      	str	r2, [sp, #4]
24007d76:	d802      	bhi.n	24007d7e <HAL_MDMA_IRQHandler+0x14e>
24007d78:	68da      	ldr	r2, [r3, #12]
24007d7a:	07d2      	lsls	r2, r2, #31
24007d7c:	d4f7      	bmi.n	24007d6e <HAL_MDMA_IRQHandler+0x13e>
24007d7e:	2200      	movs	r2, #0
24007d80:	f884 203c 	strb.w	r2, [r4, #60]	; 0x3c
24007d84:	68db      	ldr	r3, [r3, #12]
24007d86:	07db      	lsls	r3, r3, #31
24007d88:	bf4c      	ite	mi
24007d8a:	2303      	movmi	r3, #3
24007d8c:	2301      	movpl	r3, #1
24007d8e:	f884 303d 	strb.w	r3, [r4, #61]	; 0x3d
24007d92:	6d63      	ldr	r3, [r4, #84]	; 0x54
24007d94:	e7cb      	b.n	24007d2e <HAL_MDMA_IRQHandler+0xfe>
24007d96:	b003      	add	sp, #12
24007d98:	bd30      	pop	{r4, r5, pc}
24007d9a:	bf00      	nop
24007d9c:	240004b8 	.word	0x240004b8

24007da0 <HAL_MDMA_GetState>:
24007da0:	f890 003d 	ldrb.w	r0, [r0, #61]	; 0x3d
24007da4:	4770      	bx	lr

24007da6 <HAL_MDMA_GetError>:
24007da6:	6e80      	ldr	r0, [r0, #104]	; 0x68
24007da8:	4770      	bx	lr

24007daa <HAL_PWR_DeInit>:
24007daa:	4770      	bx	lr

24007dac <HAL_PWR_EnableBkUpAccess>:
24007dac:	4a02      	ldr	r2, [pc, #8]	; (24007db8 <HAL_PWR_EnableBkUpAccess+0xc>)
24007dae:	6813      	ldr	r3, [r2, #0]
24007db0:	f443 7380 	orr.w	r3, r3, #256	; 0x100
24007db4:	6013      	str	r3, [r2, #0]
24007db6:	4770      	bx	lr
24007db8:	58024800 	.word	0x58024800

24007dbc <HAL_PWR_DisableBkUpAccess>:
24007dbc:	4a02      	ldr	r2, [pc, #8]	; (24007dc8 <HAL_PWR_DisableBkUpAccess+0xc>)
24007dbe:	6813      	ldr	r3, [r2, #0]
24007dc0:	f423 7380 	bic.w	r3, r3, #256	; 0x100
24007dc4:	6013      	str	r3, [r2, #0]
24007dc6:	4770      	bx	lr
24007dc8:	58024800 	.word	0x58024800

24007dcc <HAL_PWR_ConfigPVD>:
24007dcc:	2800      	cmp	r0, #0
24007dce:	d03f      	beq.n	24007e50 <HAL_PWR_ConfigPVD+0x84>
24007dd0:	4a20      	ldr	r2, [pc, #128]	; (24007e54 <HAL_PWR_ConfigPVD+0x88>)
24007dd2:	6801      	ldr	r1, [r0, #0]
24007dd4:	6813      	ldr	r3, [r2, #0]
24007dd6:	f023 03e0 	bic.w	r3, r3, #224	; 0xe0
24007dda:	430b      	orrs	r3, r1
24007ddc:	6013      	str	r3, [r2, #0]
24007dde:	f04f 43b0 	mov.w	r3, #1476395008	; 0x58000000
24007de2:	f8d3 2084 	ldr.w	r2, [r3, #132]	; 0x84
24007de6:	f422 3280 	bic.w	r2, r2, #65536	; 0x10000
24007dea:	f8c3 2084 	str.w	r2, [r3, #132]	; 0x84
24007dee:	f8d3 2080 	ldr.w	r2, [r3, #128]	; 0x80
24007df2:	f422 3280 	bic.w	r2, r2, #65536	; 0x10000
24007df6:	f8c3 2080 	str.w	r2, [r3, #128]	; 0x80
24007dfa:	681a      	ldr	r2, [r3, #0]
24007dfc:	f422 3280 	bic.w	r2, r2, #65536	; 0x10000
24007e00:	601a      	str	r2, [r3, #0]
24007e02:	685a      	ldr	r2, [r3, #4]
24007e04:	f422 3280 	bic.w	r2, r2, #65536	; 0x10000
24007e08:	605a      	str	r2, [r3, #4]
24007e0a:	6842      	ldr	r2, [r0, #4]
24007e0c:	03d1      	lsls	r1, r2, #15
24007e0e:	d505      	bpl.n	24007e1c <HAL_PWR_ConfigPVD+0x50>
24007e10:	f8d3 1080 	ldr.w	r1, [r3, #128]	; 0x80
24007e14:	f441 3180 	orr.w	r1, r1, #65536	; 0x10000
24007e18:	f8c3 1080 	str.w	r1, [r3, #128]	; 0x80
24007e1c:	0390      	lsls	r0, r2, #14
24007e1e:	d507      	bpl.n	24007e30 <HAL_PWR_ConfigPVD+0x64>
24007e20:	f04f 41b0 	mov.w	r1, #1476395008	; 0x58000000
24007e24:	f8d1 3084 	ldr.w	r3, [r1, #132]	; 0x84
24007e28:	f443 3380 	orr.w	r3, r3, #65536	; 0x10000
24007e2c:	f8c1 3084 	str.w	r3, [r1, #132]	; 0x84
24007e30:	07d1      	lsls	r1, r2, #31
24007e32:	d505      	bpl.n	24007e40 <HAL_PWR_ConfigPVD+0x74>
24007e34:	f04f 41b0 	mov.w	r1, #1476395008	; 0x58000000
24007e38:	680b      	ldr	r3, [r1, #0]
24007e3a:	f443 3380 	orr.w	r3, r3, #65536	; 0x10000
24007e3e:	600b      	str	r3, [r1, #0]
24007e40:	0793      	lsls	r3, r2, #30
24007e42:	d505      	bpl.n	24007e50 <HAL_PWR_ConfigPVD+0x84>
24007e44:	f04f 42b0 	mov.w	r2, #1476395008	; 0x58000000
24007e48:	6853      	ldr	r3, [r2, #4]
24007e4a:	f443 3380 	orr.w	r3, r3, #65536	; 0x10000
24007e4e:	6053      	str	r3, [r2, #4]
24007e50:	4770      	bx	lr
24007e52:	bf00      	nop
24007e54:	58024800 	.word	0x58024800

24007e58 <HAL_PWR_EnablePVD>:
24007e58:	4a02      	ldr	r2, [pc, #8]	; (24007e64 <HAL_PWR_EnablePVD+0xc>)
24007e5a:	6813      	ldr	r3, [r2, #0]
24007e5c:	f043 0310 	orr.w	r3, r3, #16
24007e60:	6013      	str	r3, [r2, #0]
24007e62:	4770      	bx	lr
24007e64:	58024800 	.word	0x58024800

24007e68 <HAL_PWR_DisablePVD>:
24007e68:	4a02      	ldr	r2, [pc, #8]	; (24007e74 <HAL_PWR_DisablePVD+0xc>)
24007e6a:	6813      	ldr	r3, [r2, #0]
24007e6c:	f023 0310 	bic.w	r3, r3, #16
24007e70:	6013      	str	r3, [r2, #0]
24007e72:	4770      	bx	lr
24007e74:	58024800 	.word	0x58024800

24007e78 <HAL_PWR_EnableWakeUpPin>:
24007e78:	4a03      	ldr	r2, [pc, #12]	; (24007e88 <HAL_PWR_EnableWakeUpPin+0x10>)
24007e7a:	4b04      	ldr	r3, [pc, #16]	; (24007e8c <HAL_PWR_EnableWakeUpPin+0x14>)
24007e7c:	6a91      	ldr	r1, [r2, #40]	; 0x28
24007e7e:	400b      	ands	r3, r1
24007e80:	4318      	orrs	r0, r3
24007e82:	6290      	str	r0, [r2, #40]	; 0x28
24007e84:	4770      	bx	lr
24007e86:	bf00      	nop
24007e88:	58024800 	.word	0x58024800
24007e8c:	f000c0c0 	.word	0xf000c0c0

24007e90 <HAL_PWR_DisableWakeUpPin>:
24007e90:	4a03      	ldr	r2, [pc, #12]	; (24007ea0 <HAL_PWR_DisableWakeUpPin+0x10>)
24007e92:	f000 003f 	and.w	r0, r0, #63	; 0x3f
24007e96:	6a93      	ldr	r3, [r2, #40]	; 0x28
24007e98:	ea23 0300 	bic.w	r3, r3, r0
24007e9c:	6293      	str	r3, [r2, #40]	; 0x28
24007e9e:	4770      	bx	lr
24007ea0:	58024800 	.word	0x58024800

24007ea4 <HAL_PWR_EnterSLEEPMode>:
24007ea4:	4a05      	ldr	r2, [pc, #20]	; (24007ebc <HAL_PWR_EnterSLEEPMode+0x18>)
24007ea6:	2901      	cmp	r1, #1
24007ea8:	6913      	ldr	r3, [r2, #16]
24007eaa:	f023 0304 	bic.w	r3, r3, #4
24007eae:	6113      	str	r3, [r2, #16]
24007eb0:	d101      	bne.n	24007eb6 <HAL_PWR_EnterSLEEPMode+0x12>
24007eb2:	bf30      	wfi
24007eb4:	4770      	bx	lr
24007eb6:	bf20      	wfe
24007eb8:	4770      	bx	lr
24007eba:	bf00      	nop
24007ebc:	e000ed00 	.word	0xe000ed00

24007ec0 <HAL_PWR_EnterSTOPMode>:
24007ec0:	4b10      	ldr	r3, [pc, #64]	; (24007f04 <HAL_PWR_EnterSTOPMode+0x44>)
24007ec2:	681a      	ldr	r2, [r3, #0]
24007ec4:	f022 0201 	bic.w	r2, r2, #1
24007ec8:	4310      	orrs	r0, r2
24007eca:	6018      	str	r0, [r3, #0]
24007ecc:	691a      	ldr	r2, [r3, #16]
24007ece:	f022 0205 	bic.w	r2, r2, #5
24007ed2:	611a      	str	r2, [r3, #16]
24007ed4:	691a      	ldr	r2, [r3, #16]
24007ed6:	f022 0202 	bic.w	r2, r2, #2
24007eda:	611a      	str	r2, [r3, #16]
24007edc:	4b0a      	ldr	r3, [pc, #40]	; (24007f08 <HAL_PWR_EnterSTOPMode+0x48>)
24007ede:	691a      	ldr	r2, [r3, #16]
24007ee0:	f042 0204 	orr.w	r2, r2, #4
24007ee4:	611a      	str	r2, [r3, #16]
24007ee6:	f3bf 8f4f 	dsb	sy
24007eea:	f3bf 8f6f 	isb	sy
24007eee:	2901      	cmp	r1, #1
24007ef0:	d105      	bne.n	24007efe <HAL_PWR_EnterSTOPMode+0x3e>
24007ef2:	bf30      	wfi
24007ef4:	691a      	ldr	r2, [r3, #16]
24007ef6:	f022 0204 	bic.w	r2, r2, #4
24007efa:	611a      	str	r2, [r3, #16]
24007efc:	4770      	bx	lr
24007efe:	bf20      	wfe
24007f00:	e7f8      	b.n	24007ef4 <HAL_PWR_EnterSTOPMode+0x34>
24007f02:	bf00      	nop
24007f04:	58024800 	.word	0x58024800
24007f08:	e000ed00 	.word	0xe000ed00

24007f0c <HAL_PWR_EnterSTANDBYMode>:
24007f0c:	4b09      	ldr	r3, [pc, #36]	; (24007f34 <HAL_PWR_EnterSTANDBYMode+0x28>)
24007f0e:	691a      	ldr	r2, [r3, #16]
24007f10:	f042 0205 	orr.w	r2, r2, #5
24007f14:	611a      	str	r2, [r3, #16]
24007f16:	691a      	ldr	r2, [r3, #16]
24007f18:	f042 0202 	orr.w	r2, r2, #2
24007f1c:	611a      	str	r2, [r3, #16]
24007f1e:	4a06      	ldr	r2, [pc, #24]	; (24007f38 <HAL_PWR_EnterSTANDBYMode+0x2c>)
24007f20:	6913      	ldr	r3, [r2, #16]
24007f22:	f043 0304 	orr.w	r3, r3, #4
24007f26:	6113      	str	r3, [r2, #16]
24007f28:	f3bf 8f4f 	dsb	sy
24007f2c:	f3bf 8f6f 	isb	sy
24007f30:	bf30      	wfi
24007f32:	4770      	bx	lr
24007f34:	58024800 	.word	0x58024800
24007f38:	e000ed00 	.word	0xe000ed00

24007f3c <HAL_PWR_EnableSleepOnExit>:
24007f3c:	4a02      	ldr	r2, [pc, #8]	; (24007f48 <HAL_PWR_EnableSleepOnExit+0xc>)
24007f3e:	6913      	ldr	r3, [r2, #16]
24007f40:	f043 0302 	orr.w	r3, r3, #2
24007f44:	6113      	str	r3, [r2, #16]
24007f46:	4770      	bx	lr
24007f48:	e000ed00 	.word	0xe000ed00

24007f4c <HAL_PWR_DisableSleepOnExit>:
24007f4c:	4a02      	ldr	r2, [pc, #8]	; (24007f58 <HAL_PWR_DisableSleepOnExit+0xc>)
24007f4e:	6913      	ldr	r3, [r2, #16]
24007f50:	f023 0302 	bic.w	r3, r3, #2
24007f54:	6113      	str	r3, [r2, #16]
24007f56:	4770      	bx	lr
24007f58:	e000ed00 	.word	0xe000ed00

24007f5c <HAL_PWR_EnableSEVOnPend>:
24007f5c:	4a02      	ldr	r2, [pc, #8]	; (24007f68 <HAL_PWR_EnableSEVOnPend+0xc>)
24007f5e:	6913      	ldr	r3, [r2, #16]
24007f60:	f043 0310 	orr.w	r3, r3, #16
24007f64:	6113      	str	r3, [r2, #16]
24007f66:	4770      	bx	lr
24007f68:	e000ed00 	.word	0xe000ed00

24007f6c <HAL_PWR_DisableSEVOnPend>:
24007f6c:	4a02      	ldr	r2, [pc, #8]	; (24007f78 <HAL_PWR_DisableSEVOnPend+0xc>)
24007f6e:	6913      	ldr	r3, [r2, #16]
24007f70:	f023 0310 	bic.w	r3, r3, #16
24007f74:	6113      	str	r3, [r2, #16]
24007f76:	4770      	bx	lr
24007f78:	e000ed00 	.word	0xe000ed00

24007f7c <HAL_PWR_PVDCallback>:
24007f7c:	4770      	bx	lr

24007f7e <HAL_PWR_PVD_IRQHandler>:
24007f7e:	b508      	push	{r3, lr}
24007f80:	f04f 43b0 	mov.w	r3, #1476395008	; 0x58000000
24007f84:	f8d3 2088 	ldr.w	r2, [r3, #136]	; 0x88
24007f88:	03d2      	lsls	r2, r2, #15
24007f8a:	d507      	bpl.n	24007f9c <HAL_PWR_PVD_IRQHandler+0x1e>
24007f8c:	f8d3 2088 	ldr.w	r2, [r3, #136]	; 0x88
24007f90:	f442 3280 	orr.w	r2, r2, #65536	; 0x10000
24007f94:	f8c3 2088 	str.w	r2, [r3, #136]	; 0x88
24007f98:	f7ff fff0 	bl	24007f7c <HAL_PWR_PVDCallback>
24007f9c:	bd08      	pop	{r3, pc}
	...

24007fa0 <HAL_PWREx_ConfigSupply>:
24007fa0:	b538      	push	{r3, r4, r5, lr}
24007fa2:	4c10      	ldr	r4, [pc, #64]	; (24007fe4 <HAL_PWREx_ConfigSupply+0x44>)
24007fa4:	68e3      	ldr	r3, [r4, #12]
24007fa6:	f013 0f04 	tst.w	r3, #4
24007faa:	68e3      	ldr	r3, [r4, #12]
24007fac:	d105      	bne.n	24007fba <HAL_PWREx_ConfigSupply+0x1a>
24007fae:	f003 0307 	and.w	r3, r3, #7
24007fb2:	1a18      	subs	r0, r3, r0
24007fb4:	bf18      	it	ne
24007fb6:	2001      	movne	r0, #1
24007fb8:	bd38      	pop	{r3, r4, r5, pc}
24007fba:	f023 0307 	bic.w	r3, r3, #7
24007fbe:	4318      	orrs	r0, r3
24007fc0:	60e0      	str	r0, [r4, #12]
24007fc2:	f7f8 fbef 	bl	240007a4 <HAL_GetTick>
24007fc6:	4605      	mov	r5, r0
24007fc8:	6863      	ldr	r3, [r4, #4]
24007fca:	049b      	lsls	r3, r3, #18
24007fcc:	d501      	bpl.n	24007fd2 <HAL_PWREx_ConfigSupply+0x32>
24007fce:	2000      	movs	r0, #0
24007fd0:	e7f2      	b.n	24007fb8 <HAL_PWREx_ConfigSupply+0x18>
24007fd2:	f7f8 fbe7 	bl	240007a4 <HAL_GetTick>
24007fd6:	1b40      	subs	r0, r0, r5
24007fd8:	f5b0 7f7a 	cmp.w	r0, #1000	; 0x3e8
24007fdc:	d9f4      	bls.n	24007fc8 <HAL_PWREx_ConfigSupply+0x28>
24007fde:	2001      	movs	r0, #1
24007fe0:	e7ea      	b.n	24007fb8 <HAL_PWREx_ConfigSupply+0x18>
24007fe2:	bf00      	nop
24007fe4:	58024800 	.word	0x58024800

24007fe8 <HAL_PWREx_GetSupplyConfig>:
24007fe8:	4b02      	ldr	r3, [pc, #8]	; (24007ff4 <HAL_PWREx_GetSupplyConfig+0xc>)
24007fea:	68d8      	ldr	r0, [r3, #12]
24007fec:	f000 0007 	and.w	r0, r0, #7
24007ff0:	4770      	bx	lr
24007ff2:	bf00      	nop
24007ff4:	58024800 	.word	0x58024800

24007ff8 <HAL_PWREx_ControlVoltageScaling>:
24007ff8:	b570      	push	{r4, r5, r6, lr}
24007ffa:	4c2a      	ldr	r4, [pc, #168]	; (240080a4 <HAL_PWREx_ControlVoltageScaling+0xac>)
24007ffc:	4605      	mov	r5, r0
24007ffe:	6863      	ldr	r3, [r4, #4]
24008000:	f403 4340 	and.w	r3, r3, #49152	; 0xc000
24008004:	4283      	cmp	r3, r0
24008006:	d101      	bne.n	2400800c <HAL_PWREx_ControlVoltageScaling+0x14>
24008008:	2000      	movs	r0, #0
2400800a:	bd70      	pop	{r4, r5, r6, pc}
2400800c:	bb40      	cbnz	r0, 24008060 <HAL_PWREx_ControlVoltageScaling+0x68>
2400800e:	68e3      	ldr	r3, [r4, #12]
24008010:	079d      	lsls	r5, r3, #30
24008012:	d401      	bmi.n	24008018 <HAL_PWREx_ControlVoltageScaling+0x20>
24008014:	2001      	movs	r0, #1
24008016:	e7f8      	b.n	2400800a <HAL_PWREx_ControlVoltageScaling+0x12>
24008018:	69a3      	ldr	r3, [r4, #24]
2400801a:	f443 4340 	orr.w	r3, r3, #49152	; 0xc000
2400801e:	61a3      	str	r3, [r4, #24]
24008020:	f7f8 fbc0 	bl	240007a4 <HAL_GetTick>
24008024:	4605      	mov	r5, r0
24008026:	6863      	ldr	r3, [r4, #4]
24008028:	0498      	lsls	r0, r3, #18
2400802a:	d512      	bpl.n	24008052 <HAL_PWREx_ControlVoltageScaling+0x5a>
2400802c:	4a1e      	ldr	r2, [pc, #120]	; (240080a8 <HAL_PWREx_ControlVoltageScaling+0xb0>)
2400802e:	6ad3      	ldr	r3, [r2, #44]	; 0x2c
24008030:	f043 0301 	orr.w	r3, r3, #1
24008034:	62d3      	str	r3, [r2, #44]	; 0x2c
24008036:	f7f8 fbb5 	bl	240007a4 <HAL_GetTick>
2400803a:	4d1a      	ldr	r5, [pc, #104]	; (240080a4 <HAL_PWREx_ControlVoltageScaling+0xac>)
2400803c:	4604      	mov	r4, r0
2400803e:	686b      	ldr	r3, [r5, #4]
24008040:	049b      	lsls	r3, r3, #18
24008042:	d4e1      	bmi.n	24008008 <HAL_PWREx_ControlVoltageScaling+0x10>
24008044:	f7f8 fbae 	bl	240007a4 <HAL_GetTick>
24008048:	1b00      	subs	r0, r0, r4
2400804a:	f5b0 7f7a 	cmp.w	r0, #1000	; 0x3e8
2400804e:	d9f6      	bls.n	2400803e <HAL_PWREx_ControlVoltageScaling+0x46>
24008050:	e7e0      	b.n	24008014 <HAL_PWREx_ControlVoltageScaling+0x1c>
24008052:	f7f8 fba7 	bl	240007a4 <HAL_GetTick>
24008056:	1b40      	subs	r0, r0, r5
24008058:	f5b0 7f7a 	cmp.w	r0, #1000	; 0x3e8
2400805c:	d9e3      	bls.n	24008026 <HAL_PWREx_ControlVoltageScaling+0x2e>
2400805e:	e7d9      	b.n	24008014 <HAL_PWREx_ControlVoltageScaling+0x1c>
24008060:	6863      	ldr	r3, [r4, #4]
24008062:	f403 4340 	and.w	r3, r3, #49152	; 0xc000
24008066:	f5b3 4f40 	cmp.w	r3, #49152	; 0xc000
2400806a:	d006      	beq.n	2400807a <HAL_PWREx_ControlVoltageScaling+0x82>
2400806c:	4b0d      	ldr	r3, [pc, #52]	; (240080a4 <HAL_PWREx_ControlVoltageScaling+0xac>)
2400806e:	6998      	ldr	r0, [r3, #24]
24008070:	f420 4040 	bic.w	r0, r0, #49152	; 0xc000
24008074:	4305      	orrs	r5, r0
24008076:	619d      	str	r5, [r3, #24]
24008078:	e7dd      	b.n	24008036 <HAL_PWREx_ControlVoltageScaling+0x3e>
2400807a:	4b0b      	ldr	r3, [pc, #44]	; (240080a8 <HAL_PWREx_ControlVoltageScaling+0xb0>)
2400807c:	6ada      	ldr	r2, [r3, #44]	; 0x2c
2400807e:	07d1      	lsls	r1, r2, #31
24008080:	d5f4      	bpl.n	2400806c <HAL_PWREx_ControlVoltageScaling+0x74>
24008082:	6ada      	ldr	r2, [r3, #44]	; 0x2c
24008084:	f022 0201 	bic.w	r2, r2, #1
24008088:	62da      	str	r2, [r3, #44]	; 0x2c
2400808a:	f7f8 fb8b 	bl	240007a4 <HAL_GetTick>
2400808e:	4606      	mov	r6, r0
24008090:	6863      	ldr	r3, [r4, #4]
24008092:	049a      	lsls	r2, r3, #18
24008094:	d4ea      	bmi.n	2400806c <HAL_PWREx_ControlVoltageScaling+0x74>
24008096:	f7f8 fb85 	bl	240007a4 <HAL_GetTick>
2400809a:	1b80      	subs	r0, r0, r6
2400809c:	f5b0 7f7a 	cmp.w	r0, #1000	; 0x3e8
240080a0:	d9f6      	bls.n	24008090 <HAL_PWREx_ControlVoltageScaling+0x98>
240080a2:	e7b7      	b.n	24008014 <HAL_PWREx_ControlVoltageScaling+0x1c>
240080a4:	58024800 	.word	0x58024800
240080a8:	58000400 	.word	0x58000400

240080ac <HAL_PWREx_GetVoltageRange>:
240080ac:	4b02      	ldr	r3, [pc, #8]	; (240080b8 <HAL_PWREx_GetVoltageRange+0xc>)
240080ae:	6858      	ldr	r0, [r3, #4]
240080b0:	f400 4040 	and.w	r0, r0, #49152	; 0xc000
240080b4:	4770      	bx	lr
240080b6:	bf00      	nop
240080b8:	58024800 	.word	0x58024800

240080bc <HAL_PWREx_ControlStopModeVoltageScaling>:
240080bc:	4a03      	ldr	r2, [pc, #12]	; (240080cc <HAL_PWREx_ControlStopModeVoltageScaling+0x10>)
240080be:	6813      	ldr	r3, [r2, #0]
240080c0:	f423 4340 	bic.w	r3, r3, #49152	; 0xc000
240080c4:	4318      	orrs	r0, r3
240080c6:	6010      	str	r0, [r2, #0]
240080c8:	2000      	movs	r0, #0
240080ca:	4770      	bx	lr
240080cc:	58024800 	.word	0x58024800

240080d0 <HAL_PWREx_GetStopModeVoltageRange>:
240080d0:	4b02      	ldr	r3, [pc, #8]	; (240080dc <HAL_PWREx_GetStopModeVoltageRange+0xc>)
240080d2:	6818      	ldr	r0, [r3, #0]
240080d4:	f400 4040 	and.w	r0, r0, #49152	; 0xc000
240080d8:	4770      	bx	lr
240080da:	bf00      	nop
240080dc:	58024800 	.word	0x58024800

240080e0 <HAL_PWREx_EnterSTOPMode>:
240080e0:	4b12      	ldr	r3, [pc, #72]	; (2400812c <HAL_PWREx_EnterSTOPMode+0x4c>)
240080e2:	b510      	push	{r4, lr}
240080e4:	681c      	ldr	r4, [r3, #0]
240080e6:	f024 0401 	bic.w	r4, r4, #1
240080ea:	4320      	orrs	r0, r4
240080ec:	6018      	str	r0, [r3, #0]
240080ee:	b9aa      	cbnz	r2, 2400811c <HAL_PWREx_EnterSTOPMode+0x3c>
240080f0:	691a      	ldr	r2, [r3, #16]
240080f2:	f022 0201 	bic.w	r2, r2, #1
240080f6:	611a      	str	r2, [r3, #16]
240080f8:	4b0d      	ldr	r3, [pc, #52]	; (24008130 <HAL_PWREx_EnterSTOPMode+0x50>)
240080fa:	691a      	ldr	r2, [r3, #16]
240080fc:	f042 0204 	orr.w	r2, r2, #4
24008100:	611a      	str	r2, [r3, #16]
24008102:	f3bf 8f4f 	dsb	sy
24008106:	f3bf 8f6f 	isb	sy
2400810a:	2901      	cmp	r1, #1
2400810c:	d104      	bne.n	24008118 <HAL_PWREx_EnterSTOPMode+0x38>
2400810e:	bf30      	wfi
24008110:	691a      	ldr	r2, [r3, #16]
24008112:	f022 0204 	bic.w	r2, r2, #4
24008116:	e006      	b.n	24008126 <HAL_PWREx_EnterSTOPMode+0x46>
24008118:	bf20      	wfe
2400811a:	e7f9      	b.n	24008110 <HAL_PWREx_EnterSTOPMode+0x30>
2400811c:	2a01      	cmp	r2, #1
2400811e:	691a      	ldr	r2, [r3, #16]
24008120:	d1f7      	bne.n	24008112 <HAL_PWREx_EnterSTOPMode+0x32>
24008122:	f022 0202 	bic.w	r2, r2, #2
24008126:	611a      	str	r2, [r3, #16]
24008128:	bd10      	pop	{r4, pc}
2400812a:	bf00      	nop
2400812c:	58024800 	.word	0x58024800
24008130:	e000ed00 	.word	0xe000ed00

24008134 <HAL_PWREx_ClearPendingEvent>:
24008134:	bf20      	wfe
24008136:	4770      	bx	lr

24008138 <HAL_PWREx_EnterSTANDBYMode>:
24008138:	4b0a      	ldr	r3, [pc, #40]	; (24008164 <HAL_PWREx_EnterSTANDBYMode+0x2c>)
2400813a:	691a      	ldr	r2, [r3, #16]
2400813c:	b948      	cbnz	r0, 24008152 <HAL_PWREx_EnterSTANDBYMode+0x1a>
2400813e:	f042 0201 	orr.w	r2, r2, #1
24008142:	611a      	str	r2, [r3, #16]
24008144:	4a08      	ldr	r2, [pc, #32]	; (24008168 <HAL_PWREx_EnterSTANDBYMode+0x30>)
24008146:	6913      	ldr	r3, [r2, #16]
24008148:	f043 0304 	orr.w	r3, r3, #4
2400814c:	6113      	str	r3, [r2, #16]
2400814e:	bf30      	wfi
24008150:	4770      	bx	lr
24008152:	2801      	cmp	r0, #1
24008154:	bf0c      	ite	eq
24008156:	f042 0202 	orreq.w	r2, r2, #2
2400815a:	f042 0204 	orrne.w	r2, r2, #4
2400815e:	611a      	str	r2, [r3, #16]
24008160:	4770      	bx	lr
24008162:	bf00      	nop
24008164:	58024800 	.word	0x58024800
24008168:	e000ed00 	.word	0xe000ed00

2400816c <HAL_PWREx_ConfigD3Domain>:
2400816c:	4a03      	ldr	r2, [pc, #12]	; (2400817c <HAL_PWREx_ConfigD3Domain+0x10>)
2400816e:	6913      	ldr	r3, [r2, #16]
24008170:	f423 6300 	bic.w	r3, r3, #2048	; 0x800
24008174:	4318      	orrs	r0, r3
24008176:	6110      	str	r0, [r2, #16]
24008178:	4770      	bx	lr
2400817a:	bf00      	nop
2400817c:	58024800 	.word	0x58024800

24008180 <HAL_PWREx_EnableFlashPowerDown>:
24008180:	4a02      	ldr	r2, [pc, #8]	; (2400818c <HAL_PWREx_EnableFlashPowerDown+0xc>)
24008182:	6813      	ldr	r3, [r2, #0]
24008184:	f443 7300 	orr.w	r3, r3, #512	; 0x200
24008188:	6013      	str	r3, [r2, #0]
2400818a:	4770      	bx	lr
2400818c:	58024800 	.word	0x58024800

24008190 <HAL_PWREx_DisableFlashPowerDown>:
24008190:	4a02      	ldr	r2, [pc, #8]	; (2400819c <HAL_PWREx_DisableFlashPowerDown+0xc>)
24008192:	6813      	ldr	r3, [r2, #0]
24008194:	f423 7300 	bic.w	r3, r3, #512	; 0x200
24008198:	6013      	str	r3, [r2, #0]
2400819a:	4770      	bx	lr
2400819c:	58024800 	.word	0x58024800

240081a0 <HAL_PWREx_EnableWakeUpPin>:
240081a0:	b5f0      	push	{r4, r5, r6, r7, lr}
240081a2:	6804      	ldr	r4, [r0, #0]
240081a4:	fa94 f6a4 	rbit	r6, r4
240081a8:	fab6 f686 	clz	r6, r6
240081ac:	fa94 f1a4 	rbit	r1, r4
240081b0:	fab1 f181 	clz	r1, r1
240081b4:	fa94 f2a4 	rbit	r2, r4
240081b8:	fab2 f282 	clz	r2, r2
240081bc:	fa94 f5a4 	rbit	r5, r4
240081c0:	3608      	adds	r6, #8
240081c2:	3108      	adds	r1, #8
240081c4:	6843      	ldr	r3, [r0, #4]
240081c6:	fab5 f585 	clz	r5, r5
240081ca:	f006 061f 	and.w	r6, r6, #31
240081ce:	0049      	lsls	r1, r1, #1
240081d0:	006d      	lsls	r5, r5, #1
240081d2:	f8df c050 	ldr.w	ip, [pc, #80]	; 24008224 <HAL_PWREx_EnableWakeUpPin+0x84>
240081d6:	40b3      	lsls	r3, r6
240081d8:	f001 011e 	and.w	r1, r1, #30
240081dc:	6886      	ldr	r6, [r0, #8]
240081de:	f005 051e 	and.w	r5, r5, #30
240081e2:	4323      	orrs	r3, r4
240081e4:	f8dc 7028 	ldr.w	r7, [ip, #40]	; 0x28
240081e8:	fa06 f101 	lsl.w	r1, r6, r1
240081ec:	430b      	orrs	r3, r1
240081ee:	f002 011f 	and.w	r1, r2, #31
240081f2:	f44f 7280 	mov.w	r2, #256	; 0x100
240081f6:	408a      	lsls	r2, r1
240081f8:	f44f 3140 	mov.w	r1, #196608	; 0x30000
240081fc:	4322      	orrs	r2, r4
240081fe:	fa01 f505 	lsl.w	r5, r1, r5
24008202:	432a      	orrs	r2, r5
24008204:	ea27 0202 	bic.w	r2, r7, r2
24008208:	4313      	orrs	r3, r2
2400820a:	f04f 42b0 	mov.w	r2, #1476395008	; 0x58000000
2400820e:	f8cc 3028 	str.w	r3, [ip, #40]	; 0x28
24008212:	f8d2 3090 	ldr.w	r3, [r2, #144]	; 0x90
24008216:	f023 53fc 	bic.w	r3, r3, #528482304	; 0x1f800000
2400821a:	ea43 54c4 	orr.w	r4, r3, r4, lsl #23
2400821e:	f8c2 4090 	str.w	r4, [r2, #144]	; 0x90
24008222:	bdf0      	pop	{r4, r5, r6, r7, pc}
24008224:	58024800 	.word	0x58024800

24008228 <HAL_PWREx_DisableWakeUpPin>:
24008228:	4a02      	ldr	r2, [pc, #8]	; (24008234 <HAL_PWREx_DisableWakeUpPin+0xc>)
2400822a:	6a93      	ldr	r3, [r2, #40]	; 0x28
2400822c:	ea23 0000 	bic.w	r0, r3, r0
24008230:	6290      	str	r0, [r2, #40]	; 0x28
24008232:	4770      	bx	lr
24008234:	58024800 	.word	0x58024800

24008238 <HAL_PWREx_GetWakeupFlag>:
24008238:	4b01      	ldr	r3, [pc, #4]	; (24008240 <HAL_PWREx_GetWakeupFlag+0x8>)
2400823a:	6a5b      	ldr	r3, [r3, #36]	; 0x24
2400823c:	4018      	ands	r0, r3
2400823e:	4770      	bx	lr
24008240:	58024800 	.word	0x58024800

24008244 <HAL_PWREx_ClearWakeupFlag>:
24008244:	4b04      	ldr	r3, [pc, #16]	; (24008258 <HAL_PWREx_ClearWakeupFlag+0x14>)
24008246:	6a1a      	ldr	r2, [r3, #32]
24008248:	4302      	orrs	r2, r0
2400824a:	621a      	str	r2, [r3, #32]
2400824c:	6a5b      	ldr	r3, [r3, #36]	; 0x24
2400824e:	4203      	tst	r3, r0
24008250:	bf14      	ite	ne
24008252:	2001      	movne	r0, #1
24008254:	2000      	moveq	r0, #0
24008256:	4770      	bx	lr
24008258:	58024800 	.word	0x58024800

2400825c <HAL_PWREx_WKUP1_Callback>:
2400825c:	4770      	bx	lr

2400825e <HAL_PWREx_WKUP2_Callback>:
2400825e:	4770      	bx	lr

24008260 <HAL_PWREx_WKUP3_Callback>:
24008260:	4770      	bx	lr

24008262 <HAL_PWREx_WKUP4_Callback>:
24008262:	4770      	bx	lr

24008264 <HAL_PWREx_WKUP5_Callback>:
24008264:	4770      	bx	lr

24008266 <HAL_PWREx_WKUP6_Callback>:
24008266:	4770      	bx	lr

24008268 <HAL_PWREx_WAKEUP_PIN_IRQHandler>:
24008268:	b508      	push	{r3, lr}
2400826a:	4b1d      	ldr	r3, [pc, #116]	; (240082e0 <HAL_PWREx_WAKEUP_PIN_IRQHandler+0x78>)
2400826c:	6a5a      	ldr	r2, [r3, #36]	; 0x24
2400826e:	07d2      	lsls	r2, r2, #31
24008270:	d506      	bpl.n	24008280 <HAL_PWREx_WAKEUP_PIN_IRQHandler+0x18>
24008272:	6a1a      	ldr	r2, [r3, #32]
24008274:	f042 0201 	orr.w	r2, r2, #1
24008278:	621a      	str	r2, [r3, #32]
2400827a:	f7ff ffef 	bl	2400825c <HAL_PWREx_WKUP1_Callback>
2400827e:	bd08      	pop	{r3, pc}
24008280:	6a5a      	ldr	r2, [r3, #36]	; 0x24
24008282:	0790      	lsls	r0, r2, #30
24008284:	d506      	bpl.n	24008294 <HAL_PWREx_WAKEUP_PIN_IRQHandler+0x2c>
24008286:	6a1a      	ldr	r2, [r3, #32]
24008288:	f042 0202 	orr.w	r2, r2, #2
2400828c:	621a      	str	r2, [r3, #32]
2400828e:	f7ff ffe6 	bl	2400825e <HAL_PWREx_WKUP2_Callback>
24008292:	e7f4      	b.n	2400827e <HAL_PWREx_WAKEUP_PIN_IRQHandler+0x16>
24008294:	6a5a      	ldr	r2, [r3, #36]	; 0x24
24008296:	0751      	lsls	r1, r2, #29
24008298:	d506      	bpl.n	240082a8 <HAL_PWREx_WAKEUP_PIN_IRQHandler+0x40>
2400829a:	6a1a      	ldr	r2, [r3, #32]
2400829c:	f042 0204 	orr.w	r2, r2, #4
240082a0:	621a      	str	r2, [r3, #32]
240082a2:	f7ff ffdd 	bl	24008260 <HAL_PWREx_WKUP3_Callback>
240082a6:	e7ea      	b.n	2400827e <HAL_PWREx_WAKEUP_PIN_IRQHandler+0x16>
240082a8:	6a5a      	ldr	r2, [r3, #36]	; 0x24
240082aa:	0712      	lsls	r2, r2, #28
240082ac:	d506      	bpl.n	240082bc <HAL_PWREx_WAKEUP_PIN_IRQHandler+0x54>
240082ae:	6a1a      	ldr	r2, [r3, #32]
240082b0:	f042 0208 	orr.w	r2, r2, #8
240082b4:	621a      	str	r2, [r3, #32]
240082b6:	f7ff ffd4 	bl	24008262 <HAL_PWREx_WKUP4_Callback>
240082ba:	e7e0      	b.n	2400827e <HAL_PWREx_WAKEUP_PIN_IRQHandler+0x16>
240082bc:	6a5a      	ldr	r2, [r3, #36]	; 0x24
240082be:	f012 0f10 	tst.w	r2, #16
240082c2:	6a1a      	ldr	r2, [r3, #32]
240082c4:	d005      	beq.n	240082d2 <HAL_PWREx_WAKEUP_PIN_IRQHandler+0x6a>
240082c6:	f042 0210 	orr.w	r2, r2, #16
240082ca:	621a      	str	r2, [r3, #32]
240082cc:	f7ff ffca 	bl	24008264 <HAL_PWREx_WKUP5_Callback>
240082d0:	e7d5      	b.n	2400827e <HAL_PWREx_WAKEUP_PIN_IRQHandler+0x16>
240082d2:	f042 0220 	orr.w	r2, r2, #32
240082d6:	621a      	str	r2, [r3, #32]
240082d8:	f7ff ffc5 	bl	24008266 <HAL_PWREx_WKUP6_Callback>
240082dc:	e7cf      	b.n	2400827e <HAL_PWREx_WAKEUP_PIN_IRQHandler+0x16>
240082de:	bf00      	nop
240082e0:	58024800 	.word	0x58024800

240082e4 <HAL_PWREx_EnableBkUpReg>:
240082e4:	b538      	push	{r3, r4, r5, lr}
240082e6:	4c0a      	ldr	r4, [pc, #40]	; (24008310 <HAL_PWREx_EnableBkUpReg+0x2c>)
240082e8:	68a3      	ldr	r3, [r4, #8]
240082ea:	f043 0301 	orr.w	r3, r3, #1
240082ee:	60a3      	str	r3, [r4, #8]
240082f0:	f7f8 fa58 	bl	240007a4 <HAL_GetTick>
240082f4:	4605      	mov	r5, r0
240082f6:	68a3      	ldr	r3, [r4, #8]
240082f8:	03db      	lsls	r3, r3, #15
240082fa:	d501      	bpl.n	24008300 <HAL_PWREx_EnableBkUpReg+0x1c>
240082fc:	2000      	movs	r0, #0
240082fe:	bd38      	pop	{r3, r4, r5, pc}
24008300:	f7f8 fa50 	bl	240007a4 <HAL_GetTick>
24008304:	1b40      	subs	r0, r0, r5
24008306:	f5b0 7f7a 	cmp.w	r0, #1000	; 0x3e8
2400830a:	d9f4      	bls.n	240082f6 <HAL_PWREx_EnableBkUpReg+0x12>
2400830c:	2001      	movs	r0, #1
2400830e:	e7f6      	b.n	240082fe <HAL_PWREx_EnableBkUpReg+0x1a>
24008310:	58024800 	.word	0x58024800

24008314 <HAL_PWREx_DisableBkUpReg>:
24008314:	b538      	push	{r3, r4, r5, lr}
24008316:	4c0b      	ldr	r4, [pc, #44]	; (24008344 <HAL_PWREx_DisableBkUpReg+0x30>)
24008318:	68a3      	ldr	r3, [r4, #8]
2400831a:	f023 0301 	bic.w	r3, r3, #1
2400831e:	60a3      	str	r3, [r4, #8]
24008320:	f7f8 fa40 	bl	240007a4 <HAL_GetTick>
24008324:	4605      	mov	r5, r0
24008326:	68a3      	ldr	r3, [r4, #8]
24008328:	f413 3380 	ands.w	r3, r3, #65536	; 0x10000
2400832c:	d101      	bne.n	24008332 <HAL_PWREx_DisableBkUpReg+0x1e>
2400832e:	4618      	mov	r0, r3
24008330:	bd38      	pop	{r3, r4, r5, pc}
24008332:	f7f8 fa37 	bl	240007a4 <HAL_GetTick>
24008336:	1b40      	subs	r0, r0, r5
24008338:	f5b0 7f7a 	cmp.w	r0, #1000	; 0x3e8
2400833c:	d9f3      	bls.n	24008326 <HAL_PWREx_DisableBkUpReg+0x12>
2400833e:	2001      	movs	r0, #1
24008340:	e7f6      	b.n	24008330 <HAL_PWREx_DisableBkUpReg+0x1c>
24008342:	bf00      	nop
24008344:	58024800 	.word	0x58024800

24008348 <HAL_PWREx_EnableUSBReg>:
24008348:	b538      	push	{r3, r4, r5, lr}
2400834a:	4c0a      	ldr	r4, [pc, #40]	; (24008374 <HAL_PWREx_EnableUSBReg+0x2c>)
2400834c:	68e3      	ldr	r3, [r4, #12]
2400834e:	f043 7300 	orr.w	r3, r3, #33554432	; 0x2000000
24008352:	60e3      	str	r3, [r4, #12]
24008354:	f7f8 fa26 	bl	240007a4 <HAL_GetTick>
24008358:	4605      	mov	r5, r0
2400835a:	68e3      	ldr	r3, [r4, #12]
2400835c:	015b      	lsls	r3, r3, #5
2400835e:	d501      	bpl.n	24008364 <HAL_PWREx_EnableUSBReg+0x1c>
24008360:	2000      	movs	r0, #0
24008362:	bd38      	pop	{r3, r4, r5, pc}
24008364:	f7f8 fa1e 	bl	240007a4 <HAL_GetTick>
24008368:	1b40      	subs	r0, r0, r5
2400836a:	f5b0 7f7a 	cmp.w	r0, #1000	; 0x3e8
2400836e:	d9f4      	bls.n	2400835a <HAL_PWREx_EnableUSBReg+0x12>
24008370:	2001      	movs	r0, #1
24008372:	e7f6      	b.n	24008362 <HAL_PWREx_EnableUSBReg+0x1a>
24008374:	58024800 	.word	0x58024800

24008378 <HAL_PWREx_DisableUSBReg>:
24008378:	b538      	push	{r3, r4, r5, lr}
2400837a:	4c0b      	ldr	r4, [pc, #44]	; (240083a8 <HAL_PWREx_DisableUSBReg+0x30>)
2400837c:	68e3      	ldr	r3, [r4, #12]
2400837e:	f023 7300 	bic.w	r3, r3, #33554432	; 0x2000000
24008382:	60e3      	str	r3, [r4, #12]
24008384:	f7f8 fa0e 	bl	240007a4 <HAL_GetTick>
24008388:	4605      	mov	r5, r0
2400838a:	68e3      	ldr	r3, [r4, #12]
2400838c:	f013 6380 	ands.w	r3, r3, #67108864	; 0x4000000
24008390:	d101      	bne.n	24008396 <HAL_PWREx_DisableUSBReg+0x1e>
24008392:	4618      	mov	r0, r3
24008394:	bd38      	pop	{r3, r4, r5, pc}
24008396:	f7f8 fa05 	bl	240007a4 <HAL_GetTick>
2400839a:	1b40      	subs	r0, r0, r5
2400839c:	f5b0 7f7a 	cmp.w	r0, #1000	; 0x3e8
240083a0:	d9f3      	bls.n	2400838a <HAL_PWREx_DisableUSBReg+0x12>
240083a2:	2001      	movs	r0, #1
240083a4:	e7f6      	b.n	24008394 <HAL_PWREx_DisableUSBReg+0x1c>
240083a6:	bf00      	nop
240083a8:	58024800 	.word	0x58024800

240083ac <HAL_PWREx_EnableUSBVoltageDetector>:
240083ac:	4a02      	ldr	r2, [pc, #8]	; (240083b8 <HAL_PWREx_EnableUSBVoltageDetector+0xc>)
240083ae:	68d3      	ldr	r3, [r2, #12]
240083b0:	f043 7380 	orr.w	r3, r3, #16777216	; 0x1000000
240083b4:	60d3      	str	r3, [r2, #12]
240083b6:	4770      	bx	lr
240083b8:	58024800 	.word	0x58024800

240083bc <HAL_PWREx_DisableUSBVoltageDetector>:
240083bc:	4a02      	ldr	r2, [pc, #8]	; (240083c8 <HAL_PWREx_DisableUSBVoltageDetector+0xc>)
240083be:	68d3      	ldr	r3, [r2, #12]
240083c0:	f023 7380 	bic.w	r3, r3, #16777216	; 0x1000000
240083c4:	60d3      	str	r3, [r2, #12]
240083c6:	4770      	bx	lr
240083c8:	58024800 	.word	0x58024800

240083cc <HAL_PWREx_EnableBatteryCharging>:
240083cc:	4a05      	ldr	r2, [pc, #20]	; (240083e4 <HAL_PWREx_EnableBatteryCharging+0x18>)
240083ce:	68d3      	ldr	r3, [r2, #12]
240083d0:	f423 7300 	bic.w	r3, r3, #512	; 0x200
240083d4:	4318      	orrs	r0, r3
240083d6:	60d0      	str	r0, [r2, #12]
240083d8:	68d3      	ldr	r3, [r2, #12]
240083da:	f443 7380 	orr.w	r3, r3, #256	; 0x100
240083de:	60d3      	str	r3, [r2, #12]
240083e0:	4770      	bx	lr
240083e2:	bf00      	nop
240083e4:	58024800 	.word	0x58024800

240083e8 <HAL_PWREx_DisableBatteryCharging>:
240083e8:	4a02      	ldr	r2, [pc, #8]	; (240083f4 <HAL_PWREx_DisableBatteryCharging+0xc>)
240083ea:	68d3      	ldr	r3, [r2, #12]
240083ec:	f423 7380 	bic.w	r3, r3, #256	; 0x100
240083f0:	60d3      	str	r3, [r2, #12]
240083f2:	4770      	bx	lr
240083f4:	58024800 	.word	0x58024800

240083f8 <HAL_PWREx_EnableMonitoring>:
240083f8:	4a02      	ldr	r2, [pc, #8]	; (24008404 <HAL_PWREx_EnableMonitoring+0xc>)
240083fa:	6893      	ldr	r3, [r2, #8]
240083fc:	f043 0310 	orr.w	r3, r3, #16
24008400:	6093      	str	r3, [r2, #8]
24008402:	4770      	bx	lr
24008404:	58024800 	.word	0x58024800

24008408 <HAL_PWREx_DisableMonitoring>:
24008408:	4a02      	ldr	r2, [pc, #8]	; (24008414 <HAL_PWREx_DisableMonitoring+0xc>)
2400840a:	6893      	ldr	r3, [r2, #8]
2400840c:	f023 0310 	bic.w	r3, r3, #16
24008410:	6093      	str	r3, [r2, #8]
24008412:	4770      	bx	lr
24008414:	58024800 	.word	0x58024800

24008418 <HAL_PWREx_GetTemperatureLevel>:
24008418:	4b05      	ldr	r3, [pc, #20]	; (24008430 <HAL_PWREx_GetTemperatureLevel+0x18>)
2400841a:	6898      	ldr	r0, [r3, #8]
2400841c:	f400 0040 	and.w	r0, r0, #12582912	; 0xc00000
24008420:	f5b0 0f80 	cmp.w	r0, #4194304	; 0x400000
24008424:	d003      	beq.n	2400842e <HAL_PWREx_GetTemperatureLevel+0x16>
24008426:	f5b0 0f00 	cmp.w	r0, #8388608	; 0x800000
2400842a:	bf18      	it	ne
2400842c:	2000      	movne	r0, #0
2400842e:	4770      	bx	lr
24008430:	58024800 	.word	0x58024800

24008434 <HAL_PWREx_GetVBATLevel>:
24008434:	4b05      	ldr	r3, [pc, #20]	; (2400844c <HAL_PWREx_GetVBATLevel+0x18>)
24008436:	6898      	ldr	r0, [r3, #8]
24008438:	f400 1040 	and.w	r0, r0, #3145728	; 0x300000
2400843c:	f5b0 1f80 	cmp.w	r0, #1048576	; 0x100000
24008440:	d003      	beq.n	2400844a <HAL_PWREx_GetVBATLevel+0x16>
24008442:	f5b0 1f00 	cmp.w	r0, #2097152	; 0x200000
24008446:	bf18      	it	ne
24008448:	2000      	movne	r0, #0
2400844a:	4770      	bx	lr
2400844c:	58024800 	.word	0x58024800

24008450 <HAL_PWREx_ConfigAVD>:
24008450:	4a20      	ldr	r2, [pc, #128]	; (240084d4 <HAL_PWREx_ConfigAVD+0x84>)
24008452:	6801      	ldr	r1, [r0, #0]
24008454:	6813      	ldr	r3, [r2, #0]
24008456:	f423 23c0 	bic.w	r3, r3, #393216	; 0x60000
2400845a:	430b      	orrs	r3, r1
2400845c:	6013      	str	r3, [r2, #0]
2400845e:	f04f 43b0 	mov.w	r3, #1476395008	; 0x58000000
24008462:	f8d3 2084 	ldr.w	r2, [r3, #132]	; 0x84
24008466:	f422 3280 	bic.w	r2, r2, #65536	; 0x10000
2400846a:	f8c3 2084 	str.w	r2, [r3, #132]	; 0x84
2400846e:	f8d3 2080 	ldr.w	r2, [r3, #128]	; 0x80
24008472:	f422 3280 	bic.w	r2, r2, #65536	; 0x10000
24008476:	f8c3 2080 	str.w	r2, [r3, #128]	; 0x80
2400847a:	681a      	ldr	r2, [r3, #0]
2400847c:	f422 3280 	bic.w	r2, r2, #65536	; 0x10000
24008480:	601a      	str	r2, [r3, #0]
24008482:	685a      	ldr	r2, [r3, #4]
24008484:	f422 3280 	bic.w	r2, r2, #65536	; 0x10000
24008488:	605a      	str	r2, [r3, #4]
2400848a:	6842      	ldr	r2, [r0, #4]
2400848c:	03d1      	lsls	r1, r2, #15
2400848e:	d505      	bpl.n	2400849c <HAL_PWREx_ConfigAVD+0x4c>
24008490:	f8d3 1080 	ldr.w	r1, [r3, #128]	; 0x80
24008494:	f441 3180 	orr.w	r1, r1, #65536	; 0x10000
24008498:	f8c3 1080 	str.w	r1, [r3, #128]	; 0x80
2400849c:	0390      	lsls	r0, r2, #14
2400849e:	d507      	bpl.n	240084b0 <HAL_PWREx_ConfigAVD+0x60>
240084a0:	f04f 41b0 	mov.w	r1, #1476395008	; 0x58000000
240084a4:	f8d1 3084 	ldr.w	r3, [r1, #132]	; 0x84
240084a8:	f443 3380 	orr.w	r3, r3, #65536	; 0x10000
240084ac:	f8c1 3084 	str.w	r3, [r1, #132]	; 0x84
240084b0:	07d1      	lsls	r1, r2, #31
240084b2:	d505      	bpl.n	240084c0 <HAL_PWREx_ConfigAVD+0x70>
240084b4:	f04f 41b0 	mov.w	r1, #1476395008	; 0x58000000
240084b8:	680b      	ldr	r3, [r1, #0]
240084ba:	f443 3380 	orr.w	r3, r3, #65536	; 0x10000
240084be:	600b      	str	r3, [r1, #0]
240084c0:	0793      	lsls	r3, r2, #30
240084c2:	d505      	bpl.n	240084d0 <HAL_PWREx_ConfigAVD+0x80>
240084c4:	f04f 42b0 	mov.w	r2, #1476395008	; 0x58000000
240084c8:	6853      	ldr	r3, [r2, #4]
240084ca:	f443 3380 	orr.w	r3, r3, #65536	; 0x10000
240084ce:	6053      	str	r3, [r2, #4]
240084d0:	4770      	bx	lr
240084d2:	bf00      	nop
240084d4:	58024800 	.word	0x58024800

240084d8 <HAL_PWREx_EnableAVD>:
240084d8:	4a02      	ldr	r2, [pc, #8]	; (240084e4 <HAL_PWREx_EnableAVD+0xc>)
240084da:	6813      	ldr	r3, [r2, #0]
240084dc:	f443 3380 	orr.w	r3, r3, #65536	; 0x10000
240084e0:	6013      	str	r3, [r2, #0]
240084e2:	4770      	bx	lr
240084e4:	58024800 	.word	0x58024800

240084e8 <HAL_PWREx_DisableAVD>:
240084e8:	4a02      	ldr	r2, [pc, #8]	; (240084f4 <HAL_PWREx_DisableAVD+0xc>)
240084ea:	6813      	ldr	r3, [r2, #0]
240084ec:	f423 3380 	bic.w	r3, r3, #65536	; 0x10000
240084f0:	6013      	str	r3, [r2, #0]
240084f2:	4770      	bx	lr
240084f4:	58024800 	.word	0x58024800

240084f8 <HAL_PWREx_AVDCallback>:
240084f8:	4770      	bx	lr
	...

240084fc <HAL_PWREx_PVD_AVD_IRQHandler>:
240084fc:	4b12      	ldr	r3, [pc, #72]	; (24008548 <HAL_PWREx_PVD_AVD_IRQHandler+0x4c>)
240084fe:	681b      	ldr	r3, [r3, #0]
24008500:	06d8      	lsls	r0, r3, #27
24008502:	b510      	push	{r4, lr}
24008504:	d50d      	bpl.n	24008522 <HAL_PWREx_PVD_AVD_IRQHandler+0x26>
24008506:	f04f 44b0 	mov.w	r4, #1476395008	; 0x58000000
2400850a:	f8d4 3088 	ldr.w	r3, [r4, #136]	; 0x88
2400850e:	03d9      	lsls	r1, r3, #15
24008510:	d507      	bpl.n	24008522 <HAL_PWREx_PVD_AVD_IRQHandler+0x26>
24008512:	f7ff fd33 	bl	24007f7c <HAL_PWR_PVDCallback>
24008516:	f8d4 3088 	ldr.w	r3, [r4, #136]	; 0x88
2400851a:	f443 3380 	orr.w	r3, r3, #65536	; 0x10000
2400851e:	f8c4 3088 	str.w	r3, [r4, #136]	; 0x88
24008522:	4b09      	ldr	r3, [pc, #36]	; (24008548 <HAL_PWREx_PVD_AVD_IRQHandler+0x4c>)
24008524:	681b      	ldr	r3, [r3, #0]
24008526:	03da      	lsls	r2, r3, #15
24008528:	d50d      	bpl.n	24008546 <HAL_PWREx_PVD_AVD_IRQHandler+0x4a>
2400852a:	f04f 44b0 	mov.w	r4, #1476395008	; 0x58000000
2400852e:	f8d4 3088 	ldr.w	r3, [r4, #136]	; 0x88
24008532:	03db      	lsls	r3, r3, #15
24008534:	d507      	bpl.n	24008546 <HAL_PWREx_PVD_AVD_IRQHandler+0x4a>
24008536:	f7ff ffdf 	bl	240084f8 <HAL_PWREx_AVDCallback>
2400853a:	f8d4 3088 	ldr.w	r3, [r4, #136]	; 0x88
2400853e:	f443 3380 	orr.w	r3, r3, #65536	; 0x10000
24008542:	f8c4 3088 	str.w	r3, [r4, #136]	; 0x88
24008546:	bd10      	pop	{r4, pc}
24008548:	58024800 	.word	0x58024800

2400854c <QSPI_DMARxCplt>:
2400854c:	6c03      	ldr	r3, [r0, #64]	; 0x40
2400854e:	2200      	movs	r2, #0
24008550:	639a      	str	r2, [r3, #56]	; 0x38
24008552:	681a      	ldr	r2, [r3, #0]
24008554:	6813      	ldr	r3, [r2, #0]
24008556:	f443 3300 	orr.w	r3, r3, #131072	; 0x20000
2400855a:	6013      	str	r3, [r2, #0]
2400855c:	4770      	bx	lr

2400855e <QSPI_DMATxCplt>:
2400855e:	6c03      	ldr	r3, [r0, #64]	; 0x40
24008560:	2200      	movs	r2, #0
24008562:	62da      	str	r2, [r3, #44]	; 0x2c
24008564:	681a      	ldr	r2, [r3, #0]
24008566:	6813      	ldr	r3, [r2, #0]
24008568:	f443 3300 	orr.w	r3, r3, #131072	; 0x20000
2400856c:	6013      	str	r3, [r2, #0]
2400856e:	4770      	bx	lr

24008570 <QSPI_Config>:
24008570:	e92d 47f0 	stmdb	sp!, {r4, r5, r6, r7, r8, r9, sl, lr}
24008574:	6a4e      	ldr	r6, [r1, #36]	; 0x24
24008576:	b136      	cbz	r6, 24008586 <QSPI_Config+0x16>
24008578:	f1b2 6f40 	cmp.w	r2, #201326592	; 0xc000000
2400857c:	d003      	beq.n	24008586 <QSPI_Config+0x16>
2400857e:	6a8b      	ldr	r3, [r1, #40]	; 0x28
24008580:	6804      	ldr	r4, [r0, #0]
24008582:	3b01      	subs	r3, #1
24008584:	6123      	str	r3, [r4, #16]
24008586:	f8d1 9018 	ldr.w	r9, [r1, #24]
2400858a:	e9d1 7507 	ldrd	r7, r5, [r1, #28]
2400858e:	f1b9 0f00 	cmp.w	r9, #0
24008592:	d04f      	beq.n	24008634 <QSPI_Config+0xc4>
24008594:	694b      	ldr	r3, [r1, #20]
24008596:	ea46 0909 	orr.w	r9, r6, r9
2400859a:	6800      	ldr	r0, [r0, #0]
2400859c:	f8d1 a000 	ldr.w	sl, [r1]
240085a0:	ea4f 4c83 	mov.w	ip, r3, lsl #18
240085a4:	f8d1 e034 	ldr.w	lr, [r1, #52]	; 0x34
240085a8:	ea49 0902 	orr.w	r9, r9, r2
240085ac:	e9d1 480b 	ldrd	r4, r8, [r1, #44]	; 0x2c
240085b0:	b335      	cbz	r5, 24008600 <QSPI_Config+0x90>
240085b2:	688b      	ldr	r3, [r1, #8]
240085b4:	ea49 0505 	orr.w	r5, r9, r5
240085b8:	690e      	ldr	r6, [r1, #16]
240085ba:	61c3      	str	r3, [r0, #28]
240085bc:	b19f      	cbz	r7, 240085e6 <QSPI_Config+0x76>
240085be:	ea4a 0307 	orr.w	r3, sl, r7
240085c2:	4323      	orrs	r3, r4
240085c4:	68cc      	ldr	r4, [r1, #12]
240085c6:	ea43 0308 	orr.w	r3, r3, r8
240085ca:	ea43 030e 	orr.w	r3, r3, lr
240085ce:	4333      	orrs	r3, r6
240085d0:	4323      	orrs	r3, r4
240085d2:	ea43 030c 	orr.w	r3, r3, ip
240085d6:	432b      	orrs	r3, r5
240085d8:	f1b2 6f40 	cmp.w	r2, #201326592	; 0xc000000
240085dc:	6143      	str	r3, [r0, #20]
240085de:	d00d      	beq.n	240085fc <QSPI_Config+0x8c>
240085e0:	684b      	ldr	r3, [r1, #4]
240085e2:	6183      	str	r3, [r0, #24]
240085e4:	e00a      	b.n	240085fc <QSPI_Config+0x8c>
240085e6:	ea4a 0304 	orr.w	r3, sl, r4
240085ea:	ea43 0308 	orr.w	r3, r3, r8
240085ee:	ea43 030e 	orr.w	r3, r3, lr
240085f2:	4333      	orrs	r3, r6
240085f4:	ea43 030c 	orr.w	r3, r3, ip
240085f8:	432b      	orrs	r3, r5
240085fa:	6143      	str	r3, [r0, #20]
240085fc:	e8bd 87f0 	ldmia.w	sp!, {r4, r5, r6, r7, r8, r9, sl, pc}
24008600:	b16f      	cbz	r7, 2400861e <QSPI_Config+0xae>
24008602:	ea4a 0307 	orr.w	r3, sl, r7
24008606:	4323      	orrs	r3, r4
24008608:	68cc      	ldr	r4, [r1, #12]
2400860a:	ea43 0308 	orr.w	r3, r3, r8
2400860e:	ea43 030e 	orr.w	r3, r3, lr
24008612:	4323      	orrs	r3, r4
24008614:	ea43 030c 	orr.w	r3, r3, ip
24008618:	ea43 0309 	orr.w	r3, r3, r9
2400861c:	e7dc      	b.n	240085d8 <QSPI_Config+0x68>
2400861e:	ea4a 0304 	orr.w	r3, sl, r4
24008622:	ea43 0308 	orr.w	r3, r3, r8
24008626:	ea43 030e 	orr.w	r3, r3, lr
2400862a:	ea43 030c 	orr.w	r3, r3, ip
2400862e:	ea43 0309 	orr.w	r3, r3, r9
24008632:	e7e2      	b.n	240085fa <QSPI_Config+0x8a>
24008634:	b365      	cbz	r5, 24008690 <QSPI_Config+0x120>
24008636:	6804      	ldr	r4, [r0, #0]
24008638:	688b      	ldr	r3, [r1, #8]
2400863a:	6908      	ldr	r0, [r1, #16]
2400863c:	61e3      	str	r3, [r4, #28]
2400863e:	ea46 0305 	orr.w	r3, r6, r5
24008642:	694e      	ldr	r6, [r1, #20]
24008644:	ea43 0502 	orr.w	r5, r3, r2
24008648:	f8d1 c034 	ldr.w	ip, [r1, #52]	; 0x34
2400864c:	04b6      	lsls	r6, r6, #18
2400864e:	e9d1 830b 	ldrd	r8, r3, [r1, #44]	; 0x2c
24008652:	b1a7      	cbz	r7, 2400867e <QSPI_Config+0x10e>
24008654:	4338      	orrs	r0, r7
24008656:	f1b2 6f40 	cmp.w	r2, #201326592	; 0xc000000
2400865a:	ea40 0008 	orr.w	r0, r0, r8
2400865e:	ea43 0300 	orr.w	r3, r3, r0
24008662:	68c8      	ldr	r0, [r1, #12]
24008664:	ea43 030c 	orr.w	r3, r3, ip
24008668:	ea43 0300 	orr.w	r3, r3, r0
2400866c:	ea43 0306 	orr.w	r3, r3, r6
24008670:	ea43 0305 	orr.w	r3, r3, r5
24008674:	6163      	str	r3, [r4, #20]
24008676:	d0c1      	beq.n	240085fc <QSPI_Config+0x8c>
24008678:	684b      	ldr	r3, [r1, #4]
2400867a:	61a3      	str	r3, [r4, #24]
2400867c:	e7be      	b.n	240085fc <QSPI_Config+0x8c>
2400867e:	ea40 0008 	orr.w	r0, r0, r8
24008682:	4303      	orrs	r3, r0
24008684:	ea43 030c 	orr.w	r3, r3, ip
24008688:	4333      	orrs	r3, r6
2400868a:	432b      	orrs	r3, r5
2400868c:	6163      	str	r3, [r4, #20]
2400868e:	e7b5      	b.n	240085fc <QSPI_Config+0x8c>
24008690:	b17f      	cbz	r7, 240086b2 <QSPI_Config+0x142>
24008692:	ea46 0307 	orr.w	r3, r6, r7
24008696:	6acc      	ldr	r4, [r1, #44]	; 0x2c
24008698:	6800      	ldr	r0, [r0, #0]
2400869a:	4313      	orrs	r3, r2
2400869c:	4323      	orrs	r3, r4
2400869e:	6b0c      	ldr	r4, [r1, #48]	; 0x30
240086a0:	4323      	orrs	r3, r4
240086a2:	6b4c      	ldr	r4, [r1, #52]	; 0x34
240086a4:	4323      	orrs	r3, r4
240086a6:	68cc      	ldr	r4, [r1, #12]
240086a8:	4323      	orrs	r3, r4
240086aa:	694c      	ldr	r4, [r1, #20]
240086ac:	ea43 4384 	orr.w	r3, r3, r4, lsl #18
240086b0:	e792      	b.n	240085d8 <QSPI_Config+0x68>
240086b2:	2e00      	cmp	r6, #0
240086b4:	d0a2      	beq.n	240085fc <QSPI_Config+0x8c>
240086b6:	6acb      	ldr	r3, [r1, #44]	; 0x2c
240086b8:	6800      	ldr	r0, [r0, #0]
240086ba:	4333      	orrs	r3, r6
240086bc:	6b0e      	ldr	r6, [r1, #48]	; 0x30
240086be:	431a      	orrs	r2, r3
240086c0:	694b      	ldr	r3, [r1, #20]
240086c2:	4332      	orrs	r2, r6
240086c4:	6b4e      	ldr	r6, [r1, #52]	; 0x34
240086c6:	4332      	orrs	r2, r6
240086c8:	ea42 4283 	orr.w	r2, r2, r3, lsl #18
240086cc:	6142      	str	r2, [r0, #20]
240086ce:	e795      	b.n	240085fc <QSPI_Config+0x8c>

240086d0 <QSPI_WaitFlagStateUntilTimeout>:
240086d0:	e92d 41f0 	stmdb	sp!, {r4, r5, r6, r7, r8, lr}
240086d4:	f8dd 8018 	ldr.w	r8, [sp, #24]
240086d8:	4604      	mov	r4, r0
240086da:	460e      	mov	r6, r1
240086dc:	4615      	mov	r5, r2
240086de:	461f      	mov	r7, r3
240086e0:	6822      	ldr	r2, [r4, #0]
240086e2:	6893      	ldr	r3, [r2, #8]
240086e4:	4233      	tst	r3, r6
240086e6:	bf14      	ite	ne
240086e8:	2301      	movne	r3, #1
240086ea:	2300      	moveq	r3, #0
240086ec:	42ab      	cmp	r3, r5
240086ee:	d101      	bne.n	240086f4 <QSPI_WaitFlagStateUntilTimeout+0x24>
240086f0:	2000      	movs	r0, #0
240086f2:	e012      	b.n	2400871a <QSPI_WaitFlagStateUntilTimeout+0x4a>
240086f4:	f1b8 3fff 	cmp.w	r8, #4294967295
240086f8:	d0f3      	beq.n	240086e2 <QSPI_WaitFlagStateUntilTimeout+0x12>
240086fa:	f7f8 f853 	bl	240007a4 <HAL_GetTick>
240086fe:	1bc0      	subs	r0, r0, r7
24008700:	4540      	cmp	r0, r8
24008702:	d802      	bhi.n	2400870a <QSPI_WaitFlagStateUntilTimeout+0x3a>
24008704:	f1b8 0f00 	cmp.w	r8, #0
24008708:	d1ea      	bne.n	240086e0 <QSPI_WaitFlagStateUntilTimeout+0x10>
2400870a:	2304      	movs	r3, #4
2400870c:	2001      	movs	r0, #1
2400870e:	f884 3041 	strb.w	r3, [r4, #65]	; 0x41
24008712:	6c63      	ldr	r3, [r4, #68]	; 0x44
24008714:	f043 0301 	orr.w	r3, r3, #1
24008718:	6463      	str	r3, [r4, #68]	; 0x44
2400871a:	e8bd 81f0 	ldmia.w	sp!, {r4, r5, r6, r7, r8, pc}
2400871e:	4770      	bx	lr

24008720 <HAL_QSPI_Init>:
24008720:	b530      	push	{r4, r5, lr}
24008722:	4604      	mov	r4, r0
24008724:	b085      	sub	sp, #20
24008726:	f7f8 f83d 	bl	240007a4 <HAL_GetTick>
2400872a:	4603      	mov	r3, r0
2400872c:	2c00      	cmp	r4, #0
2400872e:	d040      	beq.n	240087b2 <HAL_QSPI_Init+0x92>
24008730:	f894 2041 	ldrb.w	r2, [r4, #65]	; 0x41
24008734:	b93a      	cbnz	r2, 24008746 <HAL_QSPI_Init+0x26>
24008736:	9003      	str	r0, [sp, #12]
24008738:	4620      	mov	r0, r4
2400873a:	f003 fa85 	bl	2400bc48 <HAL_QSPI_MspInit>
2400873e:	f241 3288 	movw	r2, #5000	; 0x1388
24008742:	9b03      	ldr	r3, [sp, #12]
24008744:	64a2      	str	r2, [r4, #72]	; 0x48
24008746:	6820      	ldr	r0, [r4, #0]
24008748:	68a1      	ldr	r1, [r4, #8]
2400874a:	6802      	ldr	r2, [r0, #0]
2400874c:	3901      	subs	r1, #1
2400874e:	f422 6270 	bic.w	r2, r2, #3840	; 0xf00
24008752:	ea42 2201 	orr.w	r2, r2, r1, lsl #8
24008756:	2120      	movs	r1, #32
24008758:	6002      	str	r2, [r0, #0]
2400875a:	4620      	mov	r0, r4
2400875c:	6ca2      	ldr	r2, [r4, #72]	; 0x48
2400875e:	9200      	str	r2, [sp, #0]
24008760:	2200      	movs	r2, #0
24008762:	f7ff ffb5 	bl	240086d0 <QSPI_WaitFlagStateUntilTimeout>
24008766:	bb10      	cbnz	r0, 240087ae <HAL_QSPI_Init+0x8e>
24008768:	6822      	ldr	r2, [r4, #0]
2400876a:	69e5      	ldr	r5, [r4, #28]
2400876c:	68e3      	ldr	r3, [r4, #12]
2400876e:	6811      	ldr	r1, [r2, #0]
24008770:	432b      	orrs	r3, r5
24008772:	6a25      	ldr	r5, [r4, #32]
24008774:	f021 417f 	bic.w	r1, r1, #4278190080	; 0xff000000
24008778:	432b      	orrs	r3, r5
2400877a:	6865      	ldr	r5, [r4, #4]
2400877c:	f021 01d0 	bic.w	r1, r1, #208	; 0xd0
24008780:	ea43 6305 	orr.w	r3, r3, r5, lsl #24
24008784:	430b      	orrs	r3, r1
24008786:	6013      	str	r3, [r2, #0]
24008788:	6855      	ldr	r5, [r2, #4]
2400878a:	e9d4 3105 	ldrd	r3, r1, [r4, #20]
2400878e:	430b      	orrs	r3, r1
24008790:	6921      	ldr	r1, [r4, #16]
24008792:	ea43 4301 	orr.w	r3, r3, r1, lsl #16
24008796:	4908      	ldr	r1, [pc, #32]	; (240087b8 <HAL_QSPI_Init+0x98>)
24008798:	4029      	ands	r1, r5
2400879a:	430b      	orrs	r3, r1
2400879c:	6053      	str	r3, [r2, #4]
2400879e:	6813      	ldr	r3, [r2, #0]
240087a0:	f043 0301 	orr.w	r3, r3, #1
240087a4:	6013      	str	r3, [r2, #0]
240087a6:	2301      	movs	r3, #1
240087a8:	6460      	str	r0, [r4, #68]	; 0x44
240087aa:	f884 3041 	strb.w	r3, [r4, #65]	; 0x41
240087ae:	b005      	add	sp, #20
240087b0:	bd30      	pop	{r4, r5, pc}
240087b2:	2001      	movs	r0, #1
240087b4:	e7fb      	b.n	240087ae <HAL_QSPI_Init+0x8e>
240087b6:	bf00      	nop
240087b8:	ffe0f8fe 	.word	0xffe0f8fe
240087bc:	4770      	bx	lr

240087be <HAL_QSPI_DeInit>:
240087be:	b510      	push	{r4, lr}
240087c0:	4604      	mov	r4, r0
240087c2:	b158      	cbz	r0, 240087dc <HAL_QSPI_DeInit+0x1e>
240087c4:	6802      	ldr	r2, [r0, #0]
240087c6:	6813      	ldr	r3, [r2, #0]
240087c8:	f023 0301 	bic.w	r3, r3, #1
240087cc:	6013      	str	r3, [r2, #0]
240087ce:	f003 fa9d 	bl	2400bd0c <HAL_QSPI_MspDeInit>
240087d2:	2000      	movs	r0, #0
240087d4:	6460      	str	r0, [r4, #68]	; 0x44
240087d6:	f884 0041 	strb.w	r0, [r4, #65]	; 0x41
240087da:	bd10      	pop	{r4, pc}
240087dc:	2001      	movs	r0, #1
240087de:	e7fc      	b.n	240087da <HAL_QSPI_DeInit+0x1c>

240087e0 <HAL_QSPI_Command>:
240087e0:	e92d 43f0 	stmdb	sp!, {r4, r5, r6, r7, r8, r9, lr}
240087e4:	4604      	mov	r4, r0
240087e6:	b085      	sub	sp, #20
240087e8:	4617      	mov	r7, r2
240087ea:	4689      	mov	r9, r1
240087ec:	f7f7 ffda 	bl	240007a4 <HAL_GetTick>
240087f0:	f894 2040 	ldrb.w	r2, [r4, #64]	; 0x40
240087f4:	4603      	mov	r3, r0
240087f6:	2a01      	cmp	r2, #1
240087f8:	d033      	beq.n	24008862 <HAL_QSPI_Command+0x82>
240087fa:	2201      	movs	r2, #1
240087fc:	2602      	movs	r6, #2
240087fe:	f884 2040 	strb.w	r2, [r4, #64]	; 0x40
24008802:	f894 2041 	ldrb.w	r2, [r4, #65]	; 0x41
24008806:	2a01      	cmp	r2, #1
24008808:	fa5f f882 	uxtb.w	r8, r2
2400880c:	d127      	bne.n	2400885e <HAL_QSPI_Command+0x7e>
2400880e:	2200      	movs	r2, #0
24008810:	9003      	str	r0, [sp, #12]
24008812:	2120      	movs	r1, #32
24008814:	4620      	mov	r0, r4
24008816:	6462      	str	r2, [r4, #68]	; 0x44
24008818:	9700      	str	r7, [sp, #0]
2400881a:	f884 6041 	strb.w	r6, [r4, #65]	; 0x41
2400881e:	f7ff ff57 	bl	240086d0 <QSPI_WaitFlagStateUntilTimeout>
24008822:	4605      	mov	r5, r0
24008824:	b9a0      	cbnz	r0, 24008850 <HAL_QSPI_Command+0x70>
24008826:	4602      	mov	r2, r0
24008828:	4649      	mov	r1, r9
2400882a:	4620      	mov	r0, r4
2400882c:	f7ff fea0 	bl	24008570 <QSPI_Config>
24008830:	f8d9 2024 	ldr.w	r2, [r9, #36]	; 0x24
24008834:	9b03      	ldr	r3, [sp, #12]
24008836:	b94a      	cbnz	r2, 2400884c <HAL_QSPI_Command+0x6c>
24008838:	4642      	mov	r2, r8
2400883a:	4631      	mov	r1, r6
2400883c:	4620      	mov	r0, r4
2400883e:	9700      	str	r7, [sp, #0]
24008840:	f7ff ff46 	bl	240086d0 <QSPI_WaitFlagStateUntilTimeout>
24008844:	4605      	mov	r5, r0
24008846:	b918      	cbnz	r0, 24008850 <HAL_QSPI_Command+0x70>
24008848:	6823      	ldr	r3, [r4, #0]
2400884a:	60de      	str	r6, [r3, #12]
2400884c:	f884 8041 	strb.w	r8, [r4, #65]	; 0x41
24008850:	2300      	movs	r3, #0
24008852:	f884 3040 	strb.w	r3, [r4, #64]	; 0x40
24008856:	4628      	mov	r0, r5
24008858:	b005      	add	sp, #20
2400885a:	e8bd 83f0 	ldmia.w	sp!, {r4, r5, r6, r7, r8, r9, pc}
2400885e:	4635      	mov	r5, r6
24008860:	e7f6      	b.n	24008850 <HAL_QSPI_Command+0x70>
24008862:	2502      	movs	r5, #2
24008864:	e7f7      	b.n	24008856 <HAL_QSPI_Command+0x76>

24008866 <HAL_QSPI_Command_IT>:
24008866:	b5f7      	push	{r0, r1, r2, r4, r5, r6, r7, lr}
24008868:	4604      	mov	r4, r0
2400886a:	460f      	mov	r7, r1
2400886c:	f7f7 ff9a 	bl	240007a4 <HAL_GetTick>
24008870:	4603      	mov	r3, r0
24008872:	f894 2040 	ldrb.w	r2, [r4, #64]	; 0x40
24008876:	2a01      	cmp	r2, #1
24008878:	d034      	beq.n	240088e4 <HAL_QSPI_Command_IT+0x7e>
2400887a:	2201      	movs	r2, #1
2400887c:	2600      	movs	r6, #0
2400887e:	2502      	movs	r5, #2
24008880:	f884 2040 	strb.w	r2, [r4, #64]	; 0x40
24008884:	f894 2041 	ldrb.w	r2, [r4, #65]	; 0x41
24008888:	2a01      	cmp	r2, #1
2400888a:	d128      	bne.n	240088de <HAL_QSPI_Command_IT+0x78>
2400888c:	6ca2      	ldr	r2, [r4, #72]	; 0x48
2400888e:	2120      	movs	r1, #32
24008890:	6466      	str	r6, [r4, #68]	; 0x44
24008892:	4620      	mov	r0, r4
24008894:	f884 5041 	strb.w	r5, [r4, #65]	; 0x41
24008898:	9200      	str	r2, [sp, #0]
2400889a:	4632      	mov	r2, r6
2400889c:	f7ff ff18 	bl	240086d0 <QSPI_WaitFlagStateUntilTimeout>
240088a0:	4605      	mov	r5, r0
240088a2:	b9e0      	cbnz	r0, 240088de <HAL_QSPI_Command_IT+0x78>
240088a4:	6a7b      	ldr	r3, [r7, #36]	; 0x24
240088a6:	b913      	cbnz	r3, 240088ae <HAL_QSPI_Command_IT+0x48>
240088a8:	6823      	ldr	r3, [r4, #0]
240088aa:	2203      	movs	r2, #3
240088ac:	60da      	str	r2, [r3, #12]
240088ae:	2200      	movs	r2, #0
240088b0:	4639      	mov	r1, r7
240088b2:	4620      	mov	r0, r4
240088b4:	f7ff fe5c 	bl	24008570 <QSPI_Config>
240088b8:	6a7b      	ldr	r3, [r7, #36]	; 0x24
240088ba:	b94b      	cbnz	r3, 240088d0 <HAL_QSPI_Command_IT+0x6a>
240088bc:	6822      	ldr	r2, [r4, #0]
240088be:	f884 3040 	strb.w	r3, [r4, #64]	; 0x40
240088c2:	6813      	ldr	r3, [r2, #0]
240088c4:	f443 3340 	orr.w	r3, r3, #196608	; 0x30000
240088c8:	6013      	str	r3, [r2, #0]
240088ca:	4628      	mov	r0, r5
240088cc:	b003      	add	sp, #12
240088ce:	bdf0      	pop	{r4, r5, r6, r7, pc}
240088d0:	2301      	movs	r3, #1
240088d2:	f884 3041 	strb.w	r3, [r4, #65]	; 0x41
240088d6:	2300      	movs	r3, #0
240088d8:	f884 3040 	strb.w	r3, [r4, #64]	; 0x40
240088dc:	e7f5      	b.n	240088ca <HAL_QSPI_Command_IT+0x64>
240088de:	f884 6040 	strb.w	r6, [r4, #64]	; 0x40
240088e2:	e7f2      	b.n	240088ca <HAL_QSPI_Command_IT+0x64>
240088e4:	2502      	movs	r5, #2
240088e6:	e7f0      	b.n	240088ca <HAL_QSPI_Command_IT+0x64>

240088e8 <HAL_QSPI_Transmit>:
240088e8:	b5f0      	push	{r4, r5, r6, r7, lr}
240088ea:	4604      	mov	r4, r0
240088ec:	b085      	sub	sp, #20
240088ee:	4616      	mov	r6, r2
240088f0:	460f      	mov	r7, r1
240088f2:	f7f7 ff57 	bl	240007a4 <HAL_GetTick>
240088f6:	f894 2040 	ldrb.w	r2, [r4, #64]	; 0x40
240088fa:	4603      	mov	r3, r0
240088fc:	6825      	ldr	r5, [r4, #0]
240088fe:	2a01      	cmp	r2, #1
24008900:	d049      	beq.n	24008996 <HAL_QSPI_Transmit+0xae>
24008902:	2201      	movs	r2, #1
24008904:	f884 2040 	strb.w	r2, [r4, #64]	; 0x40
24008908:	f894 2041 	ldrb.w	r2, [r4, #65]	; 0x41
2400890c:	2a01      	cmp	r2, #1
2400890e:	b2d0      	uxtb	r0, r2
24008910:	d13f      	bne.n	24008992 <HAL_QSPI_Transmit+0xaa>
24008912:	2200      	movs	r2, #0
24008914:	6462      	str	r2, [r4, #68]	; 0x44
24008916:	2f00      	cmp	r7, #0
24008918:	d036      	beq.n	24008988 <HAL_QSPI_Transmit+0xa0>
2400891a:	2212      	movs	r2, #18
2400891c:	f884 2041 	strb.w	r2, [r4, #65]	; 0x41
24008920:	692a      	ldr	r2, [r5, #16]
24008922:	3201      	adds	r2, #1
24008924:	62e2      	str	r2, [r4, #44]	; 0x2c
24008926:	692a      	ldr	r2, [r5, #16]
24008928:	6267      	str	r7, [r4, #36]	; 0x24
2400892a:	3201      	adds	r2, #1
2400892c:	62a2      	str	r2, [r4, #40]	; 0x28
2400892e:	696a      	ldr	r2, [r5, #20]
24008930:	f022 6240 	bic.w	r2, r2, #201326592	; 0xc000000
24008934:	616a      	str	r2, [r5, #20]
24008936:	6ae2      	ldr	r2, [r4, #44]	; 0x2c
24008938:	b98a      	cbnz	r2, 2400895e <HAL_QSPI_Transmit+0x76>
2400893a:	2201      	movs	r2, #1
2400893c:	2102      	movs	r1, #2
2400893e:	4620      	mov	r0, r4
24008940:	9600      	str	r6, [sp, #0]
24008942:	f7ff fec5 	bl	240086d0 <QSPI_WaitFlagStateUntilTimeout>
24008946:	b910      	cbnz	r0, 2400894e <HAL_QSPI_Transmit+0x66>
24008948:	6823      	ldr	r3, [r4, #0]
2400894a:	2202      	movs	r2, #2
2400894c:	60da      	str	r2, [r3, #12]
2400894e:	2301      	movs	r3, #1
24008950:	f884 3041 	strb.w	r3, [r4, #65]	; 0x41
24008954:	2300      	movs	r3, #0
24008956:	f884 3040 	strb.w	r3, [r4, #64]	; 0x40
2400895a:	b005      	add	sp, #20
2400895c:	bdf0      	pop	{r4, r5, r6, r7, pc}
2400895e:	2201      	movs	r2, #1
24008960:	2104      	movs	r1, #4
24008962:	4620      	mov	r0, r4
24008964:	9600      	str	r6, [sp, #0]
24008966:	9303      	str	r3, [sp, #12]
24008968:	f7ff feb2 	bl	240086d0 <QSPI_WaitFlagStateUntilTimeout>
2400896c:	2800      	cmp	r0, #0
2400896e:	d1ee      	bne.n	2400894e <HAL_QSPI_Transmit+0x66>
24008970:	6a62      	ldr	r2, [r4, #36]	; 0x24
24008972:	9b03      	ldr	r3, [sp, #12]
24008974:	7812      	ldrb	r2, [r2, #0]
24008976:	f885 2020 	strb.w	r2, [r5, #32]
2400897a:	6a62      	ldr	r2, [r4, #36]	; 0x24
2400897c:	3201      	adds	r2, #1
2400897e:	6262      	str	r2, [r4, #36]	; 0x24
24008980:	6ae2      	ldr	r2, [r4, #44]	; 0x2c
24008982:	3a01      	subs	r2, #1
24008984:	62e2      	str	r2, [r4, #44]	; 0x2c
24008986:	e7d6      	b.n	24008936 <HAL_QSPI_Transmit+0x4e>
24008988:	6c63      	ldr	r3, [r4, #68]	; 0x44
2400898a:	f043 0308 	orr.w	r3, r3, #8
2400898e:	6463      	str	r3, [r4, #68]	; 0x44
24008990:	e7e0      	b.n	24008954 <HAL_QSPI_Transmit+0x6c>
24008992:	2002      	movs	r0, #2
24008994:	e7de      	b.n	24008954 <HAL_QSPI_Transmit+0x6c>
24008996:	2002      	movs	r0, #2
24008998:	e7df      	b.n	2400895a <HAL_QSPI_Transmit+0x72>

2400899a <HAL_QSPI_Receive>:
2400899a:	b5f0      	push	{r4, r5, r6, r7, lr}
2400899c:	4604      	mov	r4, r0
2400899e:	b085      	sub	sp, #20
240089a0:	4616      	mov	r6, r2
240089a2:	460f      	mov	r7, r1
240089a4:	f7f7 fefe 	bl	240007a4 <HAL_GetTick>
240089a8:	6825      	ldr	r5, [r4, #0]
240089aa:	4603      	mov	r3, r0
240089ac:	f8d5 c018 	ldr.w	ip, [r5, #24]
240089b0:	f894 2040 	ldrb.w	r2, [r4, #64]	; 0x40
240089b4:	2a01      	cmp	r2, #1
240089b6:	d04d      	beq.n	24008a54 <HAL_QSPI_Receive+0xba>
240089b8:	2201      	movs	r2, #1
240089ba:	f884 2040 	strb.w	r2, [r4, #64]	; 0x40
240089be:	f894 2041 	ldrb.w	r2, [r4, #65]	; 0x41
240089c2:	2a01      	cmp	r2, #1
240089c4:	b2d0      	uxtb	r0, r2
240089c6:	d143      	bne.n	24008a50 <HAL_QSPI_Receive+0xb6>
240089c8:	2200      	movs	r2, #0
240089ca:	6462      	str	r2, [r4, #68]	; 0x44
240089cc:	2f00      	cmp	r7, #0
240089ce:	d03a      	beq.n	24008a46 <HAL_QSPI_Receive+0xac>
240089d0:	2222      	movs	r2, #34	; 0x22
240089d2:	f884 2041 	strb.w	r2, [r4, #65]	; 0x41
240089d6:	692a      	ldr	r2, [r5, #16]
240089d8:	3201      	adds	r2, #1
240089da:	63a2      	str	r2, [r4, #56]	; 0x38
240089dc:	692a      	ldr	r2, [r5, #16]
240089de:	6327      	str	r7, [r4, #48]	; 0x30
240089e0:	3201      	adds	r2, #1
240089e2:	6362      	str	r2, [r4, #52]	; 0x34
240089e4:	6969      	ldr	r1, [r5, #20]
240089e6:	f021 6140 	bic.w	r1, r1, #201326592	; 0xc000000
240089ea:	f041 6180 	orr.w	r1, r1, #67108864	; 0x4000000
240089ee:	6169      	str	r1, [r5, #20]
240089f0:	f8c5 c018 	str.w	ip, [r5, #24]
240089f4:	6ba2      	ldr	r2, [r4, #56]	; 0x38
240089f6:	b98a      	cbnz	r2, 24008a1c <HAL_QSPI_Receive+0x82>
240089f8:	2201      	movs	r2, #1
240089fa:	2102      	movs	r1, #2
240089fc:	4620      	mov	r0, r4
240089fe:	9600      	str	r6, [sp, #0]
24008a00:	f7ff fe66 	bl	240086d0 <QSPI_WaitFlagStateUntilTimeout>
24008a04:	b910      	cbnz	r0, 24008a0c <HAL_QSPI_Receive+0x72>
24008a06:	6823      	ldr	r3, [r4, #0]
24008a08:	2202      	movs	r2, #2
24008a0a:	60da      	str	r2, [r3, #12]
24008a0c:	2301      	movs	r3, #1
24008a0e:	f884 3041 	strb.w	r3, [r4, #65]	; 0x41
24008a12:	2300      	movs	r3, #0
24008a14:	f884 3040 	strb.w	r3, [r4, #64]	; 0x40
24008a18:	b005      	add	sp, #20
24008a1a:	bdf0      	pop	{r4, r5, r6, r7, pc}
24008a1c:	2201      	movs	r2, #1
24008a1e:	2106      	movs	r1, #6
24008a20:	4620      	mov	r0, r4
24008a22:	9600      	str	r6, [sp, #0]
24008a24:	9303      	str	r3, [sp, #12]
24008a26:	f7ff fe53 	bl	240086d0 <QSPI_WaitFlagStateUntilTimeout>
24008a2a:	2800      	cmp	r0, #0
24008a2c:	d1ee      	bne.n	24008a0c <HAL_QSPI_Receive+0x72>
24008a2e:	f895 1020 	ldrb.w	r1, [r5, #32]
24008a32:	6b22      	ldr	r2, [r4, #48]	; 0x30
24008a34:	9b03      	ldr	r3, [sp, #12]
24008a36:	7011      	strb	r1, [r2, #0]
24008a38:	6b22      	ldr	r2, [r4, #48]	; 0x30
24008a3a:	3201      	adds	r2, #1
24008a3c:	6322      	str	r2, [r4, #48]	; 0x30
24008a3e:	6ba2      	ldr	r2, [r4, #56]	; 0x38
24008a40:	3a01      	subs	r2, #1
24008a42:	63a2      	str	r2, [r4, #56]	; 0x38
24008a44:	e7d6      	b.n	240089f4 <HAL_QSPI_Receive+0x5a>
24008a46:	6c63      	ldr	r3, [r4, #68]	; 0x44
24008a48:	f043 0308 	orr.w	r3, r3, #8
24008a4c:	6463      	str	r3, [r4, #68]	; 0x44
24008a4e:	e7e0      	b.n	24008a12 <HAL_QSPI_Receive+0x78>
24008a50:	2002      	movs	r0, #2
24008a52:	e7de      	b.n	24008a12 <HAL_QSPI_Receive+0x78>
24008a54:	2002      	movs	r0, #2
24008a56:	e7df      	b.n	24008a18 <HAL_QSPI_Receive+0x7e>

24008a58 <HAL_QSPI_Transmit_IT>:
24008a58:	b510      	push	{r4, lr}
24008a5a:	f890 3040 	ldrb.w	r3, [r0, #64]	; 0x40
24008a5e:	2b01      	cmp	r3, #1
24008a60:	d02e      	beq.n	24008ac0 <HAL_QSPI_Transmit_IT+0x68>
24008a62:	2301      	movs	r3, #1
24008a64:	f880 3040 	strb.w	r3, [r0, #64]	; 0x40
24008a68:	f890 2041 	ldrb.w	r2, [r0, #65]	; 0x41
24008a6c:	2a01      	cmp	r2, #1
24008a6e:	b2d3      	uxtb	r3, r2
24008a70:	f04f 0200 	mov.w	r2, #0
24008a74:	d122      	bne.n	24008abc <HAL_QSPI_Transmit_IT+0x64>
24008a76:	6442      	str	r2, [r0, #68]	; 0x44
24008a78:	b1c9      	cbz	r1, 24008aae <HAL_QSPI_Transmit_IT+0x56>
24008a7a:	2312      	movs	r3, #18
24008a7c:	f880 3041 	strb.w	r3, [r0, #65]	; 0x41
24008a80:	6803      	ldr	r3, [r0, #0]
24008a82:	691c      	ldr	r4, [r3, #16]
24008a84:	3401      	adds	r4, #1
24008a86:	62c4      	str	r4, [r0, #44]	; 0x2c
24008a88:	691c      	ldr	r4, [r3, #16]
24008a8a:	6241      	str	r1, [r0, #36]	; 0x24
24008a8c:	2103      	movs	r1, #3
24008a8e:	3401      	adds	r4, #1
24008a90:	6284      	str	r4, [r0, #40]	; 0x28
24008a92:	60d9      	str	r1, [r3, #12]
24008a94:	6959      	ldr	r1, [r3, #20]
24008a96:	f021 6140 	bic.w	r1, r1, #201326592	; 0xc000000
24008a9a:	6159      	str	r1, [r3, #20]
24008a9c:	f880 2040 	strb.w	r2, [r0, #64]	; 0x40
24008aa0:	6819      	ldr	r1, [r3, #0]
24008aa2:	f441 21e0 	orr.w	r1, r1, #458752	; 0x70000
24008aa6:	6019      	str	r1, [r3, #0]
24008aa8:	4613      	mov	r3, r2
24008aaa:	4618      	mov	r0, r3
24008aac:	bd10      	pop	{r4, pc}
24008aae:	6c42      	ldr	r2, [r0, #68]	; 0x44
24008ab0:	f042 0208 	orr.w	r2, r2, #8
24008ab4:	6442      	str	r2, [r0, #68]	; 0x44
24008ab6:	f880 1040 	strb.w	r1, [r0, #64]	; 0x40
24008aba:	e7f6      	b.n	24008aaa <HAL_QSPI_Transmit_IT+0x52>
24008abc:	f880 2040 	strb.w	r2, [r0, #64]	; 0x40
24008ac0:	2302      	movs	r3, #2
24008ac2:	e7f2      	b.n	24008aaa <HAL_QSPI_Transmit_IT+0x52>

24008ac4 <HAL_QSPI_Receive_IT>:
24008ac4:	6803      	ldr	r3, [r0, #0]
24008ac6:	b530      	push	{r4, r5, lr}
24008ac8:	699d      	ldr	r5, [r3, #24]
24008aca:	f890 2040 	ldrb.w	r2, [r0, #64]	; 0x40
24008ace:	2a01      	cmp	r2, #1
24008ad0:	d030      	beq.n	24008b34 <HAL_QSPI_Receive_IT+0x70>
24008ad2:	2201      	movs	r2, #1
24008ad4:	f880 2040 	strb.w	r2, [r0, #64]	; 0x40
24008ad8:	f890 4041 	ldrb.w	r4, [r0, #65]	; 0x41
24008adc:	2c01      	cmp	r4, #1
24008ade:	b2e2      	uxtb	r2, r4
24008ae0:	f04f 0400 	mov.w	r4, #0
24008ae4:	d124      	bne.n	24008b30 <HAL_QSPI_Receive_IT+0x6c>
24008ae6:	6444      	str	r4, [r0, #68]	; 0x44
24008ae8:	b1d9      	cbz	r1, 24008b22 <HAL_QSPI_Receive_IT+0x5e>
24008aea:	2222      	movs	r2, #34	; 0x22
24008aec:	f880 2041 	strb.w	r2, [r0, #65]	; 0x41
24008af0:	691a      	ldr	r2, [r3, #16]
24008af2:	3201      	adds	r2, #1
24008af4:	6382      	str	r2, [r0, #56]	; 0x38
24008af6:	691a      	ldr	r2, [r3, #16]
24008af8:	6301      	str	r1, [r0, #48]	; 0x30
24008afa:	3201      	adds	r2, #1
24008afc:	6342      	str	r2, [r0, #52]	; 0x34
24008afe:	2203      	movs	r2, #3
24008b00:	60da      	str	r2, [r3, #12]
24008b02:	695a      	ldr	r2, [r3, #20]
24008b04:	f022 6240 	bic.w	r2, r2, #201326592	; 0xc000000
24008b08:	f042 6280 	orr.w	r2, r2, #67108864	; 0x4000000
24008b0c:	615a      	str	r2, [r3, #20]
24008b0e:	619d      	str	r5, [r3, #24]
24008b10:	f880 4040 	strb.w	r4, [r0, #64]	; 0x40
24008b14:	681a      	ldr	r2, [r3, #0]
24008b16:	f442 22e0 	orr.w	r2, r2, #458752	; 0x70000
24008b1a:	601a      	str	r2, [r3, #0]
24008b1c:	4622      	mov	r2, r4
24008b1e:	4610      	mov	r0, r2
24008b20:	bd30      	pop	{r4, r5, pc}
24008b22:	6c43      	ldr	r3, [r0, #68]	; 0x44
24008b24:	f043 0308 	orr.w	r3, r3, #8
24008b28:	6443      	str	r3, [r0, #68]	; 0x44
24008b2a:	f880 1040 	strb.w	r1, [r0, #64]	; 0x40
24008b2e:	e7f6      	b.n	24008b1e <HAL_QSPI_Receive_IT+0x5a>
24008b30:	f880 4040 	strb.w	r4, [r0, #64]	; 0x40
24008b34:	2202      	movs	r2, #2
24008b36:	e7f2      	b.n	24008b1e <HAL_QSPI_Receive_IT+0x5a>

24008b38 <HAL_QSPI_Transmit_DMA>:
24008b38:	b5f7      	push	{r0, r1, r2, r4, r5, r6, r7, lr}
24008b3a:	6802      	ldr	r2, [r0, #0]
24008b3c:	4604      	mov	r4, r0
24008b3e:	6913      	ldr	r3, [r2, #16]
24008b40:	f890 0040 	ldrb.w	r0, [r0, #64]	; 0x40
24008b44:	2801      	cmp	r0, #1
24008b46:	d07c      	beq.n	24008c42 <HAL_QSPI_Transmit_DMA+0x10a>
24008b48:	2001      	movs	r0, #1
24008b4a:	2500      	movs	r5, #0
24008b4c:	f884 0040 	strb.w	r0, [r4, #64]	; 0x40
24008b50:	f894 0041 	ldrb.w	r0, [r4, #65]	; 0x41
24008b54:	2801      	cmp	r0, #1
24008b56:	b2c7      	uxtb	r7, r0
24008b58:	d171      	bne.n	24008c3e <HAL_QSPI_Transmit_DMA+0x106>
24008b5a:	6465      	str	r5, [r4, #68]	; 0x44
24008b5c:	2900      	cmp	r1, #0
24008b5e:	d067      	beq.n	24008c30 <HAL_QSPI_Transmit_DMA+0xf8>
24008b60:	3301      	adds	r3, #1
24008b62:	6be0      	ldr	r0, [r4, #60]	; 0x3c
24008b64:	62e3      	str	r3, [r4, #44]	; 0x2c
24008b66:	2312      	movs	r3, #18
24008b68:	f884 3041 	strb.w	r3, [r4, #65]	; 0x41
24008b6c:	2303      	movs	r3, #3
24008b6e:	6806      	ldr	r6, [r0, #0]
24008b70:	60d3      	str	r3, [r2, #12]
24008b72:	6ae3      	ldr	r3, [r4, #44]	; 0x2c
24008b74:	6261      	str	r1, [r4, #36]	; 0x24
24008b76:	62a3      	str	r3, [r4, #40]	; 0x28
24008b78:	6953      	ldr	r3, [r2, #20]
24008b7a:	f8d0 c01c 	ldr.w	ip, [r0, #28]
24008b7e:	f023 6340 	bic.w	r3, r3, #201326592	; 0xc000000
24008b82:	6153      	str	r3, [r2, #20]
24008b84:	4b30      	ldr	r3, [pc, #192]	; (24008c48 <HAL_QSPI_Transmit_DMA+0x110>)
24008b86:	6443      	str	r3, [r0, #68]	; 0x44
24008b88:	4b30      	ldr	r3, [pc, #192]	; (24008c4c <HAL_QSPI_Transmit_DMA+0x114>)
24008b8a:	e9c0 3515 	strd	r3, r5, [r0, #84]	; 0x54
24008b8e:	6933      	ldr	r3, [r6, #16]
24008b90:	f423 6340 	bic.w	r3, r3, #3072	; 0xc00
24008b94:	f023 030c 	bic.w	r3, r3, #12
24008b98:	6133      	str	r3, [r6, #16]
24008b9a:	f1bc 0f00 	cmp.w	ip, #0
24008b9e:	d11e      	bne.n	24008bde <HAL_QSPI_Transmit_DMA+0xa6>
24008ba0:	6933      	ldr	r3, [r6, #16]
24008ba2:	4665      	mov	r5, ip
24008ba4:	f423 7340 	bic.w	r3, r3, #768	; 0x300
24008ba8:	f023 0303 	bic.w	r3, r3, #3
24008bac:	f043 0302 	orr.w	r3, r3, #2
24008bb0:	6133      	str	r3, [r6, #16]
24008bb2:	2601      	movs	r6, #1
24008bb4:	6aa3      	ldr	r3, [r4, #40]	; 0x28
24008bb6:	3220      	adds	r2, #32
24008bb8:	9600      	str	r6, [sp, #0]
24008bba:	f7fe ff1b 	bl	240079f4 <HAL_MDMA_Start_IT>
24008bbe:	bb68      	cbnz	r0, 24008c1c <HAL_QSPI_Transmit_DMA+0xe4>
24008bc0:	6823      	ldr	r3, [r4, #0]
24008bc2:	462f      	mov	r7, r5
24008bc4:	f884 0040 	strb.w	r0, [r4, #64]	; 0x40
24008bc8:	681a      	ldr	r2, [r3, #0]
24008bca:	f442 3280 	orr.w	r2, r2, #65536	; 0x10000
24008bce:	601a      	str	r2, [r3, #0]
24008bd0:	681a      	ldr	r2, [r3, #0]
24008bd2:	f042 0204 	orr.w	r2, r2, #4
24008bd6:	601a      	str	r2, [r3, #0]
24008bd8:	4638      	mov	r0, r7
24008bda:	b003      	add	sp, #12
24008bdc:	bdf0      	pop	{r4, r5, r6, r7, pc}
24008bde:	f1bc 0f10 	cmp.w	ip, #16
24008be2:	d108      	bne.n	24008bf6 <HAL_QSPI_Transmit_DMA+0xbe>
24008be4:	6933      	ldr	r3, [r6, #16]
24008be6:	f423 7340 	bic.w	r3, r3, #768	; 0x300
24008bea:	f023 0303 	bic.w	r3, r3, #3
24008bee:	f443 7381 	orr.w	r3, r3, #258	; 0x102
24008bf2:	6133      	str	r3, [r6, #16]
24008bf4:	e7dd      	b.n	24008bb2 <HAL_QSPI_Transmit_DMA+0x7a>
24008bf6:	f1bc 0f20 	cmp.w	ip, #32
24008bfa:	d109      	bne.n	24008c10 <HAL_QSPI_Transmit_DMA+0xd8>
24008bfc:	6933      	ldr	r3, [r6, #16]
24008bfe:	f423 7340 	bic.w	r3, r3, #768	; 0x300
24008c02:	f023 0303 	bic.w	r3, r3, #3
24008c06:	f443 7300 	orr.w	r3, r3, #512	; 0x200
24008c0a:	f043 0302 	orr.w	r3, r3, #2
24008c0e:	e7f0      	b.n	24008bf2 <HAL_QSPI_Transmit_DMA+0xba>
24008c10:	6c63      	ldr	r3, [r4, #68]	; 0x44
24008c12:	463d      	mov	r5, r7
24008c14:	f043 0304 	orr.w	r3, r3, #4
24008c18:	6463      	str	r3, [r4, #68]	; 0x44
24008c1a:	e7ca      	b.n	24008bb2 <HAL_QSPI_Transmit_DMA+0x7a>
24008c1c:	6c63      	ldr	r3, [r4, #68]	; 0x44
24008c1e:	f043 0304 	orr.w	r3, r3, #4
24008c22:	6463      	str	r3, [r4, #68]	; 0x44
24008c24:	2300      	movs	r3, #0
24008c26:	f884 6041 	strb.w	r6, [r4, #65]	; 0x41
24008c2a:	f884 3040 	strb.w	r3, [r4, #64]	; 0x40
24008c2e:	e7d3      	b.n	24008bd8 <HAL_QSPI_Transmit_DMA+0xa0>
24008c30:	6c63      	ldr	r3, [r4, #68]	; 0x44
24008c32:	f043 0308 	orr.w	r3, r3, #8
24008c36:	6463      	str	r3, [r4, #68]	; 0x44
24008c38:	f884 1040 	strb.w	r1, [r4, #64]	; 0x40
24008c3c:	e7cc      	b.n	24008bd8 <HAL_QSPI_Transmit_DMA+0xa0>
24008c3e:	f884 5040 	strb.w	r5, [r4, #64]	; 0x40
24008c42:	2702      	movs	r7, #2
24008c44:	e7c8      	b.n	24008bd8 <HAL_QSPI_Transmit_DMA+0xa0>
24008c46:	bf00      	nop
24008c48:	2400855f 	.word	0x2400855f
24008c4c:	24009261 	.word	0x24009261

24008c50 <HAL_QSPI_Receive_DMA>:
24008c50:	e92d 41f3 	stmdb	sp!, {r0, r1, r4, r5, r6, r7, r8, lr}
24008c54:	6806      	ldr	r6, [r0, #0]
24008c56:	4604      	mov	r4, r0
24008c58:	69b2      	ldr	r2, [r6, #24]
24008c5a:	6933      	ldr	r3, [r6, #16]
24008c5c:	f890 0040 	ldrb.w	r0, [r0, #64]	; 0x40
24008c60:	2801      	cmp	r0, #1
24008c62:	f000 8088 	beq.w	24008d76 <HAL_QSPI_Receive_DMA+0x126>
24008c66:	2001      	movs	r0, #1
24008c68:	f04f 0c00 	mov.w	ip, #0
24008c6c:	f884 0040 	strb.w	r0, [r4, #64]	; 0x40
24008c70:	f894 0041 	ldrb.w	r0, [r4, #65]	; 0x41
24008c74:	2801      	cmp	r0, #1
24008c76:	b2c7      	uxtb	r7, r0
24008c78:	d17b      	bne.n	24008d72 <HAL_QSPI_Receive_DMA+0x122>
24008c7a:	f8c4 c044 	str.w	ip, [r4, #68]	; 0x44
24008c7e:	2900      	cmp	r1, #0
24008c80:	d070      	beq.n	24008d64 <HAL_QSPI_Receive_DMA+0x114>
24008c82:	3301      	adds	r3, #1
24008c84:	6be0      	ldr	r0, [r4, #60]	; 0x3c
24008c86:	63a3      	str	r3, [r4, #56]	; 0x38
24008c88:	2322      	movs	r3, #34	; 0x22
24008c8a:	f884 3041 	strb.w	r3, [r4, #65]	; 0x41
24008c8e:	2303      	movs	r3, #3
24008c90:	6805      	ldr	r5, [r0, #0]
24008c92:	60f3      	str	r3, [r6, #12]
24008c94:	6ba3      	ldr	r3, [r4, #56]	; 0x38
24008c96:	6321      	str	r1, [r4, #48]	; 0x30
24008c98:	6363      	str	r3, [r4, #52]	; 0x34
24008c9a:	4b38      	ldr	r3, [pc, #224]	; (24008d7c <HAL_QSPI_Receive_DMA+0x12c>)
24008c9c:	f8d0 e020 	ldr.w	lr, [r0, #32]
24008ca0:	6443      	str	r3, [r0, #68]	; 0x44
24008ca2:	4b37      	ldr	r3, [pc, #220]	; (24008d80 <HAL_QSPI_Receive_DMA+0x130>)
24008ca4:	e9c0 3c15 	strd	r3, ip, [r0, #84]	; 0x54
24008ca8:	692b      	ldr	r3, [r5, #16]
24008caa:	f423 7340 	bic.w	r3, r3, #768	; 0x300
24008cae:	f023 0303 	bic.w	r3, r3, #3
24008cb2:	612b      	str	r3, [r5, #16]
24008cb4:	f1be 0f00 	cmp.w	lr, #0
24008cb8:	d12a      	bne.n	24008d10 <HAL_QSPI_Receive_DMA+0xc0>
24008cba:	692b      	ldr	r3, [r5, #16]
24008cbc:	f423 6340 	bic.w	r3, r3, #3072	; 0xc00
24008cc0:	f023 030c 	bic.w	r3, r3, #12
24008cc4:	f043 0308 	orr.w	r3, r3, #8
24008cc8:	612b      	str	r3, [r5, #16]
24008cca:	4675      	mov	r5, lr
24008ccc:	6973      	ldr	r3, [r6, #20]
24008cce:	f04f 0801 	mov.w	r8, #1
24008cd2:	f023 6340 	bic.w	r3, r3, #201326592	; 0xc000000
24008cd6:	f043 6380 	orr.w	r3, r3, #67108864	; 0x4000000
24008cda:	6173      	str	r3, [r6, #20]
24008cdc:	61b2      	str	r2, [r6, #24]
24008cde:	460a      	mov	r2, r1
24008ce0:	6b63      	ldr	r3, [r4, #52]	; 0x34
24008ce2:	f106 0120 	add.w	r1, r6, #32
24008ce6:	f8cd 8000 	str.w	r8, [sp]
24008cea:	f7fe fe83 	bl	240079f4 <HAL_MDMA_Start_IT>
24008cee:	bb78      	cbnz	r0, 24008d50 <HAL_QSPI_Receive_DMA+0x100>
24008cf0:	6823      	ldr	r3, [r4, #0]
24008cf2:	462f      	mov	r7, r5
24008cf4:	f884 0040 	strb.w	r0, [r4, #64]	; 0x40
24008cf8:	681a      	ldr	r2, [r3, #0]
24008cfa:	f442 3280 	orr.w	r2, r2, #65536	; 0x10000
24008cfe:	601a      	str	r2, [r3, #0]
24008d00:	681a      	ldr	r2, [r3, #0]
24008d02:	f042 0204 	orr.w	r2, r2, #4
24008d06:	601a      	str	r2, [r3, #0]
24008d08:	4638      	mov	r0, r7
24008d0a:	b002      	add	sp, #8
24008d0c:	e8bd 81f0 	ldmia.w	sp!, {r4, r5, r6, r7, r8, pc}
24008d10:	f1be 0f40 	cmp.w	lr, #64	; 0x40
24008d14:	d109      	bne.n	24008d2a <HAL_QSPI_Receive_DMA+0xda>
24008d16:	692b      	ldr	r3, [r5, #16]
24008d18:	f423 6340 	bic.w	r3, r3, #3072	; 0xc00
24008d1c:	f023 030c 	bic.w	r3, r3, #12
24008d20:	f443 6381 	orr.w	r3, r3, #1032	; 0x408
24008d24:	612b      	str	r3, [r5, #16]
24008d26:	4665      	mov	r5, ip
24008d28:	e7d0      	b.n	24008ccc <HAL_QSPI_Receive_DMA+0x7c>
24008d2a:	f1be 0f80 	cmp.w	lr, #128	; 0x80
24008d2e:	d109      	bne.n	24008d44 <HAL_QSPI_Receive_DMA+0xf4>
24008d30:	692b      	ldr	r3, [r5, #16]
24008d32:	f423 6340 	bic.w	r3, r3, #3072	; 0xc00
24008d36:	f023 030c 	bic.w	r3, r3, #12
24008d3a:	f443 6300 	orr.w	r3, r3, #2048	; 0x800
24008d3e:	f043 0308 	orr.w	r3, r3, #8
24008d42:	e7ef      	b.n	24008d24 <HAL_QSPI_Receive_DMA+0xd4>
24008d44:	6c63      	ldr	r3, [r4, #68]	; 0x44
24008d46:	463d      	mov	r5, r7
24008d48:	f043 0304 	orr.w	r3, r3, #4
24008d4c:	6463      	str	r3, [r4, #68]	; 0x44
24008d4e:	e7bd      	b.n	24008ccc <HAL_QSPI_Receive_DMA+0x7c>
24008d50:	6c63      	ldr	r3, [r4, #68]	; 0x44
24008d52:	f043 0304 	orr.w	r3, r3, #4
24008d56:	6463      	str	r3, [r4, #68]	; 0x44
24008d58:	2300      	movs	r3, #0
24008d5a:	f884 8041 	strb.w	r8, [r4, #65]	; 0x41
24008d5e:	f884 3040 	strb.w	r3, [r4, #64]	; 0x40
24008d62:	e7d1      	b.n	24008d08 <HAL_QSPI_Receive_DMA+0xb8>
24008d64:	6c63      	ldr	r3, [r4, #68]	; 0x44
24008d66:	f043 0308 	orr.w	r3, r3, #8
24008d6a:	6463      	str	r3, [r4, #68]	; 0x44
24008d6c:	f884 1040 	strb.w	r1, [r4, #64]	; 0x40
24008d70:	e7ca      	b.n	24008d08 <HAL_QSPI_Receive_DMA+0xb8>
24008d72:	f884 c040 	strb.w	ip, [r4, #64]	; 0x40
24008d76:	2702      	movs	r7, #2
24008d78:	e7c6      	b.n	24008d08 <HAL_QSPI_Receive_DMA+0xb8>
24008d7a:	bf00      	nop
24008d7c:	2400854d 	.word	0x2400854d
24008d80:	24009261 	.word	0x24009261

24008d84 <HAL_QSPI_AutoPolling>:
24008d84:	e92d 41ff 	stmdb	sp!, {r0, r1, r2, r3, r4, r5, r6, r7, r8, lr}
24008d88:	4604      	mov	r4, r0
24008d8a:	4615      	mov	r5, r2
24008d8c:	461e      	mov	r6, r3
24008d8e:	4688      	mov	r8, r1
24008d90:	f7f7 fd08 	bl	240007a4 <HAL_GetTick>
24008d94:	f894 2040 	ldrb.w	r2, [r4, #64]	; 0x40
24008d98:	4603      	mov	r3, r0
24008d9a:	2a01      	cmp	r2, #1
24008d9c:	d040      	beq.n	24008e20 <HAL_QSPI_AutoPolling+0x9c>
24008d9e:	2201      	movs	r2, #1
24008da0:	f884 2040 	strb.w	r2, [r4, #64]	; 0x40
24008da4:	f894 2041 	ldrb.w	r2, [r4, #65]	; 0x41
24008da8:	2a01      	cmp	r2, #1
24008daa:	b2d7      	uxtb	r7, r2
24008dac:	d136      	bne.n	24008e1c <HAL_QSPI_AutoPolling+0x98>
24008dae:	2142      	movs	r1, #66	; 0x42
24008db0:	2200      	movs	r2, #0
24008db2:	9003      	str	r0, [sp, #12]
24008db4:	4620      	mov	r0, r4
24008db6:	6462      	str	r2, [r4, #68]	; 0x44
24008db8:	9600      	str	r6, [sp, #0]
24008dba:	f884 1041 	strb.w	r1, [r4, #65]	; 0x41
24008dbe:	2120      	movs	r1, #32
24008dc0:	f7ff fc86 	bl	240086d0 <QSPI_WaitFlagStateUntilTimeout>
24008dc4:	bb20      	cbnz	r0, 24008e10 <HAL_QSPI_AutoPolling+0x8c>
24008dc6:	6821      	ldr	r1, [r4, #0]
24008dc8:	682a      	ldr	r2, [r5, #0]
24008dca:	6928      	ldr	r0, [r5, #16]
24008dcc:	628a      	str	r2, [r1, #40]	; 0x28
24008dce:	686a      	ldr	r2, [r5, #4]
24008dd0:	624a      	str	r2, [r1, #36]	; 0x24
24008dd2:	68aa      	ldr	r2, [r5, #8]
24008dd4:	62ca      	str	r2, [r1, #44]	; 0x2c
24008dd6:	680a      	ldr	r2, [r1, #0]
24008dd8:	f422 0240 	bic.w	r2, r2, #12582912	; 0xc00000
24008ddc:	4302      	orrs	r2, r0
24008dde:	4620      	mov	r0, r4
24008de0:	f442 0280 	orr.w	r2, r2, #4194304	; 0x400000
24008de4:	600a      	str	r2, [r1, #0]
24008de6:	4641      	mov	r1, r8
24008de8:	68ea      	ldr	r2, [r5, #12]
24008dea:	f8c8 2028 	str.w	r2, [r8, #40]	; 0x28
24008dee:	f04f 6200 	mov.w	r2, #134217728	; 0x8000000
24008df2:	f7ff fbbd 	bl	24008570 <QSPI_Config>
24008df6:	9b03      	ldr	r3, [sp, #12]
24008df8:	463a      	mov	r2, r7
24008dfa:	2108      	movs	r1, #8
24008dfc:	4620      	mov	r0, r4
24008dfe:	9600      	str	r6, [sp, #0]
24008e00:	f7ff fc66 	bl	240086d0 <QSPI_WaitFlagStateUntilTimeout>
24008e04:	b920      	cbnz	r0, 24008e10 <HAL_QSPI_AutoPolling+0x8c>
24008e06:	6823      	ldr	r3, [r4, #0]
24008e08:	2208      	movs	r2, #8
24008e0a:	60da      	str	r2, [r3, #12]
24008e0c:	f884 7041 	strb.w	r7, [r4, #65]	; 0x41
24008e10:	2300      	movs	r3, #0
24008e12:	f884 3040 	strb.w	r3, [r4, #64]	; 0x40
24008e16:	b004      	add	sp, #16
24008e18:	e8bd 81f0 	ldmia.w	sp!, {r4, r5, r6, r7, r8, pc}
24008e1c:	2002      	movs	r0, #2
24008e1e:	e7f7      	b.n	24008e10 <HAL_QSPI_AutoPolling+0x8c>
24008e20:	2002      	movs	r0, #2
24008e22:	e7f8      	b.n	24008e16 <HAL_QSPI_AutoPolling+0x92>

24008e24 <HAL_QSPI_AutoPolling_IT>:
24008e24:	e92d 41f3 	stmdb	sp!, {r0, r1, r4, r5, r6, r7, r8, lr}
24008e28:	4604      	mov	r4, r0
24008e2a:	4615      	mov	r5, r2
24008e2c:	460f      	mov	r7, r1
24008e2e:	f7f7 fcb9 	bl	240007a4 <HAL_GetTick>
24008e32:	f894 2040 	ldrb.w	r2, [r4, #64]	; 0x40
24008e36:	4603      	mov	r3, r0
24008e38:	2a01      	cmp	r2, #1
24008e3a:	d03f      	beq.n	24008ebc <HAL_QSPI_AutoPolling_IT+0x98>
24008e3c:	2201      	movs	r2, #1
24008e3e:	f04f 0800 	mov.w	r8, #0
24008e42:	f884 2040 	strb.w	r2, [r4, #64]	; 0x40
24008e46:	f894 2041 	ldrb.w	r2, [r4, #65]	; 0x41
24008e4a:	2a01      	cmp	r2, #1
24008e4c:	d134      	bne.n	24008eb8 <HAL_QSPI_AutoPolling_IT+0x94>
24008e4e:	2242      	movs	r2, #66	; 0x42
24008e50:	f8c4 8044 	str.w	r8, [r4, #68]	; 0x44
24008e54:	2120      	movs	r1, #32
24008e56:	4620      	mov	r0, r4
24008e58:	f884 2041 	strb.w	r2, [r4, #65]	; 0x41
24008e5c:	6ca2      	ldr	r2, [r4, #72]	; 0x48
24008e5e:	9200      	str	r2, [sp, #0]
24008e60:	4642      	mov	r2, r8
24008e62:	f7ff fc35 	bl	240086d0 <QSPI_WaitFlagStateUntilTimeout>
24008e66:	4606      	mov	r6, r0
24008e68:	bb18      	cbnz	r0, 24008eb2 <HAL_QSPI_AutoPolling_IT+0x8e>
24008e6a:	6823      	ldr	r3, [r4, #0]
24008e6c:	682a      	ldr	r2, [r5, #0]
24008e6e:	629a      	str	r2, [r3, #40]	; 0x28
24008e70:	686a      	ldr	r2, [r5, #4]
24008e72:	625a      	str	r2, [r3, #36]	; 0x24
24008e74:	68aa      	ldr	r2, [r5, #8]
24008e76:	62da      	str	r2, [r3, #44]	; 0x2c
24008e78:	6819      	ldr	r1, [r3, #0]
24008e7a:	e9d5 2004 	ldrd	r2, r0, [r5, #16]
24008e7e:	f421 0140 	bic.w	r1, r1, #12582912	; 0xc00000
24008e82:	4302      	orrs	r2, r0
24008e84:	4620      	mov	r0, r4
24008e86:	430a      	orrs	r2, r1
24008e88:	4639      	mov	r1, r7
24008e8a:	601a      	str	r2, [r3, #0]
24008e8c:	2209      	movs	r2, #9
24008e8e:	60da      	str	r2, [r3, #12]
24008e90:	f04f 6200 	mov.w	r2, #134217728	; 0x8000000
24008e94:	68eb      	ldr	r3, [r5, #12]
24008e96:	62bb      	str	r3, [r7, #40]	; 0x28
24008e98:	f7ff fb6a 	bl	24008570 <QSPI_Config>
24008e9c:	6822      	ldr	r2, [r4, #0]
24008e9e:	f884 6040 	strb.w	r6, [r4, #64]	; 0x40
24008ea2:	6813      	ldr	r3, [r2, #0]
24008ea4:	f443 2310 	orr.w	r3, r3, #589824	; 0x90000
24008ea8:	6013      	str	r3, [r2, #0]
24008eaa:	4630      	mov	r0, r6
24008eac:	b002      	add	sp, #8
24008eae:	e8bd 81f0 	ldmia.w	sp!, {r4, r5, r6, r7, r8, pc}
24008eb2:	f884 8040 	strb.w	r8, [r4, #64]	; 0x40
24008eb6:	e7f8      	b.n	24008eaa <HAL_QSPI_AutoPolling_IT+0x86>
24008eb8:	f884 8040 	strb.w	r8, [r4, #64]	; 0x40
24008ebc:	2602      	movs	r6, #2
24008ebe:	e7f4      	b.n	24008eaa <HAL_QSPI_AutoPolling_IT+0x86>

24008ec0 <HAL_QSPI_MemoryMapped>:
24008ec0:	b5f7      	push	{r0, r1, r2, r4, r5, r6, r7, lr}
24008ec2:	4604      	mov	r4, r0
24008ec4:	4616      	mov	r6, r2
24008ec6:	460f      	mov	r7, r1
24008ec8:	f7f7 fc6c 	bl	240007a4 <HAL_GetTick>
24008ecc:	f894 2040 	ldrb.w	r2, [r4, #64]	; 0x40
24008ed0:	4603      	mov	r3, r0
24008ed2:	2a01      	cmp	r2, #1
24008ed4:	d033      	beq.n	24008f3e <HAL_QSPI_MemoryMapped+0x7e>
24008ed6:	2201      	movs	r2, #1
24008ed8:	f884 2040 	strb.w	r2, [r4, #64]	; 0x40
24008edc:	f894 2041 	ldrb.w	r2, [r4, #65]	; 0x41
24008ee0:	2a01      	cmp	r2, #1
24008ee2:	d12a      	bne.n	24008f3a <HAL_QSPI_MemoryMapped+0x7a>
24008ee4:	2200      	movs	r2, #0
24008ee6:	2182      	movs	r1, #130	; 0x82
24008ee8:	4620      	mov	r0, r4
24008eea:	6462      	str	r2, [r4, #68]	; 0x44
24008eec:	f884 1041 	strb.w	r1, [r4, #65]	; 0x41
24008ef0:	6ca1      	ldr	r1, [r4, #72]	; 0x48
24008ef2:	9100      	str	r1, [sp, #0]
24008ef4:	2120      	movs	r1, #32
24008ef6:	f7ff fbeb 	bl	240086d0 <QSPI_WaitFlagStateUntilTimeout>
24008efa:	4605      	mov	r5, r0
24008efc:	b9b8      	cbnz	r0, 24008f2e <HAL_QSPI_MemoryMapped+0x6e>
24008efe:	6823      	ldr	r3, [r4, #0]
24008f00:	6872      	ldr	r2, [r6, #4]
24008f02:	6818      	ldr	r0, [r3, #0]
24008f04:	2a08      	cmp	r2, #8
24008f06:	f020 0008 	bic.w	r0, r0, #8
24008f0a:	ea40 0002 	orr.w	r0, r0, r2
24008f0e:	6018      	str	r0, [r3, #0]
24008f10:	d107      	bne.n	24008f22 <HAL_QSPI_MemoryMapped+0x62>
24008f12:	6832      	ldr	r2, [r6, #0]
24008f14:	631a      	str	r2, [r3, #48]	; 0x30
24008f16:	2210      	movs	r2, #16
24008f18:	60da      	str	r2, [r3, #12]
24008f1a:	681a      	ldr	r2, [r3, #0]
24008f1c:	f442 1280 	orr.w	r2, r2, #1048576	; 0x100000
24008f20:	601a      	str	r2, [r3, #0]
24008f22:	f04f 6240 	mov.w	r2, #201326592	; 0xc000000
24008f26:	4639      	mov	r1, r7
24008f28:	4620      	mov	r0, r4
24008f2a:	f7ff fb21 	bl	24008570 <QSPI_Config>
24008f2e:	2300      	movs	r3, #0
24008f30:	f884 3040 	strb.w	r3, [r4, #64]	; 0x40
24008f34:	4628      	mov	r0, r5
24008f36:	b003      	add	sp, #12
24008f38:	bdf0      	pop	{r4, r5, r6, r7, pc}
24008f3a:	2502      	movs	r5, #2
24008f3c:	e7f7      	b.n	24008f2e <HAL_QSPI_MemoryMapped+0x6e>
24008f3e:	2502      	movs	r5, #2
24008f40:	e7f8      	b.n	24008f34 <HAL_QSPI_MemoryMapped+0x74>

24008f42 <HAL_QSPI_ErrorCallback>:
24008f42:	4770      	bx	lr

24008f44 <QSPI_DMAAbortCplt>:
24008f44:	b508      	push	{r3, lr}
24008f46:	6c00      	ldr	r0, [r0, #64]	; 0x40
24008f48:	2300      	movs	r3, #0
24008f4a:	6383      	str	r3, [r0, #56]	; 0x38
24008f4c:	62c3      	str	r3, [r0, #44]	; 0x2c
24008f4e:	f890 3041 	ldrb.w	r3, [r0, #65]	; 0x41
24008f52:	2b08      	cmp	r3, #8
24008f54:	d10b      	bne.n	24008f6e <QSPI_DMAAbortCplt+0x2a>
24008f56:	6803      	ldr	r3, [r0, #0]
24008f58:	2202      	movs	r2, #2
24008f5a:	60da      	str	r2, [r3, #12]
24008f5c:	681a      	ldr	r2, [r3, #0]
24008f5e:	f442 3200 	orr.w	r2, r2, #131072	; 0x20000
24008f62:	601a      	str	r2, [r3, #0]
24008f64:	681a      	ldr	r2, [r3, #0]
24008f66:	f042 0202 	orr.w	r2, r2, #2
24008f6a:	601a      	str	r2, [r3, #0]
24008f6c:	bd08      	pop	{r3, pc}
24008f6e:	2301      	movs	r3, #1
24008f70:	f880 3041 	strb.w	r3, [r0, #65]	; 0x41
24008f74:	f7ff ffe5 	bl	24008f42 <HAL_QSPI_ErrorCallback>
24008f78:	e7f8      	b.n	24008f6c <QSPI_DMAAbortCplt+0x28>

24008f7a <HAL_QSPI_AbortCpltCallback>:
24008f7a:	4770      	bx	lr

24008f7c <HAL_QSPI_CmdCpltCallback>:
24008f7c:	4770      	bx	lr

24008f7e <HAL_QSPI_RxCpltCallback>:
24008f7e:	4770      	bx	lr

24008f80 <HAL_QSPI_TxCpltCallback>:
24008f80:	4770      	bx	lr

24008f82 <HAL_QSPI_FifoThresholdCallback>:
24008f82:	4770      	bx	lr

24008f84 <HAL_QSPI_StatusMatchCallback>:
24008f84:	4770      	bx	lr

24008f86 <HAL_QSPI_TimeOutCallback>:
24008f86:	4770      	bx	lr

24008f88 <HAL_QSPI_IRQHandler>:
24008f88:	b538      	push	{r3, r4, r5, lr}
24008f8a:	6803      	ldr	r3, [r0, #0]
24008f8c:	4604      	mov	r4, r0
24008f8e:	6899      	ldr	r1, [r3, #8]
24008f90:	681a      	ldr	r2, [r3, #0]
24008f92:	0748      	lsls	r0, r1, #29
24008f94:	d534      	bpl.n	24009000 <HAL_QSPI_IRQHandler+0x78>
24008f96:	0355      	lsls	r5, r2, #13
24008f98:	d532      	bpl.n	24009000 <HAL_QSPI_IRQHandler+0x78>
24008f9a:	f894 2041 	ldrb.w	r2, [r4, #65]	; 0x41
24008f9e:	2a12      	cmp	r2, #18
24008fa0:	d114      	bne.n	24008fcc <HAL_QSPI_IRQHandler+0x44>
24008fa2:	6822      	ldr	r2, [r4, #0]
24008fa4:	6891      	ldr	r1, [r2, #8]
24008fa6:	0748      	lsls	r0, r1, #29
24008fa8:	d403      	bmi.n	24008fb2 <HAL_QSPI_IRQHandler+0x2a>
24008faa:	4620      	mov	r0, r4
24008fac:	f7ff ffe9 	bl	24008f82 <HAL_QSPI_FifoThresholdCallback>
24008fb0:	bd38      	pop	{r3, r4, r5, pc}
24008fb2:	6ae1      	ldr	r1, [r4, #44]	; 0x2c
24008fb4:	b1f9      	cbz	r1, 24008ff6 <HAL_QSPI_IRQHandler+0x6e>
24008fb6:	6a62      	ldr	r2, [r4, #36]	; 0x24
24008fb8:	7812      	ldrb	r2, [r2, #0]
24008fba:	f883 2020 	strb.w	r2, [r3, #32]
24008fbe:	6a62      	ldr	r2, [r4, #36]	; 0x24
24008fc0:	3201      	adds	r2, #1
24008fc2:	6262      	str	r2, [r4, #36]	; 0x24
24008fc4:	6ae2      	ldr	r2, [r4, #44]	; 0x2c
24008fc6:	3a01      	subs	r2, #1
24008fc8:	62e2      	str	r2, [r4, #44]	; 0x2c
24008fca:	e7ea      	b.n	24008fa2 <HAL_QSPI_IRQHandler+0x1a>
24008fcc:	f894 2041 	ldrb.w	r2, [r4, #65]	; 0x41
24008fd0:	2a22      	cmp	r2, #34	; 0x22
24008fd2:	d1ea      	bne.n	24008faa <HAL_QSPI_IRQHandler+0x22>
24008fd4:	6822      	ldr	r2, [r4, #0]
24008fd6:	6891      	ldr	r1, [r2, #8]
24008fd8:	0749      	lsls	r1, r1, #29
24008fda:	d5e6      	bpl.n	24008faa <HAL_QSPI_IRQHandler+0x22>
24008fdc:	6ba1      	ldr	r1, [r4, #56]	; 0x38
24008fde:	b151      	cbz	r1, 24008ff6 <HAL_QSPI_IRQHandler+0x6e>
24008fe0:	f893 1020 	ldrb.w	r1, [r3, #32]
24008fe4:	6b22      	ldr	r2, [r4, #48]	; 0x30
24008fe6:	7011      	strb	r1, [r2, #0]
24008fe8:	6b22      	ldr	r2, [r4, #48]	; 0x30
24008fea:	3201      	adds	r2, #1
24008fec:	6322      	str	r2, [r4, #48]	; 0x30
24008fee:	6ba2      	ldr	r2, [r4, #56]	; 0x38
24008ff0:	3a01      	subs	r2, #1
24008ff2:	63a2      	str	r2, [r4, #56]	; 0x38
24008ff4:	e7ee      	b.n	24008fd4 <HAL_QSPI_IRQHandler+0x4c>
24008ff6:	6813      	ldr	r3, [r2, #0]
24008ff8:	f423 2380 	bic.w	r3, r3, #262144	; 0x40000
24008ffc:	6013      	str	r3, [r2, #0]
24008ffe:	e7d4      	b.n	24008faa <HAL_QSPI_IRQHandler+0x22>
24009000:	078d      	lsls	r5, r1, #30
24009002:	d568      	bpl.n	240090d6 <HAL_QSPI_IRQHandler+0x14e>
24009004:	0390      	lsls	r0, r2, #14
24009006:	d566      	bpl.n	240090d6 <HAL_QSPI_IRQHandler+0x14e>
24009008:	2202      	movs	r2, #2
2400900a:	60da      	str	r2, [r3, #12]
2400900c:	681a      	ldr	r2, [r3, #0]
2400900e:	f422 22e0 	bic.w	r2, r2, #458752	; 0x70000
24009012:	601a      	str	r2, [r3, #0]
24009014:	f894 2041 	ldrb.w	r2, [r4, #65]	; 0x41
24009018:	2a12      	cmp	r2, #18
2400901a:	d113      	bne.n	24009044 <HAL_QSPI_IRQHandler+0xbc>
2400901c:	681a      	ldr	r2, [r3, #0]
2400901e:	0751      	lsls	r1, r2, #29
24009020:	d509      	bpl.n	24009036 <HAL_QSPI_IRQHandler+0xae>
24009022:	681a      	ldr	r2, [r3, #0]
24009024:	f022 0204 	bic.w	r2, r2, #4
24009028:	601a      	str	r2, [r3, #0]
2400902a:	6be3      	ldr	r3, [r4, #60]	; 0x3c
2400902c:	681a      	ldr	r2, [r3, #0]
2400902e:	68d3      	ldr	r3, [r2, #12]
24009030:	f023 0301 	bic.w	r3, r3, #1
24009034:	60d3      	str	r3, [r2, #12]
24009036:	2301      	movs	r3, #1
24009038:	4620      	mov	r0, r4
2400903a:	f884 3041 	strb.w	r3, [r4, #65]	; 0x41
2400903e:	f7ff ff9f 	bl	24008f80 <HAL_QSPI_TxCpltCallback>
24009042:	e7b5      	b.n	24008fb0 <HAL_QSPI_IRQHandler+0x28>
24009044:	f894 2041 	ldrb.w	r2, [r4, #65]	; 0x41
24009048:	2a22      	cmp	r2, #34	; 0x22
2400904a:	d126      	bne.n	2400909a <HAL_QSPI_IRQHandler+0x112>
2400904c:	681a      	ldr	r2, [r3, #0]
2400904e:	0752      	lsls	r2, r2, #29
24009050:	d51d      	bpl.n	2400908e <HAL_QSPI_IRQHandler+0x106>
24009052:	681a      	ldr	r2, [r3, #0]
24009054:	f022 0204 	bic.w	r2, r2, #4
24009058:	601a      	str	r2, [r3, #0]
2400905a:	6be3      	ldr	r3, [r4, #60]	; 0x3c
2400905c:	681a      	ldr	r2, [r3, #0]
2400905e:	68d3      	ldr	r3, [r2, #12]
24009060:	f023 0301 	bic.w	r3, r3, #1
24009064:	60d3      	str	r3, [r2, #12]
24009066:	2301      	movs	r3, #1
24009068:	4620      	mov	r0, r4
2400906a:	f884 3041 	strb.w	r3, [r4, #65]	; 0x41
2400906e:	f7ff ff86 	bl	24008f7e <HAL_QSPI_RxCpltCallback>
24009072:	e79d      	b.n	24008fb0 <HAL_QSPI_IRQHandler+0x28>
24009074:	6ba2      	ldr	r2, [r4, #56]	; 0x38
24009076:	2a00      	cmp	r2, #0
24009078:	d0f5      	beq.n	24009066 <HAL_QSPI_IRQHandler+0xde>
2400907a:	f893 1020 	ldrb.w	r1, [r3, #32]
2400907e:	6b22      	ldr	r2, [r4, #48]	; 0x30
24009080:	7011      	strb	r1, [r2, #0]
24009082:	6b22      	ldr	r2, [r4, #48]	; 0x30
24009084:	3201      	adds	r2, #1
24009086:	6322      	str	r2, [r4, #48]	; 0x30
24009088:	6ba2      	ldr	r2, [r4, #56]	; 0x38
2400908a:	3a01      	subs	r2, #1
2400908c:	63a2      	str	r2, [r4, #56]	; 0x38
2400908e:	6822      	ldr	r2, [r4, #0]
24009090:	6892      	ldr	r2, [r2, #8]
24009092:	f412 5f7c 	tst.w	r2, #16128	; 0x3f00
24009096:	d1ed      	bne.n	24009074 <HAL_QSPI_IRQHandler+0xec>
24009098:	e7e5      	b.n	24009066 <HAL_QSPI_IRQHandler+0xde>
2400909a:	f894 2041 	ldrb.w	r2, [r4, #65]	; 0x41
2400909e:	2a02      	cmp	r2, #2
240090a0:	d106      	bne.n	240090b0 <HAL_QSPI_IRQHandler+0x128>
240090a2:	2301      	movs	r3, #1
240090a4:	4620      	mov	r0, r4
240090a6:	f884 3041 	strb.w	r3, [r4, #65]	; 0x41
240090aa:	f7ff ff67 	bl	24008f7c <HAL_QSPI_CmdCpltCallback>
240090ae:	e77f      	b.n	24008fb0 <HAL_QSPI_IRQHandler+0x28>
240090b0:	f894 2041 	ldrb.w	r2, [r4, #65]	; 0x41
240090b4:	2a08      	cmp	r2, #8
240090b6:	f47f af7b 	bne.w	24008fb0 <HAL_QSPI_IRQHandler+0x28>
240090ba:	695a      	ldr	r2, [r3, #20]
240090bc:	4620      	mov	r0, r4
240090be:	f022 6240 	bic.w	r2, r2, #201326592	; 0xc000000
240090c2:	615a      	str	r2, [r3, #20]
240090c4:	2301      	movs	r3, #1
240090c6:	f884 3041 	strb.w	r3, [r4, #65]	; 0x41
240090ca:	6c63      	ldr	r3, [r4, #68]	; 0x44
240090cc:	2b00      	cmp	r3, #0
240090ce:	d13a      	bne.n	24009146 <HAL_QSPI_IRQHandler+0x1be>
240090d0:	f7ff ff53 	bl	24008f7a <HAL_QSPI_AbortCpltCallback>
240090d4:	e76c      	b.n	24008fb0 <HAL_QSPI_IRQHandler+0x28>
240090d6:	070d      	lsls	r5, r1, #28
240090d8:	d511      	bpl.n	240090fe <HAL_QSPI_IRQHandler+0x176>
240090da:	0310      	lsls	r0, r2, #12
240090dc:	d50f      	bpl.n	240090fe <HAL_QSPI_IRQHandler+0x176>
240090de:	2208      	movs	r2, #8
240090e0:	60da      	str	r2, [r3, #12]
240090e2:	681a      	ldr	r2, [r3, #0]
240090e4:	0255      	lsls	r5, r2, #9
240090e6:	d506      	bpl.n	240090f6 <HAL_QSPI_IRQHandler+0x16e>
240090e8:	681a      	ldr	r2, [r3, #0]
240090ea:	f422 2210 	bic.w	r2, r2, #589824	; 0x90000
240090ee:	601a      	str	r2, [r3, #0]
240090f0:	2301      	movs	r3, #1
240090f2:	f884 3041 	strb.w	r3, [r4, #65]	; 0x41
240090f6:	4620      	mov	r0, r4
240090f8:	f7ff ff44 	bl	24008f84 <HAL_QSPI_StatusMatchCallback>
240090fc:	e758      	b.n	24008fb0 <HAL_QSPI_IRQHandler+0x28>
240090fe:	07c8      	lsls	r0, r1, #31
24009100:	d524      	bpl.n	2400914c <HAL_QSPI_IRQHandler+0x1c4>
24009102:	03d5      	lsls	r5, r2, #15
24009104:	d522      	bpl.n	2400914c <HAL_QSPI_IRQHandler+0x1c4>
24009106:	2501      	movs	r5, #1
24009108:	60dd      	str	r5, [r3, #12]
2400910a:	681a      	ldr	r2, [r3, #0]
2400910c:	f422 2270 	bic.w	r2, r2, #983040	; 0xf0000
24009110:	601a      	str	r2, [r3, #0]
24009112:	6c62      	ldr	r2, [r4, #68]	; 0x44
24009114:	f042 0202 	orr.w	r2, r2, #2
24009118:	6462      	str	r2, [r4, #68]	; 0x44
2400911a:	681a      	ldr	r2, [r3, #0]
2400911c:	0750      	lsls	r0, r2, #29
2400911e:	d50f      	bpl.n	24009140 <HAL_QSPI_IRQHandler+0x1b8>
24009120:	681a      	ldr	r2, [r3, #0]
24009122:	6be0      	ldr	r0, [r4, #60]	; 0x3c
24009124:	f022 0204 	bic.w	r2, r2, #4
24009128:	601a      	str	r2, [r3, #0]
2400912a:	4b0e      	ldr	r3, [pc, #56]	; (24009164 <HAL_QSPI_IRQHandler+0x1dc>)
2400912c:	6583      	str	r3, [r0, #88]	; 0x58
2400912e:	f7fe fce3 	bl	24007af8 <HAL_MDMA_Abort_IT>
24009132:	2800      	cmp	r0, #0
24009134:	f43f af3c 	beq.w	24008fb0 <HAL_QSPI_IRQHandler+0x28>
24009138:	6c63      	ldr	r3, [r4, #68]	; 0x44
2400913a:	f043 0304 	orr.w	r3, r3, #4
2400913e:	6463      	str	r3, [r4, #68]	; 0x44
24009140:	4620      	mov	r0, r4
24009142:	f884 5041 	strb.w	r5, [r4, #65]	; 0x41
24009146:	f7ff fefc 	bl	24008f42 <HAL_QSPI_ErrorCallback>
2400914a:	e731      	b.n	24008fb0 <HAL_QSPI_IRQHandler+0x28>
2400914c:	06c9      	lsls	r1, r1, #27
2400914e:	f57f af2f 	bpl.w	24008fb0 <HAL_QSPI_IRQHandler+0x28>
24009152:	02d2      	lsls	r2, r2, #11
24009154:	f57f af2c 	bpl.w	24008fb0 <HAL_QSPI_IRQHandler+0x28>
24009158:	2210      	movs	r2, #16
2400915a:	4620      	mov	r0, r4
2400915c:	60da      	str	r2, [r3, #12]
2400915e:	f7ff ff12 	bl	24008f86 <HAL_QSPI_TimeOutCallback>
24009162:	e725      	b.n	24008fb0 <HAL_QSPI_IRQHandler+0x28>
24009164:	24008f45 	.word	0x24008f45

24009168 <HAL_QSPI_GetState>:
24009168:	f890 0041 	ldrb.w	r0, [r0, #65]	; 0x41
2400916c:	4770      	bx	lr

2400916e <HAL_QSPI_GetError>:
2400916e:	6c40      	ldr	r0, [r0, #68]	; 0x44
24009170:	4770      	bx	lr

24009172 <HAL_QSPI_Abort>:
24009172:	b51f      	push	{r0, r1, r2, r3, r4, lr}
24009174:	4604      	mov	r4, r0
24009176:	f7f7 fb15 	bl	240007a4 <HAL_GetTick>
2400917a:	4603      	mov	r3, r0
2400917c:	f894 2041 	ldrb.w	r2, [r4, #65]	; 0x41
24009180:	f012 0002 	ands.w	r0, r2, #2
24009184:	d036      	beq.n	240091f4 <HAL_QSPI_Abort+0x82>
24009186:	2200      	movs	r2, #0
24009188:	f884 2040 	strb.w	r2, [r4, #64]	; 0x40
2400918c:	6822      	ldr	r2, [r4, #0]
2400918e:	6811      	ldr	r1, [r2, #0]
24009190:	0749      	lsls	r1, r1, #29
24009192:	d50d      	bpl.n	240091b0 <HAL_QSPI_Abort+0x3e>
24009194:	6811      	ldr	r1, [r2, #0]
24009196:	6be0      	ldr	r0, [r4, #60]	; 0x3c
24009198:	f021 0104 	bic.w	r1, r1, #4
2400919c:	9303      	str	r3, [sp, #12]
2400919e:	6011      	str	r1, [r2, #0]
240091a0:	f7fe fc72 	bl	24007a88 <HAL_MDMA_Abort>
240091a4:	9b03      	ldr	r3, [sp, #12]
240091a6:	b118      	cbz	r0, 240091b0 <HAL_QSPI_Abort+0x3e>
240091a8:	6c62      	ldr	r2, [r4, #68]	; 0x44
240091aa:	f042 0204 	orr.w	r2, r2, #4
240091ae:	6462      	str	r2, [r4, #68]	; 0x44
240091b0:	6821      	ldr	r1, [r4, #0]
240091b2:	4620      	mov	r0, r4
240091b4:	9303      	str	r3, [sp, #12]
240091b6:	680a      	ldr	r2, [r1, #0]
240091b8:	f042 0202 	orr.w	r2, r2, #2
240091bc:	600a      	str	r2, [r1, #0]
240091be:	2102      	movs	r1, #2
240091c0:	6ca2      	ldr	r2, [r4, #72]	; 0x48
240091c2:	9200      	str	r2, [sp, #0]
240091c4:	2201      	movs	r2, #1
240091c6:	f7ff fa83 	bl	240086d0 <QSPI_WaitFlagStateUntilTimeout>
240091ca:	9b03      	ldr	r3, [sp, #12]
240091cc:	b990      	cbnz	r0, 240091f4 <HAL_QSPI_Abort+0x82>
240091ce:	6822      	ldr	r2, [r4, #0]
240091d0:	2102      	movs	r1, #2
240091d2:	60d1      	str	r1, [r2, #12]
240091d4:	2120      	movs	r1, #32
240091d6:	6ca2      	ldr	r2, [r4, #72]	; 0x48
240091d8:	9200      	str	r2, [sp, #0]
240091da:	4602      	mov	r2, r0
240091dc:	4620      	mov	r0, r4
240091de:	f7ff fa77 	bl	240086d0 <QSPI_WaitFlagStateUntilTimeout>
240091e2:	b938      	cbnz	r0, 240091f4 <HAL_QSPI_Abort+0x82>
240091e4:	6822      	ldr	r2, [r4, #0]
240091e6:	6953      	ldr	r3, [r2, #20]
240091e8:	f023 6340 	bic.w	r3, r3, #201326592	; 0xc000000
240091ec:	6153      	str	r3, [r2, #20]
240091ee:	2301      	movs	r3, #1
240091f0:	f884 3041 	strb.w	r3, [r4, #65]	; 0x41
240091f4:	b004      	add	sp, #16
240091f6:	bd10      	pop	{r4, pc}

240091f8 <HAL_QSPI_Abort_IT>:
240091f8:	b510      	push	{r4, lr}
240091fa:	f890 3041 	ldrb.w	r3, [r0, #65]	; 0x41
240091fe:	4604      	mov	r4, r0
24009200:	0799      	lsls	r1, r3, #30
24009202:	d51d      	bpl.n	24009240 <HAL_QSPI_Abort_IT+0x48>
24009204:	2300      	movs	r3, #0
24009206:	f880 3040 	strb.w	r3, [r0, #64]	; 0x40
2400920a:	2308      	movs	r3, #8
2400920c:	f880 3041 	strb.w	r3, [r0, #65]	; 0x41
24009210:	6803      	ldr	r3, [r0, #0]
24009212:	681a      	ldr	r2, [r3, #0]
24009214:	f422 12f8 	bic.w	r2, r2, #2031616	; 0x1f0000
24009218:	601a      	str	r2, [r3, #0]
2400921a:	681a      	ldr	r2, [r3, #0]
2400921c:	0752      	lsls	r2, r2, #29
2400921e:	d511      	bpl.n	24009244 <HAL_QSPI_Abort_IT+0x4c>
24009220:	681a      	ldr	r2, [r3, #0]
24009222:	6bc0      	ldr	r0, [r0, #60]	; 0x3c
24009224:	f022 0204 	bic.w	r2, r2, #4
24009228:	601a      	str	r2, [r3, #0]
2400922a:	4b0c      	ldr	r3, [pc, #48]	; (2400925c <HAL_QSPI_Abort_IT+0x64>)
2400922c:	6583      	str	r3, [r0, #88]	; 0x58
2400922e:	f7fe fc63 	bl	24007af8 <HAL_MDMA_Abort_IT>
24009232:	b128      	cbz	r0, 24009240 <HAL_QSPI_Abort_IT+0x48>
24009234:	2301      	movs	r3, #1
24009236:	4620      	mov	r0, r4
24009238:	f884 3041 	strb.w	r3, [r4, #65]	; 0x41
2400923c:	f7ff fe9d 	bl	24008f7a <HAL_QSPI_AbortCpltCallback>
24009240:	2000      	movs	r0, #0
24009242:	bd10      	pop	{r4, pc}
24009244:	2202      	movs	r2, #2
24009246:	60da      	str	r2, [r3, #12]
24009248:	681a      	ldr	r2, [r3, #0]
2400924a:	f442 3200 	orr.w	r2, r2, #131072	; 0x20000
2400924e:	601a      	str	r2, [r3, #0]
24009250:	681a      	ldr	r2, [r3, #0]
24009252:	f042 0202 	orr.w	r2, r2, #2
24009256:	601a      	str	r2, [r3, #0]
24009258:	e7f2      	b.n	24009240 <HAL_QSPI_Abort_IT+0x48>
2400925a:	bf00      	nop
2400925c:	24008f45 	.word	0x24008f45

24009260 <QSPI_DMAError>:
24009260:	6c00      	ldr	r0, [r0, #64]	; 0x40
24009262:	2300      	movs	r3, #0
24009264:	6383      	str	r3, [r0, #56]	; 0x38
24009266:	62c3      	str	r3, [r0, #44]	; 0x2c
24009268:	6c43      	ldr	r3, [r0, #68]	; 0x44
2400926a:	6802      	ldr	r2, [r0, #0]
2400926c:	f043 0304 	orr.w	r3, r3, #4
24009270:	6443      	str	r3, [r0, #68]	; 0x44
24009272:	6813      	ldr	r3, [r2, #0]
24009274:	f023 0304 	bic.w	r3, r3, #4
24009278:	6013      	str	r3, [r2, #0]
2400927a:	f7ff bfbd 	b.w	240091f8 <HAL_QSPI_Abort_IT>

2400927e <HAL_QSPI_SetTimeout>:
2400927e:	6481      	str	r1, [r0, #72]	; 0x48
24009280:	4770      	bx	lr

24009282 <HAL_QSPI_SetFifoThreshold>:
24009282:	f890 3040 	ldrb.w	r3, [r0, #64]	; 0x40
24009286:	2b01      	cmp	r3, #1
24009288:	d017      	beq.n	240092ba <HAL_QSPI_SetFifoThreshold+0x38>
2400928a:	2301      	movs	r3, #1
2400928c:	f880 3040 	strb.w	r3, [r0, #64]	; 0x40
24009290:	f890 3041 	ldrb.w	r3, [r0, #65]	; 0x41
24009294:	2b01      	cmp	r3, #1
24009296:	d10e      	bne.n	240092b6 <HAL_QSPI_SetFifoThreshold+0x34>
24009298:	6802      	ldr	r2, [r0, #0]
2400929a:	6081      	str	r1, [r0, #8]
2400929c:	3901      	subs	r1, #1
2400929e:	6813      	ldr	r3, [r2, #0]
240092a0:	f423 6370 	bic.w	r3, r3, #3840	; 0xf00
240092a4:	ea43 2101 	orr.w	r1, r3, r1, lsl #8
240092a8:	2300      	movs	r3, #0
240092aa:	6011      	str	r1, [r2, #0]
240092ac:	2200      	movs	r2, #0
240092ae:	f880 2040 	strb.w	r2, [r0, #64]	; 0x40
240092b2:	4618      	mov	r0, r3
240092b4:	4770      	bx	lr
240092b6:	2302      	movs	r3, #2
240092b8:	e7f8      	b.n	240092ac <HAL_QSPI_SetFifoThreshold+0x2a>
240092ba:	2302      	movs	r3, #2
240092bc:	e7f9      	b.n	240092b2 <HAL_QSPI_SetFifoThreshold+0x30>

240092be <HAL_QSPI_GetFifoThreshold>:
240092be:	6803      	ldr	r3, [r0, #0]
240092c0:	6818      	ldr	r0, [r3, #0]
240092c2:	f3c0 2003 	ubfx	r0, r0, #8, #4
240092c6:	3001      	adds	r0, #1
240092c8:	4770      	bx	lr

240092ca <HAL_QSPI_SetFlashID>:
240092ca:	f890 3040 	ldrb.w	r3, [r0, #64]	; 0x40
240092ce:	2b01      	cmp	r3, #1
240092d0:	d015      	beq.n	240092fe <HAL_QSPI_SetFlashID+0x34>
240092d2:	2301      	movs	r3, #1
240092d4:	f880 3040 	strb.w	r3, [r0, #64]	; 0x40
240092d8:	f890 3041 	ldrb.w	r3, [r0, #65]	; 0x41
240092dc:	2b01      	cmp	r3, #1
240092de:	d10c      	bne.n	240092fa <HAL_QSPI_SetFlashID+0x30>
240092e0:	6802      	ldr	r2, [r0, #0]
240092e2:	61c1      	str	r1, [r0, #28]
240092e4:	6813      	ldr	r3, [r2, #0]
240092e6:	f023 0380 	bic.w	r3, r3, #128	; 0x80
240092ea:	4319      	orrs	r1, r3
240092ec:	2300      	movs	r3, #0
240092ee:	6011      	str	r1, [r2, #0]
240092f0:	2200      	movs	r2, #0
240092f2:	f880 2040 	strb.w	r2, [r0, #64]	; 0x40
240092f6:	4618      	mov	r0, r3
240092f8:	4770      	bx	lr
240092fa:	2302      	movs	r3, #2
240092fc:	e7f8      	b.n	240092f0 <HAL_QSPI_SetFlashID+0x26>
240092fe:	2302      	movs	r3, #2
24009300:	e7f9      	b.n	240092f6 <HAL_QSPI_SetFlashID+0x2c>
	...

24009304 <HAL_RCC_DeInit>:
24009304:	4a5f      	ldr	r2, [pc, #380]	; (24009484 <HAL_RCC_DeInit+0x180>)
24009306:	b5f8      	push	{r3, r4, r5, r6, r7, lr}
24009308:	6813      	ldr	r3, [r2, #0]
2400930a:	f003 030f 	and.w	r3, r3, #15
2400930e:	2b06      	cmp	r3, #6
24009310:	f240 8082 	bls.w	24009418 <HAL_RCC_DeInit+0x114>
24009314:	4c5c      	ldr	r4, [pc, #368]	; (24009488 <HAL_RCC_DeInit+0x184>)
24009316:	f7f7 fa45 	bl	240007a4 <HAL_GetTick>
2400931a:	4605      	mov	r5, r0
2400931c:	6823      	ldr	r3, [r4, #0]
2400931e:	f043 0301 	orr.w	r3, r3, #1
24009322:	6023      	str	r3, [r4, #0]
24009324:	6823      	ldr	r3, [r4, #0]
24009326:	075e      	lsls	r6, r3, #29
24009328:	f140 8085 	bpl.w	24009436 <HAL_RCC_DeInit+0x132>
2400932c:	6863      	ldr	r3, [r4, #4]
2400932e:	4a57      	ldr	r2, [pc, #348]	; (2400948c <HAL_RCC_DeInit+0x188>)
24009330:	f043 4380 	orr.w	r3, r3, #1073741824	; 0x40000000
24009334:	6063      	str	r3, [r4, #4]
24009336:	2300      	movs	r3, #0
24009338:	6123      	str	r3, [r4, #16]
2400933a:	4b55      	ldr	r3, [pc, #340]	; (24009490 <HAL_RCC_DeInit+0x18c>)
2400933c:	6013      	str	r3, [r2, #0]
2400933e:	4a55      	ldr	r2, [pc, #340]	; (24009494 <HAL_RCC_DeInit+0x190>)
24009340:	6013      	str	r3, [r2, #0]
24009342:	4b55      	ldr	r3, [pc, #340]	; (24009498 <HAL_RCC_DeInit+0x194>)
24009344:	6818      	ldr	r0, [r3, #0]
24009346:	f7f7 f9cd 	bl	240006e4 <HAL_InitTick>
2400934a:	4605      	mov	r5, r0
2400934c:	2800      	cmp	r0, #0
2400934e:	d16f      	bne.n	24009430 <HAL_RCC_DeInit+0x12c>
24009350:	f7f7 fa28 	bl	240007a4 <HAL_GetTick>
24009354:	4c4c      	ldr	r4, [pc, #304]	; (24009488 <HAL_RCC_DeInit+0x184>)
24009356:	4606      	mov	r6, r0
24009358:	f241 3788 	movw	r7, #5000	; 0x1388
2400935c:	6923      	ldr	r3, [r4, #16]
2400935e:	f013 0f38 	tst.w	r3, #56	; 0x38
24009362:	d170      	bne.n	24009446 <HAL_RCC_DeInit+0x142>
24009364:	f7f7 fa1e 	bl	240007a4 <HAL_GetTick>
24009368:	6822      	ldr	r2, [r4, #0]
2400936a:	4b4c      	ldr	r3, [pc, #304]	; (2400949c <HAL_RCC_DeInit+0x198>)
2400936c:	4606      	mov	r6, r0
2400936e:	4013      	ands	r3, r2
24009370:	6023      	str	r3, [r4, #0]
24009372:	4c45      	ldr	r4, [pc, #276]	; (24009488 <HAL_RCC_DeInit+0x184>)
24009374:	6823      	ldr	r3, [r4, #0]
24009376:	0398      	lsls	r0, r3, #14
24009378:	d46b      	bmi.n	24009452 <HAL_RCC_DeInit+0x14e>
2400937a:	f7f7 fa13 	bl	240007a4 <HAL_GetTick>
2400937e:	6823      	ldr	r3, [r4, #0]
24009380:	4606      	mov	r6, r0
24009382:	f023 7380 	bic.w	r3, r3, #16777216	; 0x1000000
24009386:	6023      	str	r3, [r4, #0]
24009388:	4c3f      	ldr	r4, [pc, #252]	; (24009488 <HAL_RCC_DeInit+0x184>)
2400938a:	6823      	ldr	r3, [r4, #0]
2400938c:	0199      	lsls	r1, r3, #6
2400938e:	d466      	bmi.n	2400945e <HAL_RCC_DeInit+0x15a>
24009390:	f7f7 fa08 	bl	240007a4 <HAL_GetTick>
24009394:	6823      	ldr	r3, [r4, #0]
24009396:	4606      	mov	r6, r0
24009398:	f023 6380 	bic.w	r3, r3, #67108864	; 0x4000000
2400939c:	6023      	str	r3, [r4, #0]
2400939e:	4c3a      	ldr	r4, [pc, #232]	; (24009488 <HAL_RCC_DeInit+0x184>)
240093a0:	6823      	ldr	r3, [r4, #0]
240093a2:	011a      	lsls	r2, r3, #4
240093a4:	d461      	bmi.n	2400946a <HAL_RCC_DeInit+0x166>
240093a6:	f7f7 f9fd 	bl	240007a4 <HAL_GetTick>
240093aa:	6823      	ldr	r3, [r4, #0]
240093ac:	4606      	mov	r6, r0
240093ae:	f023 5380 	bic.w	r3, r3, #268435456	; 0x10000000
240093b2:	6023      	str	r3, [r4, #0]
240093b4:	4c34      	ldr	r4, [pc, #208]	; (24009488 <HAL_RCC_DeInit+0x184>)
240093b6:	6823      	ldr	r3, [r4, #0]
240093b8:	f013 5300 	ands.w	r3, r3, #536870912	; 0x20000000
240093bc:	d15b      	bne.n	24009476 <HAL_RCC_DeInit+0x172>
240093be:	4a38      	ldr	r2, [pc, #224]	; (240094a0 <HAL_RCC_DeInit+0x19c>)
240093c0:	61a3      	str	r3, [r4, #24]
240093c2:	61e3      	str	r3, [r4, #28]
240093c4:	6223      	str	r3, [r4, #32]
240093c6:	62a2      	str	r2, [r4, #40]	; 0x28
240093c8:	4a36      	ldr	r2, [pc, #216]	; (240094a4 <HAL_RCC_DeInit+0x1a0>)
240093ca:	62e2      	str	r2, [r4, #44]	; 0x2c
240093cc:	4a36      	ldr	r2, [pc, #216]	; (240094a8 <HAL_RCC_DeInit+0x1a4>)
240093ce:	6322      	str	r2, [r4, #48]	; 0x30
240093d0:	6363      	str	r3, [r4, #52]	; 0x34
240093d2:	63a2      	str	r2, [r4, #56]	; 0x38
240093d4:	63e3      	str	r3, [r4, #60]	; 0x3c
240093d6:	6422      	str	r2, [r4, #64]	; 0x40
240093d8:	6463      	str	r3, [r4, #68]	; 0x44
240093da:	6822      	ldr	r2, [r4, #0]
240093dc:	f422 2280 	bic.w	r2, r2, #262144	; 0x40000
240093e0:	6022      	str	r2, [r4, #0]
240093e2:	6623      	str	r3, [r4, #96]	; 0x60
240093e4:	f04f 33ff 	mov.w	r3, #4294967295
240093e8:	4a26      	ldr	r2, [pc, #152]	; (24009484 <HAL_RCC_DeInit+0x180>)
240093ea:	66a3      	str	r3, [r4, #104]	; 0x68
240093ec:	f8d4 30d0 	ldr.w	r3, [r4, #208]	; 0xd0
240093f0:	f443 3380 	orr.w	r3, r3, #65536	; 0x10000
240093f4:	f8c4 30d0 	str.w	r3, [r4, #208]	; 0xd0
240093f8:	6813      	ldr	r3, [r2, #0]
240093fa:	071b      	lsls	r3, r3, #28
240093fc:	d519      	bpl.n	24009432 <HAL_RCC_DeInit+0x12e>
240093fe:	6813      	ldr	r3, [r2, #0]
24009400:	f023 030f 	bic.w	r3, r3, #15
24009404:	f043 0307 	orr.w	r3, r3, #7
24009408:	6013      	str	r3, [r2, #0]
2400940a:	6815      	ldr	r5, [r2, #0]
2400940c:	f005 050f 	and.w	r5, r5, #15
24009410:	3d07      	subs	r5, #7
24009412:	bf18      	it	ne
24009414:	2501      	movne	r5, #1
24009416:	e00c      	b.n	24009432 <HAL_RCC_DeInit+0x12e>
24009418:	6813      	ldr	r3, [r2, #0]
2400941a:	f023 030f 	bic.w	r3, r3, #15
2400941e:	f043 0307 	orr.w	r3, r3, #7
24009422:	6013      	str	r3, [r2, #0]
24009424:	6813      	ldr	r3, [r2, #0]
24009426:	f003 030f 	and.w	r3, r3, #15
2400942a:	2b07      	cmp	r3, #7
2400942c:	f43f af72 	beq.w	24009314 <HAL_RCC_DeInit+0x10>
24009430:	2501      	movs	r5, #1
24009432:	4628      	mov	r0, r5
24009434:	bdf8      	pop	{r3, r4, r5, r6, r7, pc}
24009436:	f7f7 f9b5 	bl	240007a4 <HAL_GetTick>
2400943a:	1b40      	subs	r0, r0, r5
2400943c:	2802      	cmp	r0, #2
2400943e:	f67f af71 	bls.w	24009324 <HAL_RCC_DeInit+0x20>
24009442:	2503      	movs	r5, #3
24009444:	e7f5      	b.n	24009432 <HAL_RCC_DeInit+0x12e>
24009446:	f7f7 f9ad 	bl	240007a4 <HAL_GetTick>
2400944a:	1b80      	subs	r0, r0, r6
2400944c:	42b8      	cmp	r0, r7
2400944e:	d985      	bls.n	2400935c <HAL_RCC_DeInit+0x58>
24009450:	e7f7      	b.n	24009442 <HAL_RCC_DeInit+0x13e>
24009452:	f7f7 f9a7 	bl	240007a4 <HAL_GetTick>
24009456:	1b80      	subs	r0, r0, r6
24009458:	2864      	cmp	r0, #100	; 0x64
2400945a:	d98b      	bls.n	24009374 <HAL_RCC_DeInit+0x70>
2400945c:	e7f1      	b.n	24009442 <HAL_RCC_DeInit+0x13e>
2400945e:	f7f7 f9a1 	bl	240007a4 <HAL_GetTick>
24009462:	1b80      	subs	r0, r0, r6
24009464:	2802      	cmp	r0, #2
24009466:	d990      	bls.n	2400938a <HAL_RCC_DeInit+0x86>
24009468:	e7eb      	b.n	24009442 <HAL_RCC_DeInit+0x13e>
2400946a:	f7f7 f99b 	bl	240007a4 <HAL_GetTick>
2400946e:	1b80      	subs	r0, r0, r6
24009470:	2802      	cmp	r0, #2
24009472:	d995      	bls.n	240093a0 <HAL_RCC_DeInit+0x9c>
24009474:	e7e5      	b.n	24009442 <HAL_RCC_DeInit+0x13e>
24009476:	f7f7 f995 	bl	240007a4 <HAL_GetTick>
2400947a:	1b80      	subs	r0, r0, r6
2400947c:	2802      	cmp	r0, #2
2400947e:	d99a      	bls.n	240093b6 <HAL_RCC_DeInit+0xb2>
24009480:	e7df      	b.n	24009442 <HAL_RCC_DeInit+0x13e>
24009482:	bf00      	nop
24009484:	52002000 	.word	0x52002000
24009488:	58024400 	.word	0x58024400
2400948c:	240004b8 	.word	0x240004b8
24009490:	03d09000 	.word	0x03d09000
24009494:	240004bc 	.word	0x240004bc
24009498:	240004b0 	.word	0x240004b0
2400949c:	fff6ed45 	.word	0xfff6ed45
240094a0:	02020200 	.word	0x02020200
240094a4:	01ff0000 	.word	0x01ff0000
240094a8:	01010280 	.word	0x01010280

240094ac <HAL_RCC_OscConfig>:
240094ac:	b5f8      	push	{r3, r4, r5, r6, r7, lr}
240094ae:	4604      	mov	r4, r0
240094b0:	2800      	cmp	r0, #0
240094b2:	d070      	beq.n	24009596 <HAL_RCC_OscConfig+0xea>
240094b4:	6803      	ldr	r3, [r0, #0]
240094b6:	07d8      	lsls	r0, r3, #31
240094b8:	d45a      	bmi.n	24009570 <HAL_RCC_OscConfig+0xc4>
240094ba:	6823      	ldr	r3, [r4, #0]
240094bc:	0799      	lsls	r1, r3, #30
240094be:	f100 80ab 	bmi.w	24009618 <HAL_RCC_OscConfig+0x16c>
240094c2:	6823      	ldr	r3, [r4, #0]
240094c4:	06da      	lsls	r2, r3, #27
240094c6:	d523      	bpl.n	24009510 <HAL_RCC_OscConfig+0x64>
240094c8:	4b98      	ldr	r3, [pc, #608]	; (2400972c <HAL_RCC_OscConfig+0x280>)
240094ca:	691a      	ldr	r2, [r3, #16]
240094cc:	6a99      	ldr	r1, [r3, #40]	; 0x28
240094ce:	f002 0238 	and.w	r2, r2, #56	; 0x38
240094d2:	2a08      	cmp	r2, #8
240094d4:	d007      	beq.n	240094e6 <HAL_RCC_OscConfig+0x3a>
240094d6:	2a18      	cmp	r2, #24
240094d8:	f040 80ff 	bne.w	240096da <HAL_RCC_OscConfig+0x22e>
240094dc:	f001 0203 	and.w	r2, r1, #3
240094e0:	2a01      	cmp	r2, #1
240094e2:	f040 80fa 	bne.w	240096da <HAL_RCC_OscConfig+0x22e>
240094e6:	681b      	ldr	r3, [r3, #0]
240094e8:	05db      	lsls	r3, r3, #23
240094ea:	d502      	bpl.n	240094f2 <HAL_RCC_OscConfig+0x46>
240094ec:	69e3      	ldr	r3, [r4, #28]
240094ee:	2b80      	cmp	r3, #128	; 0x80
240094f0:	d151      	bne.n	24009596 <HAL_RCC_OscConfig+0xea>
240094f2:	f7f7 f9a1 	bl	24000838 <HAL_GetREVID>
240094f6:	f241 0303 	movw	r3, #4099	; 0x1003
240094fa:	4a8c      	ldr	r2, [pc, #560]	; (2400972c <HAL_RCC_OscConfig+0x280>)
240094fc:	4298      	cmp	r0, r3
240094fe:	6a21      	ldr	r1, [r4, #32]
24009500:	f200 80e4 	bhi.w	240096cc <HAL_RCC_OscConfig+0x220>
24009504:	6853      	ldr	r3, [r2, #4]
24009506:	f023 43f8 	bic.w	r3, r3, #2080374784	; 0x7c000000
2400950a:	ea43 6381 	orr.w	r3, r3, r1, lsl #26
2400950e:	6053      	str	r3, [r2, #4]
24009510:	6823      	ldr	r3, [r4, #0]
24009512:	0719      	lsls	r1, r3, #28
24009514:	f100 8120 	bmi.w	24009758 <HAL_RCC_OscConfig+0x2ac>
24009518:	6823      	ldr	r3, [r4, #0]
2400951a:	069a      	lsls	r2, r3, #26
2400951c:	f100 8141 	bmi.w	240097a2 <HAL_RCC_OscConfig+0x2f6>
24009520:	6823      	ldr	r3, [r4, #0]
24009522:	075d      	lsls	r5, r3, #29
24009524:	d51e      	bpl.n	24009564 <HAL_RCC_OscConfig+0xb8>
24009526:	4d82      	ldr	r5, [pc, #520]	; (24009730 <HAL_RCC_OscConfig+0x284>)
24009528:	682b      	ldr	r3, [r5, #0]
2400952a:	f443 7380 	orr.w	r3, r3, #256	; 0x100
2400952e:	602b      	str	r3, [r5, #0]
24009530:	f7f7 f938 	bl	240007a4 <HAL_GetTick>
24009534:	4606      	mov	r6, r0
24009536:	682b      	ldr	r3, [r5, #0]
24009538:	05da      	lsls	r2, r3, #23
2400953a:	f140 8157 	bpl.w	240097ec <HAL_RCC_OscConfig+0x340>
2400953e:	68a3      	ldr	r3, [r4, #8]
24009540:	4d7a      	ldr	r5, [pc, #488]	; (2400972c <HAL_RCC_OscConfig+0x280>)
24009542:	2b01      	cmp	r3, #1
24009544:	f040 8159 	bne.w	240097fa <HAL_RCC_OscConfig+0x34e>
24009548:	6f2b      	ldr	r3, [r5, #112]	; 0x70
2400954a:	f043 0301 	orr.w	r3, r3, #1
2400954e:	672b      	str	r3, [r5, #112]	; 0x70
24009550:	f241 3788 	movw	r7, #5000	; 0x1388
24009554:	f7f7 f926 	bl	240007a4 <HAL_GetTick>
24009558:	4e74      	ldr	r6, [pc, #464]	; (2400972c <HAL_RCC_OscConfig+0x280>)
2400955a:	4605      	mov	r5, r0
2400955c:	6f33      	ldr	r3, [r6, #112]	; 0x70
2400955e:	079b      	lsls	r3, r3, #30
24009560:	f140 8171 	bpl.w	24009846 <HAL_RCC_OscConfig+0x39a>
24009564:	6a61      	ldr	r1, [r4, #36]	; 0x24
24009566:	2900      	cmp	r1, #0
24009568:	f040 8174 	bne.w	24009854 <HAL_RCC_OscConfig+0x3a8>
2400956c:	2000      	movs	r0, #0
2400956e:	e029      	b.n	240095c4 <HAL_RCC_OscConfig+0x118>
24009570:	4b6e      	ldr	r3, [pc, #440]	; (2400972c <HAL_RCC_OscConfig+0x280>)
24009572:	691a      	ldr	r2, [r3, #16]
24009574:	6a99      	ldr	r1, [r3, #40]	; 0x28
24009576:	f002 0238 	and.w	r2, r2, #56	; 0x38
2400957a:	2a10      	cmp	r2, #16
2400957c:	d005      	beq.n	2400958a <HAL_RCC_OscConfig+0xde>
2400957e:	2a18      	cmp	r2, #24
24009580:	d10b      	bne.n	2400959a <HAL_RCC_OscConfig+0xee>
24009582:	f001 0203 	and.w	r2, r1, #3
24009586:	2a02      	cmp	r2, #2
24009588:	d107      	bne.n	2400959a <HAL_RCC_OscConfig+0xee>
2400958a:	681b      	ldr	r3, [r3, #0]
2400958c:	039a      	lsls	r2, r3, #14
2400958e:	d594      	bpl.n	240094ba <HAL_RCC_OscConfig+0xe>
24009590:	6863      	ldr	r3, [r4, #4]
24009592:	2b00      	cmp	r3, #0
24009594:	d191      	bne.n	240094ba <HAL_RCC_OscConfig+0xe>
24009596:	2001      	movs	r0, #1
24009598:	e014      	b.n	240095c4 <HAL_RCC_OscConfig+0x118>
2400959a:	6862      	ldr	r2, [r4, #4]
2400959c:	f5b2 3f80 	cmp.w	r2, #65536	; 0x10000
240095a0:	d111      	bne.n	240095c6 <HAL_RCC_OscConfig+0x11a>
240095a2:	681a      	ldr	r2, [r3, #0]
240095a4:	f442 3280 	orr.w	r2, r2, #65536	; 0x10000
240095a8:	601a      	str	r2, [r3, #0]
240095aa:	f7f7 f8fb 	bl	240007a4 <HAL_GetTick>
240095ae:	4e5f      	ldr	r6, [pc, #380]	; (2400972c <HAL_RCC_OscConfig+0x280>)
240095b0:	4605      	mov	r5, r0
240095b2:	6833      	ldr	r3, [r6, #0]
240095b4:	039b      	lsls	r3, r3, #14
240095b6:	d480      	bmi.n	240094ba <HAL_RCC_OscConfig+0xe>
240095b8:	f7f7 f8f4 	bl	240007a4 <HAL_GetTick>
240095bc:	1b40      	subs	r0, r0, r5
240095be:	2864      	cmp	r0, #100	; 0x64
240095c0:	d9f7      	bls.n	240095b2 <HAL_RCC_OscConfig+0x106>
240095c2:	2003      	movs	r0, #3
240095c4:	bdf8      	pop	{r3, r4, r5, r6, r7, pc}
240095c6:	4d59      	ldr	r5, [pc, #356]	; (2400972c <HAL_RCC_OscConfig+0x280>)
240095c8:	682b      	ldr	r3, [r5, #0]
240095ca:	b99a      	cbnz	r2, 240095f4 <HAL_RCC_OscConfig+0x148>
240095cc:	f423 3380 	bic.w	r3, r3, #65536	; 0x10000
240095d0:	602b      	str	r3, [r5, #0]
240095d2:	682b      	ldr	r3, [r5, #0]
240095d4:	f423 2380 	bic.w	r3, r3, #262144	; 0x40000
240095d8:	602b      	str	r3, [r5, #0]
240095da:	f7f7 f8e3 	bl	240007a4 <HAL_GetTick>
240095de:	4606      	mov	r6, r0
240095e0:	682b      	ldr	r3, [r5, #0]
240095e2:	039f      	lsls	r7, r3, #14
240095e4:	f57f af69 	bpl.w	240094ba <HAL_RCC_OscConfig+0xe>
240095e8:	f7f7 f8dc 	bl	240007a4 <HAL_GetTick>
240095ec:	1b80      	subs	r0, r0, r6
240095ee:	2864      	cmp	r0, #100	; 0x64
240095f0:	d9f6      	bls.n	240095e0 <HAL_RCC_OscConfig+0x134>
240095f2:	e7e6      	b.n	240095c2 <HAL_RCC_OscConfig+0x116>
240095f4:	f5b2 2fa0 	cmp.w	r2, #327680	; 0x50000
240095f8:	d107      	bne.n	2400960a <HAL_RCC_OscConfig+0x15e>
240095fa:	f443 2380 	orr.w	r3, r3, #262144	; 0x40000
240095fe:	602b      	str	r3, [r5, #0]
24009600:	682b      	ldr	r3, [r5, #0]
24009602:	f443 3380 	orr.w	r3, r3, #65536	; 0x10000
24009606:	602b      	str	r3, [r5, #0]
24009608:	e7cf      	b.n	240095aa <HAL_RCC_OscConfig+0xfe>
2400960a:	f423 3380 	bic.w	r3, r3, #65536	; 0x10000
2400960e:	602b      	str	r3, [r5, #0]
24009610:	682b      	ldr	r3, [r5, #0]
24009612:	f423 2380 	bic.w	r3, r3, #262144	; 0x40000
24009616:	e7f6      	b.n	24009606 <HAL_RCC_OscConfig+0x15a>
24009618:	4b44      	ldr	r3, [pc, #272]	; (2400972c <HAL_RCC_OscConfig+0x280>)
2400961a:	691a      	ldr	r2, [r3, #16]
2400961c:	6a99      	ldr	r1, [r3, #40]	; 0x28
2400961e:	f012 0238 	ands.w	r2, r2, #56	; 0x38
24009622:	d003      	beq.n	2400962c <HAL_RCC_OscConfig+0x180>
24009624:	2a18      	cmp	r2, #24
24009626:	d11a      	bne.n	2400965e <HAL_RCC_OscConfig+0x1b2>
24009628:	078e      	lsls	r6, r1, #30
2400962a:	d118      	bne.n	2400965e <HAL_RCC_OscConfig+0x1b2>
2400962c:	681b      	ldr	r3, [r3, #0]
2400962e:	075d      	lsls	r5, r3, #29
24009630:	d502      	bpl.n	24009638 <HAL_RCC_OscConfig+0x18c>
24009632:	68e3      	ldr	r3, [r4, #12]
24009634:	2b00      	cmp	r3, #0
24009636:	d0ae      	beq.n	24009596 <HAL_RCC_OscConfig+0xea>
24009638:	f7f7 f8fe 	bl	24000838 <HAL_GetREVID>
2400963c:	f241 0303 	movw	r3, #4099	; 0x1003
24009640:	4a3a      	ldr	r2, [pc, #232]	; (2400972c <HAL_RCC_OscConfig+0x280>)
24009642:	4298      	cmp	r0, r3
24009644:	6921      	ldr	r1, [r4, #16]
24009646:	6853      	ldr	r3, [r2, #4]
24009648:	bf95      	itete	ls
2400964a:	f423 337c 	bicls.w	r3, r3, #258048	; 0x3f000
2400964e:	f023 43fe 	bichi.w	r3, r3, #2130706432	; 0x7f000000
24009652:	ea43 3301 	orrls.w	r3, r3, r1, lsl #12
24009656:	ea43 6301 	orrhi.w	r3, r3, r1, lsl #24
2400965a:	6053      	str	r3, [r2, #4]
2400965c:	e731      	b.n	240094c2 <HAL_RCC_OscConfig+0x16>
2400965e:	68e1      	ldr	r1, [r4, #12]
24009660:	681a      	ldr	r2, [r3, #0]
24009662:	b311      	cbz	r1, 240096aa <HAL_RCC_OscConfig+0x1fe>
24009664:	f022 0219 	bic.w	r2, r2, #25
24009668:	4d30      	ldr	r5, [pc, #192]	; (2400972c <HAL_RCC_OscConfig+0x280>)
2400966a:	430a      	orrs	r2, r1
2400966c:	601a      	str	r2, [r3, #0]
2400966e:	f7f7 f899 	bl	240007a4 <HAL_GetTick>
24009672:	4606      	mov	r6, r0
24009674:	682b      	ldr	r3, [r5, #0]
24009676:	0758      	lsls	r0, r3, #29
24009678:	d511      	bpl.n	2400969e <HAL_RCC_OscConfig+0x1f2>
2400967a:	f7f7 f8dd 	bl	24000838 <HAL_GetREVID>
2400967e:	f241 0303 	movw	r3, #4099	; 0x1003
24009682:	6922      	ldr	r2, [r4, #16]
24009684:	4298      	cmp	r0, r3
24009686:	686b      	ldr	r3, [r5, #4]
24009688:	bf95      	itete	ls
2400968a:	f423 337c 	bicls.w	r3, r3, #258048	; 0x3f000
2400968e:	f023 43fe 	bichi.w	r3, r3, #2130706432	; 0x7f000000
24009692:	ea43 3302 	orrls.w	r3, r3, r2, lsl #12
24009696:	ea43 6302 	orrhi.w	r3, r3, r2, lsl #24
2400969a:	606b      	str	r3, [r5, #4]
2400969c:	e711      	b.n	240094c2 <HAL_RCC_OscConfig+0x16>
2400969e:	f7f7 f881 	bl	240007a4 <HAL_GetTick>
240096a2:	1b80      	subs	r0, r0, r6
240096a4:	2802      	cmp	r0, #2
240096a6:	d9e5      	bls.n	24009674 <HAL_RCC_OscConfig+0x1c8>
240096a8:	e78b      	b.n	240095c2 <HAL_RCC_OscConfig+0x116>
240096aa:	f022 0201 	bic.w	r2, r2, #1
240096ae:	4e1f      	ldr	r6, [pc, #124]	; (2400972c <HAL_RCC_OscConfig+0x280>)
240096b0:	601a      	str	r2, [r3, #0]
240096b2:	f7f7 f877 	bl	240007a4 <HAL_GetTick>
240096b6:	4605      	mov	r5, r0
240096b8:	6833      	ldr	r3, [r6, #0]
240096ba:	0759      	lsls	r1, r3, #29
240096bc:	f57f af01 	bpl.w	240094c2 <HAL_RCC_OscConfig+0x16>
240096c0:	f7f7 f870 	bl	240007a4 <HAL_GetTick>
240096c4:	1b40      	subs	r0, r0, r5
240096c6:	2802      	cmp	r0, #2
240096c8:	d9f6      	bls.n	240096b8 <HAL_RCC_OscConfig+0x20c>
240096ca:	e77a      	b.n	240095c2 <HAL_RCC_OscConfig+0x116>
240096cc:	68d3      	ldr	r3, [r2, #12]
240096ce:	f023 537c 	bic.w	r3, r3, #1056964608	; 0x3f000000
240096d2:	ea43 6301 	orr.w	r3, r3, r1, lsl #24
240096d6:	60d3      	str	r3, [r2, #12]
240096d8:	e71a      	b.n	24009510 <HAL_RCC_OscConfig+0x64>
240096da:	69e2      	ldr	r2, [r4, #28]
240096dc:	b352      	cbz	r2, 24009734 <HAL_RCC_OscConfig+0x288>
240096de:	681a      	ldr	r2, [r3, #0]
240096e0:	4d12      	ldr	r5, [pc, #72]	; (2400972c <HAL_RCC_OscConfig+0x280>)
240096e2:	f042 0280 	orr.w	r2, r2, #128	; 0x80
240096e6:	601a      	str	r2, [r3, #0]
240096e8:	f7f7 f85c 	bl	240007a4 <HAL_GetTick>
240096ec:	4606      	mov	r6, r0
240096ee:	682b      	ldr	r3, [r5, #0]
240096f0:	05df      	lsls	r7, r3, #23
240096f2:	d50d      	bpl.n	24009710 <HAL_RCC_OscConfig+0x264>
240096f4:	f7f7 f8a0 	bl	24000838 <HAL_GetREVID>
240096f8:	f241 0303 	movw	r3, #4099	; 0x1003
240096fc:	6a22      	ldr	r2, [r4, #32]
240096fe:	4298      	cmp	r0, r3
24009700:	d80c      	bhi.n	2400971c <HAL_RCC_OscConfig+0x270>
24009702:	686b      	ldr	r3, [r5, #4]
24009704:	f023 43f8 	bic.w	r3, r3, #2080374784	; 0x7c000000
24009708:	ea43 6382 	orr.w	r3, r3, r2, lsl #26
2400970c:	606b      	str	r3, [r5, #4]
2400970e:	e6ff      	b.n	24009510 <HAL_RCC_OscConfig+0x64>
24009710:	f7f7 f848 	bl	240007a4 <HAL_GetTick>
24009714:	1b80      	subs	r0, r0, r6
24009716:	2802      	cmp	r0, #2
24009718:	d9e9      	bls.n	240096ee <HAL_RCC_OscConfig+0x242>
2400971a:	e752      	b.n	240095c2 <HAL_RCC_OscConfig+0x116>
2400971c:	68eb      	ldr	r3, [r5, #12]
2400971e:	f023 537c 	bic.w	r3, r3, #1056964608	; 0x3f000000
24009722:	ea43 6302 	orr.w	r3, r3, r2, lsl #24
24009726:	60eb      	str	r3, [r5, #12]
24009728:	e6f2      	b.n	24009510 <HAL_RCC_OscConfig+0x64>
2400972a:	bf00      	nop
2400972c:	58024400 	.word	0x58024400
24009730:	58024800 	.word	0x58024800
24009734:	681a      	ldr	r2, [r3, #0]
24009736:	4e9f      	ldr	r6, [pc, #636]	; (240099b4 <HAL_RCC_OscConfig+0x508>)
24009738:	f022 0280 	bic.w	r2, r2, #128	; 0x80
2400973c:	601a      	str	r2, [r3, #0]
2400973e:	f7f7 f831 	bl	240007a4 <HAL_GetTick>
24009742:	4605      	mov	r5, r0
24009744:	6833      	ldr	r3, [r6, #0]
24009746:	05d8      	lsls	r0, r3, #23
24009748:	f57f aee2 	bpl.w	24009510 <HAL_RCC_OscConfig+0x64>
2400974c:	f7f7 f82a 	bl	240007a4 <HAL_GetTick>
24009750:	1b40      	subs	r0, r0, r5
24009752:	2802      	cmp	r0, #2
24009754:	d9f6      	bls.n	24009744 <HAL_RCC_OscConfig+0x298>
24009756:	e734      	b.n	240095c2 <HAL_RCC_OscConfig+0x116>
24009758:	6963      	ldr	r3, [r4, #20]
2400975a:	4d96      	ldr	r5, [pc, #600]	; (240099b4 <HAL_RCC_OscConfig+0x508>)
2400975c:	b183      	cbz	r3, 24009780 <HAL_RCC_OscConfig+0x2d4>
2400975e:	6f6b      	ldr	r3, [r5, #116]	; 0x74
24009760:	f043 0301 	orr.w	r3, r3, #1
24009764:	676b      	str	r3, [r5, #116]	; 0x74
24009766:	f7f7 f81d 	bl	240007a4 <HAL_GetTick>
2400976a:	4606      	mov	r6, r0
2400976c:	6f6b      	ldr	r3, [r5, #116]	; 0x74
2400976e:	079b      	lsls	r3, r3, #30
24009770:	f53f aed2 	bmi.w	24009518 <HAL_RCC_OscConfig+0x6c>
24009774:	f7f7 f816 	bl	240007a4 <HAL_GetTick>
24009778:	1b80      	subs	r0, r0, r6
2400977a:	2802      	cmp	r0, #2
2400977c:	d9f6      	bls.n	2400976c <HAL_RCC_OscConfig+0x2c0>
2400977e:	e720      	b.n	240095c2 <HAL_RCC_OscConfig+0x116>
24009780:	6f6b      	ldr	r3, [r5, #116]	; 0x74
24009782:	f023 0301 	bic.w	r3, r3, #1
24009786:	676b      	str	r3, [r5, #116]	; 0x74
24009788:	f7f7 f80c 	bl	240007a4 <HAL_GetTick>
2400978c:	4606      	mov	r6, r0
2400978e:	6f6b      	ldr	r3, [r5, #116]	; 0x74
24009790:	079f      	lsls	r7, r3, #30
24009792:	f57f aec1 	bpl.w	24009518 <HAL_RCC_OscConfig+0x6c>
24009796:	f7f7 f805 	bl	240007a4 <HAL_GetTick>
2400979a:	1b80      	subs	r0, r0, r6
2400979c:	2802      	cmp	r0, #2
2400979e:	d9f6      	bls.n	2400978e <HAL_RCC_OscConfig+0x2e2>
240097a0:	e70f      	b.n	240095c2 <HAL_RCC_OscConfig+0x116>
240097a2:	69a3      	ldr	r3, [r4, #24]
240097a4:	4d83      	ldr	r5, [pc, #524]	; (240099b4 <HAL_RCC_OscConfig+0x508>)
240097a6:	b183      	cbz	r3, 240097ca <HAL_RCC_OscConfig+0x31e>
240097a8:	682b      	ldr	r3, [r5, #0]
240097aa:	f443 5380 	orr.w	r3, r3, #4096	; 0x1000
240097ae:	602b      	str	r3, [r5, #0]
240097b0:	f7f6 fff8 	bl	240007a4 <HAL_GetTick>
240097b4:	4606      	mov	r6, r0
240097b6:	682b      	ldr	r3, [r5, #0]
240097b8:	0498      	lsls	r0, r3, #18
240097ba:	f53f aeb1 	bmi.w	24009520 <HAL_RCC_OscConfig+0x74>
240097be:	f7f6 fff1 	bl	240007a4 <HAL_GetTick>
240097c2:	1b80      	subs	r0, r0, r6
240097c4:	2802      	cmp	r0, #2
240097c6:	d9f6      	bls.n	240097b6 <HAL_RCC_OscConfig+0x30a>
240097c8:	e6fb      	b.n	240095c2 <HAL_RCC_OscConfig+0x116>
240097ca:	682b      	ldr	r3, [r5, #0]
240097cc:	f423 5380 	bic.w	r3, r3, #4096	; 0x1000
240097d0:	602b      	str	r3, [r5, #0]
240097d2:	f7f6 ffe7 	bl	240007a4 <HAL_GetTick>
240097d6:	4606      	mov	r6, r0
240097d8:	682b      	ldr	r3, [r5, #0]
240097da:	0499      	lsls	r1, r3, #18
240097dc:	f57f aea0 	bpl.w	24009520 <HAL_RCC_OscConfig+0x74>
240097e0:	f7f6 ffe0 	bl	240007a4 <HAL_GetTick>
240097e4:	1b80      	subs	r0, r0, r6
240097e6:	2802      	cmp	r0, #2
240097e8:	d9f6      	bls.n	240097d8 <HAL_RCC_OscConfig+0x32c>
240097ea:	e6ea      	b.n	240095c2 <HAL_RCC_OscConfig+0x116>
240097ec:	f7f6 ffda 	bl	240007a4 <HAL_GetTick>
240097f0:	1b80      	subs	r0, r0, r6
240097f2:	2864      	cmp	r0, #100	; 0x64
240097f4:	f67f ae9f 	bls.w	24009536 <HAL_RCC_OscConfig+0x8a>
240097f8:	e6e3      	b.n	240095c2 <HAL_RCC_OscConfig+0x116>
240097fa:	b9b3      	cbnz	r3, 2400982a <HAL_RCC_OscConfig+0x37e>
240097fc:	6f2b      	ldr	r3, [r5, #112]	; 0x70
240097fe:	f241 3788 	movw	r7, #5000	; 0x1388
24009802:	f023 0301 	bic.w	r3, r3, #1
24009806:	672b      	str	r3, [r5, #112]	; 0x70
24009808:	6f2b      	ldr	r3, [r5, #112]	; 0x70
2400980a:	f023 0304 	bic.w	r3, r3, #4
2400980e:	672b      	str	r3, [r5, #112]	; 0x70
24009810:	f7f6 ffc8 	bl	240007a4 <HAL_GetTick>
24009814:	4606      	mov	r6, r0
24009816:	6f2b      	ldr	r3, [r5, #112]	; 0x70
24009818:	0798      	lsls	r0, r3, #30
2400981a:	f57f aea3 	bpl.w	24009564 <HAL_RCC_OscConfig+0xb8>
2400981e:	f7f6 ffc1 	bl	240007a4 <HAL_GetTick>
24009822:	1b80      	subs	r0, r0, r6
24009824:	42b8      	cmp	r0, r7
24009826:	d9f6      	bls.n	24009816 <HAL_RCC_OscConfig+0x36a>
24009828:	e6cb      	b.n	240095c2 <HAL_RCC_OscConfig+0x116>
2400982a:	2b05      	cmp	r3, #5
2400982c:	6f2b      	ldr	r3, [r5, #112]	; 0x70
2400982e:	d103      	bne.n	24009838 <HAL_RCC_OscConfig+0x38c>
24009830:	f043 0304 	orr.w	r3, r3, #4
24009834:	672b      	str	r3, [r5, #112]	; 0x70
24009836:	e687      	b.n	24009548 <HAL_RCC_OscConfig+0x9c>
24009838:	f023 0301 	bic.w	r3, r3, #1
2400983c:	672b      	str	r3, [r5, #112]	; 0x70
2400983e:	6f2b      	ldr	r3, [r5, #112]	; 0x70
24009840:	f023 0304 	bic.w	r3, r3, #4
24009844:	e683      	b.n	2400954e <HAL_RCC_OscConfig+0xa2>
24009846:	f7f6 ffad 	bl	240007a4 <HAL_GetTick>
2400984a:	1b40      	subs	r0, r0, r5
2400984c:	42b8      	cmp	r0, r7
2400984e:	f67f ae85 	bls.w	2400955c <HAL_RCC_OscConfig+0xb0>
24009852:	e6b6      	b.n	240095c2 <HAL_RCC_OscConfig+0x116>
24009854:	4d57      	ldr	r5, [pc, #348]	; (240099b4 <HAL_RCC_OscConfig+0x508>)
24009856:	692b      	ldr	r3, [r5, #16]
24009858:	f003 0338 	and.w	r3, r3, #56	; 0x38
2400985c:	2b18      	cmp	r3, #24
2400985e:	d07a      	beq.n	24009956 <HAL_RCC_OscConfig+0x4aa>
24009860:	682b      	ldr	r3, [r5, #0]
24009862:	2902      	cmp	r1, #2
24009864:	f023 7380 	bic.w	r3, r3, #16777216	; 0x1000000
24009868:	602b      	str	r3, [r5, #0]
2400986a:	d167      	bne.n	2400993c <HAL_RCC_OscConfig+0x490>
2400986c:	f7f6 ff9a 	bl	240007a4 <HAL_GetTick>
24009870:	4606      	mov	r6, r0
24009872:	682b      	ldr	r3, [r5, #0]
24009874:	0199      	lsls	r1, r3, #6
24009876:	d45b      	bmi.n	24009930 <HAL_RCC_OscConfig+0x484>
24009878:	6aab      	ldr	r3, [r5, #40]	; 0x28
2400987a:	6aa2      	ldr	r2, [r4, #40]	; 0x28
2400987c:	f423 737c 	bic.w	r3, r3, #1008	; 0x3f0
24009880:	f023 0303 	bic.w	r3, r3, #3
24009884:	4313      	orrs	r3, r2
24009886:	6ae2      	ldr	r2, [r4, #44]	; 0x2c
24009888:	ea43 1302 	orr.w	r3, r3, r2, lsl #4
2400988c:	62ab      	str	r3, [r5, #40]	; 0x28
2400988e:	6b63      	ldr	r3, [r4, #52]	; 0x34
24009890:	6ba2      	ldr	r2, [r4, #56]	; 0x38
24009892:	3b01      	subs	r3, #1
24009894:	3a01      	subs	r2, #1
24009896:	025b      	lsls	r3, r3, #9
24009898:	0412      	lsls	r2, r2, #16
2400989a:	b29b      	uxth	r3, r3
2400989c:	f402 02fe 	and.w	r2, r2, #8323072	; 0x7f0000
240098a0:	4313      	orrs	r3, r2
240098a2:	6b22      	ldr	r2, [r4, #48]	; 0x30
240098a4:	3a01      	subs	r2, #1
240098a6:	f3c2 0208 	ubfx	r2, r2, #0, #9
240098aa:	4313      	orrs	r3, r2
240098ac:	6be2      	ldr	r2, [r4, #60]	; 0x3c
240098ae:	3a01      	subs	r2, #1
240098b0:	0612      	lsls	r2, r2, #24
240098b2:	f002 42fe 	and.w	r2, r2, #2130706432	; 0x7f000000
240098b6:	4313      	orrs	r3, r2
240098b8:	632b      	str	r3, [r5, #48]	; 0x30
240098ba:	6aeb      	ldr	r3, [r5, #44]	; 0x2c
240098bc:	f023 0301 	bic.w	r3, r3, #1
240098c0:	62eb      	str	r3, [r5, #44]	; 0x2c
240098c2:	6b6b      	ldr	r3, [r5, #52]	; 0x34
240098c4:	6ca2      	ldr	r2, [r4, #72]	; 0x48
240098c6:	f423 437f 	bic.w	r3, r3, #65280	; 0xff00
240098ca:	f023 03f8 	bic.w	r3, r3, #248	; 0xf8
240098ce:	ea43 03c2 	orr.w	r3, r3, r2, lsl #3
240098d2:	636b      	str	r3, [r5, #52]	; 0x34
240098d4:	6aeb      	ldr	r3, [r5, #44]	; 0x2c
240098d6:	6c22      	ldr	r2, [r4, #64]	; 0x40
240098d8:	f023 030c 	bic.w	r3, r3, #12
240098dc:	4313      	orrs	r3, r2
240098de:	62eb      	str	r3, [r5, #44]	; 0x2c
240098e0:	6aeb      	ldr	r3, [r5, #44]	; 0x2c
240098e2:	6c62      	ldr	r2, [r4, #68]	; 0x44
240098e4:	f023 0302 	bic.w	r3, r3, #2
240098e8:	4313      	orrs	r3, r2
240098ea:	62eb      	str	r3, [r5, #44]	; 0x2c
240098ec:	6aeb      	ldr	r3, [r5, #44]	; 0x2c
240098ee:	f443 3380 	orr.w	r3, r3, #65536	; 0x10000
240098f2:	62eb      	str	r3, [r5, #44]	; 0x2c
240098f4:	6aeb      	ldr	r3, [r5, #44]	; 0x2c
240098f6:	f443 3300 	orr.w	r3, r3, #131072	; 0x20000
240098fa:	62eb      	str	r3, [r5, #44]	; 0x2c
240098fc:	6aeb      	ldr	r3, [r5, #44]	; 0x2c
240098fe:	f443 2380 	orr.w	r3, r3, #262144	; 0x40000
24009902:	62eb      	str	r3, [r5, #44]	; 0x2c
24009904:	6aeb      	ldr	r3, [r5, #44]	; 0x2c
24009906:	f043 0301 	orr.w	r3, r3, #1
2400990a:	62eb      	str	r3, [r5, #44]	; 0x2c
2400990c:	682b      	ldr	r3, [r5, #0]
2400990e:	f043 7380 	orr.w	r3, r3, #16777216	; 0x1000000
24009912:	602b      	str	r3, [r5, #0]
24009914:	f7f6 ff46 	bl	240007a4 <HAL_GetTick>
24009918:	4d26      	ldr	r5, [pc, #152]	; (240099b4 <HAL_RCC_OscConfig+0x508>)
2400991a:	4604      	mov	r4, r0
2400991c:	682b      	ldr	r3, [r5, #0]
2400991e:	019a      	lsls	r2, r3, #6
24009920:	f53f ae24 	bmi.w	2400956c <HAL_RCC_OscConfig+0xc0>
24009924:	f7f6 ff3e 	bl	240007a4 <HAL_GetTick>
24009928:	1b00      	subs	r0, r0, r4
2400992a:	2802      	cmp	r0, #2
2400992c:	d9f6      	bls.n	2400991c <HAL_RCC_OscConfig+0x470>
2400992e:	e648      	b.n	240095c2 <HAL_RCC_OscConfig+0x116>
24009930:	f7f6 ff38 	bl	240007a4 <HAL_GetTick>
24009934:	1b80      	subs	r0, r0, r6
24009936:	2802      	cmp	r0, #2
24009938:	d99b      	bls.n	24009872 <HAL_RCC_OscConfig+0x3c6>
2400993a:	e642      	b.n	240095c2 <HAL_RCC_OscConfig+0x116>
2400993c:	f7f6 ff32 	bl	240007a4 <HAL_GetTick>
24009940:	4604      	mov	r4, r0
24009942:	682b      	ldr	r3, [r5, #0]
24009944:	019b      	lsls	r3, r3, #6
24009946:	f57f ae11 	bpl.w	2400956c <HAL_RCC_OscConfig+0xc0>
2400994a:	f7f6 ff2b 	bl	240007a4 <HAL_GetTick>
2400994e:	1b00      	subs	r0, r0, r4
24009950:	2802      	cmp	r0, #2
24009952:	d9f6      	bls.n	24009942 <HAL_RCC_OscConfig+0x496>
24009954:	e635      	b.n	240095c2 <HAL_RCC_OscConfig+0x116>
24009956:	2901      	cmp	r1, #1
24009958:	6aaa      	ldr	r2, [r5, #40]	; 0x28
2400995a:	6b2b      	ldr	r3, [r5, #48]	; 0x30
2400995c:	f43f ae1b 	beq.w	24009596 <HAL_RCC_OscConfig+0xea>
24009960:	f002 0103 	and.w	r1, r2, #3
24009964:	6aa0      	ldr	r0, [r4, #40]	; 0x28
24009966:	4281      	cmp	r1, r0
24009968:	f47f ae15 	bne.w	24009596 <HAL_RCC_OscConfig+0xea>
2400996c:	f3c2 1205 	ubfx	r2, r2, #4, #6
24009970:	6ae1      	ldr	r1, [r4, #44]	; 0x2c
24009972:	428a      	cmp	r2, r1
24009974:	f47f ae0f 	bne.w	24009596 <HAL_RCC_OscConfig+0xea>
24009978:	6b22      	ldr	r2, [r4, #48]	; 0x30
2400997a:	f3c3 0108 	ubfx	r1, r3, #0, #9
2400997e:	3a01      	subs	r2, #1
24009980:	4291      	cmp	r1, r2
24009982:	f47f ae08 	bne.w	24009596 <HAL_RCC_OscConfig+0xea>
24009986:	6b62      	ldr	r2, [r4, #52]	; 0x34
24009988:	f3c3 2146 	ubfx	r1, r3, #9, #7
2400998c:	3a01      	subs	r2, #1
2400998e:	4291      	cmp	r1, r2
24009990:	f47f ae01 	bne.w	24009596 <HAL_RCC_OscConfig+0xea>
24009994:	6ba2      	ldr	r2, [r4, #56]	; 0x38
24009996:	f3c3 4106 	ubfx	r1, r3, #16, #7
2400999a:	3a01      	subs	r2, #1
2400999c:	4291      	cmp	r1, r2
2400999e:	f47f adfa 	bne.w	24009596 <HAL_RCC_OscConfig+0xea>
240099a2:	6be2      	ldr	r2, [r4, #60]	; 0x3c
240099a4:	f3c3 6306 	ubfx	r3, r3, #24, #7
240099a8:	3a01      	subs	r2, #1
240099aa:	4293      	cmp	r3, r2
240099ac:	f43f adde 	beq.w	2400956c <HAL_RCC_OscConfig+0xc0>
240099b0:	e5f1      	b.n	24009596 <HAL_RCC_OscConfig+0xea>
240099b2:	bf00      	nop
240099b4:	58024400 	.word	0x58024400

240099b8 <HAL_RCC_MCOConfig>:
240099b8:	b570      	push	{r4, r5, r6, lr}
240099ba:	4c23      	ldr	r4, [pc, #140]	; (24009a48 <HAL_RCC_MCOConfig+0x90>)
240099bc:	b088      	sub	sp, #32
240099be:	460e      	mov	r6, r1
240099c0:	4615      	mov	r5, r2
240099c2:	f8d4 30e0 	ldr.w	r3, [r4, #224]	; 0xe0
240099c6:	b9f8      	cbnz	r0, 24009a08 <HAL_RCC_MCOConfig+0x50>
240099c8:	f043 0301 	orr.w	r3, r3, #1
240099cc:	f44f 7c80 	mov.w	ip, #256	; 0x100
240099d0:	a903      	add	r1, sp, #12
240099d2:	f8c4 30e0 	str.w	r3, [r4, #224]	; 0xe0
240099d6:	f8d4 30e0 	ldr.w	r3, [r4, #224]	; 0xe0
240099da:	9007      	str	r0, [sp, #28]
240099dc:	f003 0301 	and.w	r3, r3, #1
240099e0:	9301      	str	r3, [sp, #4]
240099e2:	9b01      	ldr	r3, [sp, #4]
240099e4:	2302      	movs	r3, #2
240099e6:	e9cd c303 	strd	ip, r3, [sp, #12]
240099ea:	2303      	movs	r3, #3
240099ec:	e9cd 0305 	strd	r0, r3, [sp, #20]
240099f0:	4816      	ldr	r0, [pc, #88]	; (24009a4c <HAL_RCC_MCOConfig+0x94>)
240099f2:	f7fa fba1 	bl	24004138 <HAL_GPIO_Init>
240099f6:	6923      	ldr	r3, [r4, #16]
240099f8:	f023 73fe 	bic.w	r3, r3, #33292288	; 0x1fc0000
240099fc:	ea43 0106 	orr.w	r1, r3, r6
24009a00:	4329      	orrs	r1, r5
24009a02:	6121      	str	r1, [r4, #16]
24009a04:	b008      	add	sp, #32
24009a06:	bd70      	pop	{r4, r5, r6, pc}
24009a08:	f043 0304 	orr.w	r3, r3, #4
24009a0c:	f44f 7200 	mov.w	r2, #512	; 0x200
24009a10:	2103      	movs	r1, #3
24009a12:	480f      	ldr	r0, [pc, #60]	; (24009a50 <HAL_RCC_MCOConfig+0x98>)
24009a14:	f8c4 30e0 	str.w	r3, [r4, #224]	; 0xe0
24009a18:	f8d4 30e0 	ldr.w	r3, [r4, #224]	; 0xe0
24009a1c:	f003 0304 	and.w	r3, r3, #4
24009a20:	9302      	str	r3, [sp, #8]
24009a22:	9b02      	ldr	r3, [sp, #8]
24009a24:	2302      	movs	r3, #2
24009a26:	e9cd 2303 	strd	r2, r3, [sp, #12]
24009a2a:	2300      	movs	r3, #0
24009a2c:	e9cd 3105 	strd	r3, r1, [sp, #20]
24009a30:	a903      	add	r1, sp, #12
24009a32:	9307      	str	r3, [sp, #28]
24009a34:	f7fa fb80 	bl	24004138 <HAL_GPIO_Init>
24009a38:	6923      	ldr	r3, [r4, #16]
24009a3a:	f023 437e 	bic.w	r3, r3, #4261412864	; 0xfe000000
24009a3e:	ea43 0106 	orr.w	r1, r3, r6
24009a42:	ea41 11c5 	orr.w	r1, r1, r5, lsl #7
24009a46:	e7dc      	b.n	24009a02 <HAL_RCC_MCOConfig+0x4a>
24009a48:	58024400 	.word	0x58024400
24009a4c:	58020000 	.word	0x58020000
24009a50:	58020800 	.word	0x58020800

24009a54 <HAL_RCC_EnableCSS>:
24009a54:	4a02      	ldr	r2, [pc, #8]	; (24009a60 <HAL_RCC_EnableCSS+0xc>)
24009a56:	6813      	ldr	r3, [r2, #0]
24009a58:	f443 2300 	orr.w	r3, r3, #524288	; 0x80000
24009a5c:	6013      	str	r3, [r2, #0]
24009a5e:	4770      	bx	lr
24009a60:	58024400 	.word	0x58024400

24009a64 <HAL_RCC_DisableCSS>:
24009a64:	4a02      	ldr	r2, [pc, #8]	; (24009a70 <HAL_RCC_DisableCSS+0xc>)
24009a66:	6813      	ldr	r3, [r2, #0]
24009a68:	f423 2300 	bic.w	r3, r3, #524288	; 0x80000
24009a6c:	6013      	str	r3, [r2, #0]
24009a6e:	4770      	bx	lr
24009a70:	58024400 	.word	0x58024400

24009a74 <HAL_RCC_GetSysClockFreq>:
24009a74:	4b48      	ldr	r3, [pc, #288]	; (24009b98 <HAL_RCC_GetSysClockFreq+0x124>)
24009a76:	691a      	ldr	r2, [r3, #16]
24009a78:	f002 0238 	and.w	r2, r2, #56	; 0x38
24009a7c:	2a10      	cmp	r2, #16
24009a7e:	b530      	push	{r4, r5, lr}
24009a80:	f000 8086 	beq.w	24009b90 <HAL_RCC_GetSysClockFreq+0x11c>
24009a84:	2a18      	cmp	r2, #24
24009a86:	d00c      	beq.n	24009aa2 <HAL_RCC_GetSysClockFreq+0x2e>
24009a88:	2a00      	cmp	r2, #0
24009a8a:	f040 8083 	bne.w	24009b94 <HAL_RCC_GetSysClockFreq+0x120>
24009a8e:	681a      	ldr	r2, [r3, #0]
24009a90:	4842      	ldr	r0, [pc, #264]	; (24009b9c <HAL_RCC_GetSysClockFreq+0x128>)
24009a92:	f012 0f20 	tst.w	r2, #32
24009a96:	d003      	beq.n	24009aa0 <HAL_RCC_GetSysClockFreq+0x2c>
24009a98:	681b      	ldr	r3, [r3, #0]
24009a9a:	f3c3 03c1 	ubfx	r3, r3, #3, #2
24009a9e:	40d8      	lsrs	r0, r3
24009aa0:	bd30      	pop	{r4, r5, pc}
24009aa2:	6a99      	ldr	r1, [r3, #40]	; 0x28
24009aa4:	6a9d      	ldr	r5, [r3, #40]	; 0x28
24009aa6:	6adc      	ldr	r4, [r3, #44]	; 0x2c
24009aa8:	f415 7f7c 	tst.w	r5, #1008	; 0x3f0
24009aac:	f3c5 1005 	ubfx	r0, r5, #4, #6
24009ab0:	6b5a      	ldr	r2, [r3, #52]	; 0x34
24009ab2:	d0f5      	beq.n	24009aa0 <HAL_RCC_GetSysClockFreq+0x2c>
24009ab4:	f3c2 02cc 	ubfx	r2, r2, #3, #13
24009ab8:	f004 0401 	and.w	r4, r4, #1
24009abc:	ee07 0a90 	vmov	s15, r0
24009ac0:	f001 0103 	and.w	r1, r1, #3
24009ac4:	4362      	muls	r2, r4
24009ac6:	eeb7 6a00 	vmov.f32	s12, #112	; 0x3f800000  1.0
24009aca:	eef8 6ae7 	vcvt.f32.s32	s13, s15
24009ace:	2901      	cmp	r1, #1
24009ad0:	ee07 2a90 	vmov	s15, r2
24009ad4:	eefa 7ae9 	vcvt.f32.s32	s15, s15, #13
24009ad8:	d04c      	beq.n	24009b74 <HAL_RCC_GetSysClockFreq+0x100>
24009ada:	2902      	cmp	r1, #2
24009adc:	d03c      	beq.n	24009b58 <HAL_RCC_GetSysClockFreq+0xe4>
24009ade:	2900      	cmp	r1, #0
24009ae0:	d148      	bne.n	24009b74 <HAL_RCC_GetSysClockFreq+0x100>
24009ae2:	681a      	ldr	r2, [r3, #0]
24009ae4:	0692      	lsls	r2, r2, #26
24009ae6:	d527      	bpl.n	24009b38 <HAL_RCC_GetSysClockFreq+0xc4>
24009ae8:	6819      	ldr	r1, [r3, #0]
24009aea:	4a2c      	ldr	r2, [pc, #176]	; (24009b9c <HAL_RCC_GetSysClockFreq+0x128>)
24009aec:	f3c1 01c1 	ubfx	r1, r1, #3, #2
24009af0:	6b1b      	ldr	r3, [r3, #48]	; 0x30
24009af2:	40ca      	lsrs	r2, r1
24009af4:	f3c3 0308 	ubfx	r3, r3, #0, #9
24009af8:	ee07 2a10 	vmov	s14, r2
24009afc:	eef8 5ac7 	vcvt.f32.s32	s11, s14
24009b00:	ee85 7aa6 	vdiv.f32	s14, s11, s13
24009b04:	ee06 3a90 	vmov	s13, r3
24009b08:	eef8 6ae6 	vcvt.f32.s32	s13, s13
24009b0c:	ee76 7aa7 	vadd.f32	s15, s13, s15
24009b10:	ee77 7a86 	vadd.f32	s15, s15, s12
24009b14:	4b20      	ldr	r3, [pc, #128]	; (24009b98 <HAL_RCC_GetSysClockFreq+0x124>)
24009b16:	ee67 7a87 	vmul.f32	s15, s15, s14
24009b1a:	6b1b      	ldr	r3, [r3, #48]	; 0x30
24009b1c:	f3c3 2346 	ubfx	r3, r3, #9, #7
24009b20:	3301      	adds	r3, #1
24009b22:	ee07 3a10 	vmov	s14, r3
24009b26:	eef8 6ac7 	vcvt.f32.s32	s13, s14
24009b2a:	ee87 7aa6 	vdiv.f32	s14, s15, s13
24009b2e:	eefc 7ac7 	vcvt.u32.f32	s15, s14
24009b32:	ee17 0a90 	vmov	r0, s15
24009b36:	e7b3      	b.n	24009aa0 <HAL_RCC_GetSysClockFreq+0x2c>
24009b38:	6b1b      	ldr	r3, [r3, #48]	; 0x30
24009b3a:	f3c3 0308 	ubfx	r3, r3, #0, #9
24009b3e:	ee07 3a10 	vmov	s14, r3
24009b42:	eeb8 7ac7 	vcvt.f32.s32	s14, s14
24009b46:	ee77 7a27 	vadd.f32	s15, s14, s15
24009b4a:	ee77 7a86 	vadd.f32	s15, s15, s12
24009b4e:	ed9f 6a14 	vldr	s12, [pc, #80]	; 24009ba0 <HAL_RCC_GetSysClockFreq+0x12c>
24009b52:	ee86 7a26 	vdiv.f32	s14, s12, s13
24009b56:	e7dd      	b.n	24009b14 <HAL_RCC_GetSysClockFreq+0xa0>
24009b58:	6b1b      	ldr	r3, [r3, #48]	; 0x30
24009b5a:	f3c3 0308 	ubfx	r3, r3, #0, #9
24009b5e:	ee07 3a10 	vmov	s14, r3
24009b62:	eeb8 7ac7 	vcvt.f32.s32	s14, s14
24009b66:	ee77 7a27 	vadd.f32	s15, s14, s15
24009b6a:	ee77 7a86 	vadd.f32	s15, s15, s12
24009b6e:	ed9f 6a0d 	vldr	s12, [pc, #52]	; 24009ba4 <HAL_RCC_GetSysClockFreq+0x130>
24009b72:	e7ee      	b.n	24009b52 <HAL_RCC_GetSysClockFreq+0xde>
24009b74:	6b1b      	ldr	r3, [r3, #48]	; 0x30
24009b76:	f3c3 0308 	ubfx	r3, r3, #0, #9
24009b7a:	ee07 3a10 	vmov	s14, r3
24009b7e:	eeb8 7ac7 	vcvt.f32.s32	s14, s14
24009b82:	ee77 7a27 	vadd.f32	s15, s14, s15
24009b86:	ee77 7a86 	vadd.f32	s15, s15, s12
24009b8a:	ed9f 6a07 	vldr	s12, [pc, #28]	; 24009ba8 <HAL_RCC_GetSysClockFreq+0x134>
24009b8e:	e7e0      	b.n	24009b52 <HAL_RCC_GetSysClockFreq+0xde>
24009b90:	4806      	ldr	r0, [pc, #24]	; (24009bac <HAL_RCC_GetSysClockFreq+0x138>)
24009b92:	e785      	b.n	24009aa0 <HAL_RCC_GetSysClockFreq+0x2c>
24009b94:	4806      	ldr	r0, [pc, #24]	; (24009bb0 <HAL_RCC_GetSysClockFreq+0x13c>)
24009b96:	e783      	b.n	24009aa0 <HAL_RCC_GetSysClockFreq+0x2c>
24009b98:	58024400 	.word	0x58024400
24009b9c:	03d09000 	.word	0x03d09000
24009ba0:	4c742400 	.word	0x4c742400
24009ba4:	4bbebc20 	.word	0x4bbebc20
24009ba8:	4a742400 	.word	0x4a742400
24009bac:	017d7840 	.word	0x017d7840
24009bb0:	003d0900 	.word	0x003d0900

24009bb4 <HAL_RCC_ClockConfig>:
24009bb4:	e92d 41f0 	stmdb	sp!, {r4, r5, r6, r7, r8, lr}
24009bb8:	460d      	mov	r5, r1
24009bba:	4604      	mov	r4, r0
24009bbc:	b910      	cbnz	r0, 24009bc4 <HAL_RCC_ClockConfig+0x10>
24009bbe:	2001      	movs	r0, #1
24009bc0:	e8bd 81f0 	ldmia.w	sp!, {r4, r5, r6, r7, r8, pc}
24009bc4:	4a88      	ldr	r2, [pc, #544]	; (24009de8 <HAL_RCC_ClockConfig+0x234>)
24009bc6:	6813      	ldr	r3, [r2, #0]
24009bc8:	f003 030f 	and.w	r3, r3, #15
24009bcc:	428b      	cmp	r3, r1
24009bce:	f0c0 8093 	bcc.w	24009cf8 <HAL_RCC_ClockConfig+0x144>
24009bd2:	6823      	ldr	r3, [r4, #0]
24009bd4:	075f      	lsls	r7, r3, #29
24009bd6:	f100 809b 	bmi.w	24009d10 <HAL_RCC_ClockConfig+0x15c>
24009bda:	071e      	lsls	r6, r3, #28
24009bdc:	d50b      	bpl.n	24009bf6 <HAL_RCC_ClockConfig+0x42>
24009bde:	4983      	ldr	r1, [pc, #524]	; (24009dec <HAL_RCC_ClockConfig+0x238>)
24009be0:	6966      	ldr	r6, [r4, #20]
24009be2:	69c8      	ldr	r0, [r1, #28]
24009be4:	f000 0070 	and.w	r0, r0, #112	; 0x70
24009be8:	4286      	cmp	r6, r0
24009bea:	d904      	bls.n	24009bf6 <HAL_RCC_ClockConfig+0x42>
24009bec:	69ca      	ldr	r2, [r1, #28]
24009bee:	f022 0270 	bic.w	r2, r2, #112	; 0x70
24009bf2:	4332      	orrs	r2, r6
24009bf4:	61ca      	str	r2, [r1, #28]
24009bf6:	06d8      	lsls	r0, r3, #27
24009bf8:	d50b      	bpl.n	24009c12 <HAL_RCC_ClockConfig+0x5e>
24009bfa:	497c      	ldr	r1, [pc, #496]	; (24009dec <HAL_RCC_ClockConfig+0x238>)
24009bfc:	69a6      	ldr	r6, [r4, #24]
24009bfe:	69c8      	ldr	r0, [r1, #28]
24009c00:	f400 60e0 	and.w	r0, r0, #1792	; 0x700
24009c04:	4286      	cmp	r6, r0
24009c06:	d904      	bls.n	24009c12 <HAL_RCC_ClockConfig+0x5e>
24009c08:	69ca      	ldr	r2, [r1, #28]
24009c0a:	f422 62e0 	bic.w	r2, r2, #1792	; 0x700
24009c0e:	4332      	orrs	r2, r6
24009c10:	61ca      	str	r2, [r1, #28]
24009c12:	0699      	lsls	r1, r3, #26
24009c14:	d50b      	bpl.n	24009c2e <HAL_RCC_ClockConfig+0x7a>
24009c16:	4975      	ldr	r1, [pc, #468]	; (24009dec <HAL_RCC_ClockConfig+0x238>)
24009c18:	69e6      	ldr	r6, [r4, #28]
24009c1a:	6a08      	ldr	r0, [r1, #32]
24009c1c:	f000 0070 	and.w	r0, r0, #112	; 0x70
24009c20:	4286      	cmp	r6, r0
24009c22:	d904      	bls.n	24009c2e <HAL_RCC_ClockConfig+0x7a>
24009c24:	6a0a      	ldr	r2, [r1, #32]
24009c26:	f022 0270 	bic.w	r2, r2, #112	; 0x70
24009c2a:	4332      	orrs	r2, r6
24009c2c:	620a      	str	r2, [r1, #32]
24009c2e:	079a      	lsls	r2, r3, #30
24009c30:	d50b      	bpl.n	24009c4a <HAL_RCC_ClockConfig+0x96>
24009c32:	496e      	ldr	r1, [pc, #440]	; (24009dec <HAL_RCC_ClockConfig+0x238>)
24009c34:	68e6      	ldr	r6, [r4, #12]
24009c36:	6988      	ldr	r0, [r1, #24]
24009c38:	f000 000f 	and.w	r0, r0, #15
24009c3c:	4286      	cmp	r6, r0
24009c3e:	d904      	bls.n	24009c4a <HAL_RCC_ClockConfig+0x96>
24009c40:	698a      	ldr	r2, [r1, #24]
24009c42:	f022 020f 	bic.w	r2, r2, #15
24009c46:	4332      	orrs	r2, r6
24009c48:	618a      	str	r2, [r1, #24]
24009c4a:	07df      	lsls	r7, r3, #31
24009c4c:	d46e      	bmi.n	24009d2c <HAL_RCC_ClockConfig+0x178>
24009c4e:	6823      	ldr	r3, [r4, #0]
24009c50:	079e      	lsls	r6, r3, #30
24009c52:	f100 80a1 	bmi.w	24009d98 <HAL_RCC_ClockConfig+0x1e4>
24009c56:	4964      	ldr	r1, [pc, #400]	; (24009de8 <HAL_RCC_ClockConfig+0x234>)
24009c58:	680a      	ldr	r2, [r1, #0]
24009c5a:	f002 020f 	and.w	r2, r2, #15
24009c5e:	42aa      	cmp	r2, r5
24009c60:	f200 80a8 	bhi.w	24009db4 <HAL_RCC_ClockConfig+0x200>
24009c64:	0758      	lsls	r0, r3, #29
24009c66:	f100 80b1 	bmi.w	24009dcc <HAL_RCC_ClockConfig+0x218>
24009c6a:	0719      	lsls	r1, r3, #28
24009c6c:	d50b      	bpl.n	24009c86 <HAL_RCC_ClockConfig+0xd2>
24009c6e:	495f      	ldr	r1, [pc, #380]	; (24009dec <HAL_RCC_ClockConfig+0x238>)
24009c70:	6965      	ldr	r5, [r4, #20]
24009c72:	69c8      	ldr	r0, [r1, #28]
24009c74:	f000 0070 	and.w	r0, r0, #112	; 0x70
24009c78:	4285      	cmp	r5, r0
24009c7a:	d204      	bcs.n	24009c86 <HAL_RCC_ClockConfig+0xd2>
24009c7c:	69ca      	ldr	r2, [r1, #28]
24009c7e:	f022 0270 	bic.w	r2, r2, #112	; 0x70
24009c82:	432a      	orrs	r2, r5
24009c84:	61ca      	str	r2, [r1, #28]
24009c86:	06da      	lsls	r2, r3, #27
24009c88:	d50b      	bpl.n	24009ca2 <HAL_RCC_ClockConfig+0xee>
24009c8a:	4958      	ldr	r1, [pc, #352]	; (24009dec <HAL_RCC_ClockConfig+0x238>)
24009c8c:	69a5      	ldr	r5, [r4, #24]
24009c8e:	69c8      	ldr	r0, [r1, #28]
24009c90:	f400 60e0 	and.w	r0, r0, #1792	; 0x700
24009c94:	4285      	cmp	r5, r0
24009c96:	d204      	bcs.n	24009ca2 <HAL_RCC_ClockConfig+0xee>
24009c98:	69ca      	ldr	r2, [r1, #28]
24009c9a:	f422 62e0 	bic.w	r2, r2, #1792	; 0x700
24009c9e:	432a      	orrs	r2, r5
24009ca0:	61ca      	str	r2, [r1, #28]
24009ca2:	069b      	lsls	r3, r3, #26
24009ca4:	d50b      	bpl.n	24009cbe <HAL_RCC_ClockConfig+0x10a>
24009ca6:	4a51      	ldr	r2, [pc, #324]	; (24009dec <HAL_RCC_ClockConfig+0x238>)
24009ca8:	69e0      	ldr	r0, [r4, #28]
24009caa:	6a11      	ldr	r1, [r2, #32]
24009cac:	f001 0170 	and.w	r1, r1, #112	; 0x70
24009cb0:	4288      	cmp	r0, r1
24009cb2:	d204      	bcs.n	24009cbe <HAL_RCC_ClockConfig+0x10a>
24009cb4:	6a13      	ldr	r3, [r2, #32]
24009cb6:	f023 0370 	bic.w	r3, r3, #112	; 0x70
24009cba:	4303      	orrs	r3, r0
24009cbc:	6213      	str	r3, [r2, #32]
24009cbe:	f7ff fed9 	bl	24009a74 <HAL_RCC_GetSysClockFreq>
24009cc2:	494a      	ldr	r1, [pc, #296]	; (24009dec <HAL_RCC_ClockConfig+0x238>)
24009cc4:	4a4a      	ldr	r2, [pc, #296]	; (24009df0 <HAL_RCC_ClockConfig+0x23c>)
24009cc6:	698b      	ldr	r3, [r1, #24]
24009cc8:	f3c3 2303 	ubfx	r3, r3, #8, #4
24009ccc:	5cd3      	ldrb	r3, [r2, r3]
24009cce:	f003 031f 	and.w	r3, r3, #31
24009cd2:	40d8      	lsrs	r0, r3
24009cd4:	698b      	ldr	r3, [r1, #24]
24009cd6:	f003 030f 	and.w	r3, r3, #15
24009cda:	5cd3      	ldrb	r3, [r2, r3]
24009cdc:	4a45      	ldr	r2, [pc, #276]	; (24009df4 <HAL_RCC_ClockConfig+0x240>)
24009cde:	f003 031f 	and.w	r3, r3, #31
24009ce2:	fa20 f303 	lsr.w	r3, r0, r3
24009ce6:	6013      	str	r3, [r2, #0]
24009ce8:	4b43      	ldr	r3, [pc, #268]	; (24009df8 <HAL_RCC_ClockConfig+0x244>)
24009cea:	6018      	str	r0, [r3, #0]
24009cec:	4b43      	ldr	r3, [pc, #268]	; (24009dfc <HAL_RCC_ClockConfig+0x248>)
24009cee:	e8bd 41f0 	ldmia.w	sp!, {r4, r5, r6, r7, r8, lr}
24009cf2:	6818      	ldr	r0, [r3, #0]
24009cf4:	f7f6 bcf6 	b.w	240006e4 <HAL_InitTick>
24009cf8:	6813      	ldr	r3, [r2, #0]
24009cfa:	f023 030f 	bic.w	r3, r3, #15
24009cfe:	430b      	orrs	r3, r1
24009d00:	6013      	str	r3, [r2, #0]
24009d02:	6813      	ldr	r3, [r2, #0]
24009d04:	f003 030f 	and.w	r3, r3, #15
24009d08:	428b      	cmp	r3, r1
24009d0a:	f47f af58 	bne.w	24009bbe <HAL_RCC_ClockConfig+0xa>
24009d0e:	e760      	b.n	24009bd2 <HAL_RCC_ClockConfig+0x1e>
24009d10:	4936      	ldr	r1, [pc, #216]	; (24009dec <HAL_RCC_ClockConfig+0x238>)
24009d12:	6926      	ldr	r6, [r4, #16]
24009d14:	6988      	ldr	r0, [r1, #24]
24009d16:	f000 0070 	and.w	r0, r0, #112	; 0x70
24009d1a:	4286      	cmp	r6, r0
24009d1c:	f67f af5d 	bls.w	24009bda <HAL_RCC_ClockConfig+0x26>
24009d20:	698a      	ldr	r2, [r1, #24]
24009d22:	f022 0270 	bic.w	r2, r2, #112	; 0x70
24009d26:	4332      	orrs	r2, r6
24009d28:	618a      	str	r2, [r1, #24]
24009d2a:	e756      	b.n	24009bda <HAL_RCC_ClockConfig+0x26>
24009d2c:	4b2f      	ldr	r3, [pc, #188]	; (24009dec <HAL_RCC_ClockConfig+0x238>)
24009d2e:	68a1      	ldr	r1, [r4, #8]
24009d30:	699a      	ldr	r2, [r3, #24]
24009d32:	f422 6270 	bic.w	r2, r2, #3840	; 0xf00
24009d36:	430a      	orrs	r2, r1
24009d38:	619a      	str	r2, [r3, #24]
24009d3a:	6862      	ldr	r2, [r4, #4]
24009d3c:	681b      	ldr	r3, [r3, #0]
24009d3e:	2a02      	cmp	r2, #2
24009d40:	d11d      	bne.n	24009d7e <HAL_RCC_ClockConfig+0x1ca>
24009d42:	f413 3f00 	tst.w	r3, #131072	; 0x20000
24009d46:	f43f af3a 	beq.w	24009bbe <HAL_RCC_ClockConfig+0xa>
24009d4a:	4e28      	ldr	r6, [pc, #160]	; (24009dec <HAL_RCC_ClockConfig+0x238>)
24009d4c:	f241 3888 	movw	r8, #5000	; 0x1388
24009d50:	6933      	ldr	r3, [r6, #16]
24009d52:	f023 0307 	bic.w	r3, r3, #7
24009d56:	4313      	orrs	r3, r2
24009d58:	6133      	str	r3, [r6, #16]
24009d5a:	f7f6 fd23 	bl	240007a4 <HAL_GetTick>
24009d5e:	4607      	mov	r7, r0
24009d60:	6933      	ldr	r3, [r6, #16]
24009d62:	6862      	ldr	r2, [r4, #4]
24009d64:	f003 0338 	and.w	r3, r3, #56	; 0x38
24009d68:	ebb3 0fc2 	cmp.w	r3, r2, lsl #3
24009d6c:	f43f af6f 	beq.w	24009c4e <HAL_RCC_ClockConfig+0x9a>
24009d70:	f7f6 fd18 	bl	240007a4 <HAL_GetTick>
24009d74:	1bc0      	subs	r0, r0, r7
24009d76:	4540      	cmp	r0, r8
24009d78:	d9f2      	bls.n	24009d60 <HAL_RCC_ClockConfig+0x1ac>
24009d7a:	2003      	movs	r0, #3
24009d7c:	e720      	b.n	24009bc0 <HAL_RCC_ClockConfig+0xc>
24009d7e:	2a03      	cmp	r2, #3
24009d80:	d102      	bne.n	24009d88 <HAL_RCC_ClockConfig+0x1d4>
24009d82:	f013 7f00 	tst.w	r3, #33554432	; 0x2000000
24009d86:	e7de      	b.n	24009d46 <HAL_RCC_ClockConfig+0x192>
24009d88:	2a01      	cmp	r2, #1
24009d8a:	d102      	bne.n	24009d92 <HAL_RCC_ClockConfig+0x1de>
24009d8c:	f413 7f80 	tst.w	r3, #256	; 0x100
24009d90:	e7d9      	b.n	24009d46 <HAL_RCC_ClockConfig+0x192>
24009d92:	f013 0f04 	tst.w	r3, #4
24009d96:	e7d6      	b.n	24009d46 <HAL_RCC_ClockConfig+0x192>
24009d98:	4914      	ldr	r1, [pc, #80]	; (24009dec <HAL_RCC_ClockConfig+0x238>)
24009d9a:	68e6      	ldr	r6, [r4, #12]
24009d9c:	6988      	ldr	r0, [r1, #24]
24009d9e:	f000 000f 	and.w	r0, r0, #15
24009da2:	4286      	cmp	r6, r0
24009da4:	f4bf af57 	bcs.w	24009c56 <HAL_RCC_ClockConfig+0xa2>
24009da8:	698a      	ldr	r2, [r1, #24]
24009daa:	f022 020f 	bic.w	r2, r2, #15
24009dae:	4332      	orrs	r2, r6
24009db0:	618a      	str	r2, [r1, #24]
24009db2:	e750      	b.n	24009c56 <HAL_RCC_ClockConfig+0xa2>
24009db4:	680a      	ldr	r2, [r1, #0]
24009db6:	f022 020f 	bic.w	r2, r2, #15
24009dba:	432a      	orrs	r2, r5
24009dbc:	600a      	str	r2, [r1, #0]
24009dbe:	680a      	ldr	r2, [r1, #0]
24009dc0:	f002 020f 	and.w	r2, r2, #15
24009dc4:	42aa      	cmp	r2, r5
24009dc6:	f47f aefa 	bne.w	24009bbe <HAL_RCC_ClockConfig+0xa>
24009dca:	e74b      	b.n	24009c64 <HAL_RCC_ClockConfig+0xb0>
24009dcc:	4907      	ldr	r1, [pc, #28]	; (24009dec <HAL_RCC_ClockConfig+0x238>)
24009dce:	6925      	ldr	r5, [r4, #16]
24009dd0:	6988      	ldr	r0, [r1, #24]
24009dd2:	f000 0070 	and.w	r0, r0, #112	; 0x70
24009dd6:	4285      	cmp	r5, r0
24009dd8:	f4bf af47 	bcs.w	24009c6a <HAL_RCC_ClockConfig+0xb6>
24009ddc:	698a      	ldr	r2, [r1, #24]
24009dde:	f022 0270 	bic.w	r2, r2, #112	; 0x70
24009de2:	432a      	orrs	r2, r5
24009de4:	618a      	str	r2, [r1, #24]
24009de6:	e740      	b.n	24009c6a <HAL_RCC_ClockConfig+0xb6>
24009de8:	52002000 	.word	0x52002000
24009dec:	58024400 	.word	0x58024400
24009df0:	2400c230 	.word	0x2400c230
24009df4:	240004bc 	.word	0x240004bc
24009df8:	240004b8 	.word	0x240004b8
24009dfc:	240004b0 	.word	0x240004b0

24009e00 <HAL_RCC_GetHCLKFreq>:
24009e00:	b510      	push	{r4, lr}
24009e02:	4c0c      	ldr	r4, [pc, #48]	; (24009e34 <HAL_RCC_GetHCLKFreq+0x34>)
24009e04:	f7ff fe36 	bl	24009a74 <HAL_RCC_GetSysClockFreq>
24009e08:	490b      	ldr	r1, [pc, #44]	; (24009e38 <HAL_RCC_GetHCLKFreq+0x38>)
24009e0a:	69a3      	ldr	r3, [r4, #24]
24009e0c:	f3c3 2303 	ubfx	r3, r3, #8, #4
24009e10:	5cca      	ldrb	r2, [r1, r3]
24009e12:	69a3      	ldr	r3, [r4, #24]
24009e14:	f002 021f 	and.w	r2, r2, #31
24009e18:	f003 030f 	and.w	r3, r3, #15
24009e1c:	fa20 f202 	lsr.w	r2, r0, r2
24009e20:	5ccb      	ldrb	r3, [r1, r3]
24009e22:	f003 031f 	and.w	r3, r3, #31
24009e26:	fa22 f003 	lsr.w	r0, r2, r3
24009e2a:	4b04      	ldr	r3, [pc, #16]	; (24009e3c <HAL_RCC_GetHCLKFreq+0x3c>)
24009e2c:	6018      	str	r0, [r3, #0]
24009e2e:	4b04      	ldr	r3, [pc, #16]	; (24009e40 <HAL_RCC_GetHCLKFreq+0x40>)
24009e30:	601a      	str	r2, [r3, #0]
24009e32:	bd10      	pop	{r4, pc}
24009e34:	58024400 	.word	0x58024400
24009e38:	2400c230 	.word	0x2400c230
24009e3c:	240004bc 	.word	0x240004bc
24009e40:	240004b8 	.word	0x240004b8

24009e44 <HAL_RCC_GetPCLK1Freq>:
24009e44:	b508      	push	{r3, lr}
24009e46:	f7ff ffdb 	bl	24009e00 <HAL_RCC_GetHCLKFreq>
24009e4a:	4b05      	ldr	r3, [pc, #20]	; (24009e60 <HAL_RCC_GetPCLK1Freq+0x1c>)
24009e4c:	4a05      	ldr	r2, [pc, #20]	; (24009e64 <HAL_RCC_GetPCLK1Freq+0x20>)
24009e4e:	69db      	ldr	r3, [r3, #28]
24009e50:	f3c3 1302 	ubfx	r3, r3, #4, #3
24009e54:	5cd3      	ldrb	r3, [r2, r3]
24009e56:	f003 031f 	and.w	r3, r3, #31
24009e5a:	40d8      	lsrs	r0, r3
24009e5c:	bd08      	pop	{r3, pc}
24009e5e:	bf00      	nop
24009e60:	58024400 	.word	0x58024400
24009e64:	2400c230 	.word	0x2400c230

24009e68 <HAL_RCC_GetPCLK2Freq>:
24009e68:	b508      	push	{r3, lr}
24009e6a:	f7ff ffc9 	bl	24009e00 <HAL_RCC_GetHCLKFreq>
24009e6e:	4b05      	ldr	r3, [pc, #20]	; (24009e84 <HAL_RCC_GetPCLK2Freq+0x1c>)
24009e70:	4a05      	ldr	r2, [pc, #20]	; (24009e88 <HAL_RCC_GetPCLK2Freq+0x20>)
24009e72:	69db      	ldr	r3, [r3, #28]
24009e74:	f3c3 2302 	ubfx	r3, r3, #8, #3
24009e78:	5cd3      	ldrb	r3, [r2, r3]
24009e7a:	f003 031f 	and.w	r3, r3, #31
24009e7e:	40d8      	lsrs	r0, r3
24009e80:	bd08      	pop	{r3, pc}
24009e82:	bf00      	nop
24009e84:	58024400 	.word	0x58024400
24009e88:	2400c230 	.word	0x2400c230

24009e8c <HAL_RCC_GetOscConfig>:
24009e8c:	b538      	push	{r3, r4, r5, lr}
24009e8e:	4a3c      	ldr	r2, [pc, #240]	; (24009f80 <HAL_RCC_GetOscConfig+0xf4>)
24009e90:	233f      	movs	r3, #63	; 0x3f
24009e92:	4604      	mov	r4, r0
24009e94:	6003      	str	r3, [r0, #0]
24009e96:	6813      	ldr	r3, [r2, #0]
24009e98:	0359      	lsls	r1, r3, #13
24009e9a:	d560      	bpl.n	24009f5e <HAL_RCC_GetOscConfig+0xd2>
24009e9c:	f44f 23a0 	mov.w	r3, #327680	; 0x50000
24009ea0:	6063      	str	r3, [r4, #4]
24009ea2:	6813      	ldr	r3, [r2, #0]
24009ea4:	4d36      	ldr	r5, [pc, #216]	; (24009f80 <HAL_RCC_GetOscConfig+0xf4>)
24009ea6:	f003 0380 	and.w	r3, r3, #128	; 0x80
24009eaa:	61e3      	str	r3, [r4, #28]
24009eac:	f7f6 fcc4 	bl	24000838 <HAL_GetREVID>
24009eb0:	f241 0303 	movw	r3, #4099	; 0x1003
24009eb4:	4298      	cmp	r0, r3
24009eb6:	d859      	bhi.n	24009f6c <HAL_RCC_GetOscConfig+0xe0>
24009eb8:	686b      	ldr	r3, [r5, #4]
24009eba:	f3c3 6384 	ubfx	r3, r3, #26, #5
24009ebe:	6223      	str	r3, [r4, #32]
24009ec0:	682b      	ldr	r3, [r5, #0]
24009ec2:	f003 0301 	and.w	r3, r3, #1
24009ec6:	60e3      	str	r3, [r4, #12]
24009ec8:	f7f6 fcb6 	bl	24000838 <HAL_GetREVID>
24009ecc:	f241 0303 	movw	r3, #4099	; 0x1003
24009ed0:	4298      	cmp	r0, r3
24009ed2:	686b      	ldr	r3, [r5, #4]
24009ed4:	bf94      	ite	ls
24009ed6:	f3c3 3305 	ubfxls	r3, r3, #12, #6
24009eda:	f3c3 6306 	ubfxhi	r3, r3, #24, #7
24009ede:	6123      	str	r3, [r4, #16]
24009ee0:	4b27      	ldr	r3, [pc, #156]	; (24009f80 <HAL_RCC_GetOscConfig+0xf4>)
24009ee2:	6f1a      	ldr	r2, [r3, #112]	; 0x70
24009ee4:	0752      	lsls	r2, r2, #29
24009ee6:	d545      	bpl.n	24009f74 <HAL_RCC_GetOscConfig+0xe8>
24009ee8:	2205      	movs	r2, #5
24009eea:	60a2      	str	r2, [r4, #8]
24009eec:	6f5a      	ldr	r2, [r3, #116]	; 0x74
24009eee:	f002 0201 	and.w	r2, r2, #1
24009ef2:	6162      	str	r2, [r4, #20]
24009ef4:	681a      	ldr	r2, [r3, #0]
24009ef6:	f3c2 3200 	ubfx	r2, r2, #12, #1
24009efa:	61a2      	str	r2, [r4, #24]
24009efc:	681b      	ldr	r3, [r3, #0]
24009efe:	f013 7f80 	tst.w	r3, #16777216	; 0x1000000
24009f02:	bf14      	ite	ne
24009f04:	2302      	movne	r3, #2
24009f06:	2301      	moveq	r3, #1
24009f08:	6263      	str	r3, [r4, #36]	; 0x24
24009f0a:	4b1d      	ldr	r3, [pc, #116]	; (24009f80 <HAL_RCC_GetOscConfig+0xf4>)
24009f0c:	6a9a      	ldr	r2, [r3, #40]	; 0x28
24009f0e:	f002 0203 	and.w	r2, r2, #3
24009f12:	62a2      	str	r2, [r4, #40]	; 0x28
24009f14:	6a9a      	ldr	r2, [r3, #40]	; 0x28
24009f16:	f3c2 1205 	ubfx	r2, r2, #4, #6
24009f1a:	62e2      	str	r2, [r4, #44]	; 0x2c
24009f1c:	6b1a      	ldr	r2, [r3, #48]	; 0x30
24009f1e:	f3c2 0208 	ubfx	r2, r2, #0, #9
24009f22:	3201      	adds	r2, #1
24009f24:	6322      	str	r2, [r4, #48]	; 0x30
24009f26:	6b1a      	ldr	r2, [r3, #48]	; 0x30
24009f28:	f3c2 6206 	ubfx	r2, r2, #24, #7
24009f2c:	3201      	adds	r2, #1
24009f2e:	63e2      	str	r2, [r4, #60]	; 0x3c
24009f30:	6b1a      	ldr	r2, [r3, #48]	; 0x30
24009f32:	f3c2 2246 	ubfx	r2, r2, #9, #7
24009f36:	3201      	adds	r2, #1
24009f38:	6362      	str	r2, [r4, #52]	; 0x34
24009f3a:	6b1a      	ldr	r2, [r3, #48]	; 0x30
24009f3c:	f3c2 4206 	ubfx	r2, r2, #16, #7
24009f40:	3201      	adds	r2, #1
24009f42:	63a2      	str	r2, [r4, #56]	; 0x38
24009f44:	6ada      	ldr	r2, [r3, #44]	; 0x2c
24009f46:	f002 020c 	and.w	r2, r2, #12
24009f4a:	6422      	str	r2, [r4, #64]	; 0x40
24009f4c:	6ada      	ldr	r2, [r3, #44]	; 0x2c
24009f4e:	f3c2 0240 	ubfx	r2, r2, #1, #1
24009f52:	6462      	str	r2, [r4, #68]	; 0x44
24009f54:	6b5b      	ldr	r3, [r3, #52]	; 0x34
24009f56:	f3c3 03cc 	ubfx	r3, r3, #3, #13
24009f5a:	64a3      	str	r3, [r4, #72]	; 0x48
24009f5c:	bd38      	pop	{r3, r4, r5, pc}
24009f5e:	6813      	ldr	r3, [r2, #0]
24009f60:	f413 3380 	ands.w	r3, r3, #65536	; 0x10000
24009f64:	bf18      	it	ne
24009f66:	f44f 3380 	movne.w	r3, #65536	; 0x10000
24009f6a:	e799      	b.n	24009ea0 <HAL_RCC_GetOscConfig+0x14>
24009f6c:	68eb      	ldr	r3, [r5, #12]
24009f6e:	f3c3 6305 	ubfx	r3, r3, #24, #6
24009f72:	e7a4      	b.n	24009ebe <HAL_RCC_GetOscConfig+0x32>
24009f74:	6f1a      	ldr	r2, [r3, #112]	; 0x70
24009f76:	f012 0201 	ands.w	r2, r2, #1
24009f7a:	bf18      	it	ne
24009f7c:	2201      	movne	r2, #1
24009f7e:	e7b4      	b.n	24009eea <HAL_RCC_GetOscConfig+0x5e>
24009f80:	58024400 	.word	0x58024400

24009f84 <HAL_RCC_GetClockConfig>:
24009f84:	233f      	movs	r3, #63	; 0x3f
24009f86:	6003      	str	r3, [r0, #0]
24009f88:	4b11      	ldr	r3, [pc, #68]	; (24009fd0 <HAL_RCC_GetClockConfig+0x4c>)
24009f8a:	691a      	ldr	r2, [r3, #16]
24009f8c:	f002 0207 	and.w	r2, r2, #7
24009f90:	6042      	str	r2, [r0, #4]
24009f92:	699a      	ldr	r2, [r3, #24]
24009f94:	f402 6270 	and.w	r2, r2, #3840	; 0xf00
24009f98:	6082      	str	r2, [r0, #8]
24009f9a:	699a      	ldr	r2, [r3, #24]
24009f9c:	f002 020f 	and.w	r2, r2, #15
24009fa0:	60c2      	str	r2, [r0, #12]
24009fa2:	699a      	ldr	r2, [r3, #24]
24009fa4:	f002 0270 	and.w	r2, r2, #112	; 0x70
24009fa8:	6102      	str	r2, [r0, #16]
24009faa:	69da      	ldr	r2, [r3, #28]
24009fac:	f002 0270 	and.w	r2, r2, #112	; 0x70
24009fb0:	6142      	str	r2, [r0, #20]
24009fb2:	69da      	ldr	r2, [r3, #28]
24009fb4:	f402 62e0 	and.w	r2, r2, #1792	; 0x700
24009fb8:	6182      	str	r2, [r0, #24]
24009fba:	6a1b      	ldr	r3, [r3, #32]
24009fbc:	f003 0370 	and.w	r3, r3, #112	; 0x70
24009fc0:	61c3      	str	r3, [r0, #28]
24009fc2:	4b04      	ldr	r3, [pc, #16]	; (24009fd4 <HAL_RCC_GetClockConfig+0x50>)
24009fc4:	681b      	ldr	r3, [r3, #0]
24009fc6:	f003 030f 	and.w	r3, r3, #15
24009fca:	600b      	str	r3, [r1, #0]
24009fcc:	4770      	bx	lr
24009fce:	bf00      	nop
24009fd0:	58024400 	.word	0x58024400
24009fd4:	52002000 	.word	0x52002000

24009fd8 <HAL_RCC_CSSCallback>:
24009fd8:	4770      	bx	lr
	...

24009fdc <HAL_RCC_NMI_IRQHandler>:
24009fdc:	b510      	push	{r4, lr}
24009fde:	4c05      	ldr	r4, [pc, #20]	; (24009ff4 <HAL_RCC_NMI_IRQHandler+0x18>)
24009fe0:	6e63      	ldr	r3, [r4, #100]	; 0x64
24009fe2:	055b      	lsls	r3, r3, #21
24009fe4:	d504      	bpl.n	24009ff0 <HAL_RCC_NMI_IRQHandler+0x14>
24009fe6:	f7ff fff7 	bl	24009fd8 <HAL_RCC_CSSCallback>
24009fea:	f44f 6380 	mov.w	r3, #1024	; 0x400
24009fee:	66a3      	str	r3, [r4, #104]	; 0x68
24009ff0:	bd10      	pop	{r4, pc}
24009ff2:	bf00      	nop
24009ff4:	58024400 	.word	0x58024400

24009ff8 <RCCEx_PLL2_Config>:
24009ff8:	b5f8      	push	{r3, r4, r5, r6, r7, lr}
24009ffa:	4c3a      	ldr	r4, [pc, #232]	; (2400a0e4 <RCCEx_PLL2_Config+0xec>)
24009ffc:	4606      	mov	r6, r0
24009ffe:	460d      	mov	r5, r1
2400a000:	6aa3      	ldr	r3, [r4, #40]	; 0x28
2400a002:	f003 0303 	and.w	r3, r3, #3
2400a006:	2b03      	cmp	r3, #3
2400a008:	d069      	beq.n	2400a0de <RCCEx_PLL2_Config+0xe6>
2400a00a:	6823      	ldr	r3, [r4, #0]
2400a00c:	f023 6380 	bic.w	r3, r3, #67108864	; 0x4000000
2400a010:	6023      	str	r3, [r4, #0]
2400a012:	f7f6 fbc7 	bl	240007a4 <HAL_GetTick>
2400a016:	4607      	mov	r7, r0
2400a018:	6823      	ldr	r3, [r4, #0]
2400a01a:	011a      	lsls	r2, r3, #4
2400a01c:	d44b      	bmi.n	2400a0b6 <RCCEx_PLL2_Config+0xbe>
2400a01e:	6aa3      	ldr	r3, [r4, #40]	; 0x28
2400a020:	6832      	ldr	r2, [r6, #0]
2400a022:	f423 337c 	bic.w	r3, r3, #258048	; 0x3f000
2400a026:	ea43 3302 	orr.w	r3, r3, r2, lsl #12
2400a02a:	62a3      	str	r3, [r4, #40]	; 0x28
2400a02c:	68b3      	ldr	r3, [r6, #8]
2400a02e:	68f2      	ldr	r2, [r6, #12]
2400a030:	3b01      	subs	r3, #1
2400a032:	3a01      	subs	r2, #1
2400a034:	025b      	lsls	r3, r3, #9
2400a036:	0412      	lsls	r2, r2, #16
2400a038:	b29b      	uxth	r3, r3
2400a03a:	f402 02fe 	and.w	r2, r2, #8323072	; 0x7f0000
2400a03e:	4313      	orrs	r3, r2
2400a040:	6872      	ldr	r2, [r6, #4]
2400a042:	3a01      	subs	r2, #1
2400a044:	f3c2 0208 	ubfx	r2, r2, #0, #9
2400a048:	4313      	orrs	r3, r2
2400a04a:	6932      	ldr	r2, [r6, #16]
2400a04c:	3a01      	subs	r2, #1
2400a04e:	0612      	lsls	r2, r2, #24
2400a050:	f002 42fe 	and.w	r2, r2, #2130706432	; 0x7f000000
2400a054:	4313      	orrs	r3, r2
2400a056:	63a3      	str	r3, [r4, #56]	; 0x38
2400a058:	6ae3      	ldr	r3, [r4, #44]	; 0x2c
2400a05a:	6972      	ldr	r2, [r6, #20]
2400a05c:	f023 03c0 	bic.w	r3, r3, #192	; 0xc0
2400a060:	4313      	orrs	r3, r2
2400a062:	62e3      	str	r3, [r4, #44]	; 0x2c
2400a064:	6ae3      	ldr	r3, [r4, #44]	; 0x2c
2400a066:	69b2      	ldr	r2, [r6, #24]
2400a068:	f023 0320 	bic.w	r3, r3, #32
2400a06c:	4313      	orrs	r3, r2
2400a06e:	62e3      	str	r3, [r4, #44]	; 0x2c
2400a070:	6ae3      	ldr	r3, [r4, #44]	; 0x2c
2400a072:	f023 0310 	bic.w	r3, r3, #16
2400a076:	62e3      	str	r3, [r4, #44]	; 0x2c
2400a078:	6be3      	ldr	r3, [r4, #60]	; 0x3c
2400a07a:	69f2      	ldr	r2, [r6, #28]
2400a07c:	f423 437f 	bic.w	r3, r3, #65280	; 0xff00
2400a080:	f023 03f8 	bic.w	r3, r3, #248	; 0xf8
2400a084:	ea43 03c2 	orr.w	r3, r3, r2, lsl #3
2400a088:	63e3      	str	r3, [r4, #60]	; 0x3c
2400a08a:	6ae3      	ldr	r3, [r4, #44]	; 0x2c
2400a08c:	f043 0310 	orr.w	r3, r3, #16
2400a090:	62e3      	str	r3, [r4, #44]	; 0x2c
2400a092:	6ae3      	ldr	r3, [r4, #44]	; 0x2c
2400a094:	b9b5      	cbnz	r5, 2400a0c4 <RCCEx_PLL2_Config+0xcc>
2400a096:	f443 2300 	orr.w	r3, r3, #524288	; 0x80000
2400a09a:	62e3      	str	r3, [r4, #44]	; 0x2c
2400a09c:	4c11      	ldr	r4, [pc, #68]	; (2400a0e4 <RCCEx_PLL2_Config+0xec>)
2400a09e:	6823      	ldr	r3, [r4, #0]
2400a0a0:	f043 6380 	orr.w	r3, r3, #67108864	; 0x4000000
2400a0a4:	6023      	str	r3, [r4, #0]
2400a0a6:	f7f6 fb7d 	bl	240007a4 <HAL_GetTick>
2400a0aa:	4605      	mov	r5, r0
2400a0ac:	6823      	ldr	r3, [r4, #0]
2400a0ae:	011b      	lsls	r3, r3, #4
2400a0b0:	d50f      	bpl.n	2400a0d2 <RCCEx_PLL2_Config+0xda>
2400a0b2:	2000      	movs	r0, #0
2400a0b4:	e005      	b.n	2400a0c2 <RCCEx_PLL2_Config+0xca>
2400a0b6:	f7f6 fb75 	bl	240007a4 <HAL_GetTick>
2400a0ba:	1bc0      	subs	r0, r0, r7
2400a0bc:	2802      	cmp	r0, #2
2400a0be:	d9ab      	bls.n	2400a018 <RCCEx_PLL2_Config+0x20>
2400a0c0:	2003      	movs	r0, #3
2400a0c2:	bdf8      	pop	{r3, r4, r5, r6, r7, pc}
2400a0c4:	2d01      	cmp	r5, #1
2400a0c6:	bf0c      	ite	eq
2400a0c8:	f443 1380 	orreq.w	r3, r3, #1048576	; 0x100000
2400a0cc:	f443 1300 	orrne.w	r3, r3, #2097152	; 0x200000
2400a0d0:	e7e3      	b.n	2400a09a <RCCEx_PLL2_Config+0xa2>
2400a0d2:	f7f6 fb67 	bl	240007a4 <HAL_GetTick>
2400a0d6:	1b40      	subs	r0, r0, r5
2400a0d8:	2802      	cmp	r0, #2
2400a0da:	d9e7      	bls.n	2400a0ac <RCCEx_PLL2_Config+0xb4>
2400a0dc:	e7f0      	b.n	2400a0c0 <RCCEx_PLL2_Config+0xc8>
2400a0de:	2001      	movs	r0, #1
2400a0e0:	e7ef      	b.n	2400a0c2 <RCCEx_PLL2_Config+0xca>
2400a0e2:	bf00      	nop
2400a0e4:	58024400 	.word	0x58024400

2400a0e8 <RCCEx_PLL3_Config>:
2400a0e8:	b5f8      	push	{r3, r4, r5, r6, r7, lr}
2400a0ea:	4c3a      	ldr	r4, [pc, #232]	; (2400a1d4 <RCCEx_PLL3_Config+0xec>)
2400a0ec:	4606      	mov	r6, r0
2400a0ee:	460d      	mov	r5, r1
2400a0f0:	6aa3      	ldr	r3, [r4, #40]	; 0x28
2400a0f2:	f003 0303 	and.w	r3, r3, #3
2400a0f6:	2b03      	cmp	r3, #3
2400a0f8:	d069      	beq.n	2400a1ce <RCCEx_PLL3_Config+0xe6>
2400a0fa:	6823      	ldr	r3, [r4, #0]
2400a0fc:	f023 5380 	bic.w	r3, r3, #268435456	; 0x10000000
2400a100:	6023      	str	r3, [r4, #0]
2400a102:	f7f6 fb4f 	bl	240007a4 <HAL_GetTick>
2400a106:	4607      	mov	r7, r0
2400a108:	6823      	ldr	r3, [r4, #0]
2400a10a:	009a      	lsls	r2, r3, #2
2400a10c:	d44b      	bmi.n	2400a1a6 <RCCEx_PLL3_Config+0xbe>
2400a10e:	6aa3      	ldr	r3, [r4, #40]	; 0x28
2400a110:	6832      	ldr	r2, [r6, #0]
2400a112:	f023 737c 	bic.w	r3, r3, #66060288	; 0x3f00000
2400a116:	ea43 5302 	orr.w	r3, r3, r2, lsl #20
2400a11a:	62a3      	str	r3, [r4, #40]	; 0x28
2400a11c:	68b3      	ldr	r3, [r6, #8]
2400a11e:	68f2      	ldr	r2, [r6, #12]
2400a120:	3b01      	subs	r3, #1
2400a122:	3a01      	subs	r2, #1
2400a124:	025b      	lsls	r3, r3, #9
2400a126:	0412      	lsls	r2, r2, #16
2400a128:	b29b      	uxth	r3, r3
2400a12a:	f402 02fe 	and.w	r2, r2, #8323072	; 0x7f0000
2400a12e:	4313      	orrs	r3, r2
2400a130:	6872      	ldr	r2, [r6, #4]
2400a132:	3a01      	subs	r2, #1
2400a134:	f3c2 0208 	ubfx	r2, r2, #0, #9
2400a138:	4313      	orrs	r3, r2
2400a13a:	6932      	ldr	r2, [r6, #16]
2400a13c:	3a01      	subs	r2, #1
2400a13e:	0612      	lsls	r2, r2, #24
2400a140:	f002 42fe 	and.w	r2, r2, #2130706432	; 0x7f000000
2400a144:	4313      	orrs	r3, r2
2400a146:	6423      	str	r3, [r4, #64]	; 0x40
2400a148:	6ae3      	ldr	r3, [r4, #44]	; 0x2c
2400a14a:	6972      	ldr	r2, [r6, #20]
2400a14c:	f423 6340 	bic.w	r3, r3, #3072	; 0xc00
2400a150:	4313      	orrs	r3, r2
2400a152:	62e3      	str	r3, [r4, #44]	; 0x2c
2400a154:	6ae3      	ldr	r3, [r4, #44]	; 0x2c
2400a156:	69b2      	ldr	r2, [r6, #24]
2400a158:	f423 7300 	bic.w	r3, r3, #512	; 0x200
2400a15c:	4313      	orrs	r3, r2
2400a15e:	62e3      	str	r3, [r4, #44]	; 0x2c
2400a160:	6ae3      	ldr	r3, [r4, #44]	; 0x2c
2400a162:	f423 7380 	bic.w	r3, r3, #256	; 0x100
2400a166:	62e3      	str	r3, [r4, #44]	; 0x2c
2400a168:	6c63      	ldr	r3, [r4, #68]	; 0x44
2400a16a:	69f2      	ldr	r2, [r6, #28]
2400a16c:	f423 437f 	bic.w	r3, r3, #65280	; 0xff00
2400a170:	f023 03f8 	bic.w	r3, r3, #248	; 0xf8
2400a174:	ea43 03c2 	orr.w	r3, r3, r2, lsl #3
2400a178:	6463      	str	r3, [r4, #68]	; 0x44
2400a17a:	6ae3      	ldr	r3, [r4, #44]	; 0x2c
2400a17c:	f443 7380 	orr.w	r3, r3, #256	; 0x100
2400a180:	62e3      	str	r3, [r4, #44]	; 0x2c
2400a182:	6ae3      	ldr	r3, [r4, #44]	; 0x2c
2400a184:	b9b5      	cbnz	r5, 2400a1b4 <RCCEx_PLL3_Config+0xcc>
2400a186:	f443 0380 	orr.w	r3, r3, #4194304	; 0x400000
2400a18a:	62e3      	str	r3, [r4, #44]	; 0x2c
2400a18c:	4c11      	ldr	r4, [pc, #68]	; (2400a1d4 <RCCEx_PLL3_Config+0xec>)
2400a18e:	6823      	ldr	r3, [r4, #0]
2400a190:	f043 5380 	orr.w	r3, r3, #268435456	; 0x10000000
2400a194:	6023      	str	r3, [r4, #0]
2400a196:	f7f6 fb05 	bl	240007a4 <HAL_GetTick>
2400a19a:	4605      	mov	r5, r0
2400a19c:	6823      	ldr	r3, [r4, #0]
2400a19e:	009b      	lsls	r3, r3, #2
2400a1a0:	d50f      	bpl.n	2400a1c2 <RCCEx_PLL3_Config+0xda>
2400a1a2:	2000      	movs	r0, #0
2400a1a4:	e005      	b.n	2400a1b2 <RCCEx_PLL3_Config+0xca>
2400a1a6:	f7f6 fafd 	bl	240007a4 <HAL_GetTick>
2400a1aa:	1bc0      	subs	r0, r0, r7
2400a1ac:	2802      	cmp	r0, #2
2400a1ae:	d9ab      	bls.n	2400a108 <RCCEx_PLL3_Config+0x20>
2400a1b0:	2003      	movs	r0, #3
2400a1b2:	bdf8      	pop	{r3, r4, r5, r6, r7, pc}
2400a1b4:	2d01      	cmp	r5, #1
2400a1b6:	bf0c      	ite	eq
2400a1b8:	f443 0300 	orreq.w	r3, r3, #8388608	; 0x800000
2400a1bc:	f043 7380 	orrne.w	r3, r3, #16777216	; 0x1000000
2400a1c0:	e7e3      	b.n	2400a18a <RCCEx_PLL3_Config+0xa2>
2400a1c2:	f7f6 faef 	bl	240007a4 <HAL_GetTick>
2400a1c6:	1b40      	subs	r0, r0, r5
2400a1c8:	2802      	cmp	r0, #2
2400a1ca:	d9e7      	bls.n	2400a19c <RCCEx_PLL3_Config+0xb4>
2400a1cc:	e7f0      	b.n	2400a1b0 <RCCEx_PLL3_Config+0xc8>
2400a1ce:	2001      	movs	r0, #1
2400a1d0:	e7ef      	b.n	2400a1b2 <RCCEx_PLL3_Config+0xca>
2400a1d2:	bf00      	nop
2400a1d4:	58024400 	.word	0x58024400

2400a1d8 <HAL_RCCEx_PeriphCLKConfig>:
2400a1d8:	e92d 43f8 	stmdb	sp!, {r3, r4, r5, r6, r7, r8, r9, lr}
2400a1dc:	6806      	ldr	r6, [r0, #0]
2400a1de:	4605      	mov	r5, r0
2400a1e0:	f016 6600 	ands.w	r6, r6, #134217728	; 0x8000000
2400a1e4:	d009      	beq.n	2400a1fa <HAL_RCCEx_PeriphCLKConfig+0x22>
2400a1e6:	6e43      	ldr	r3, [r0, #100]	; 0x64
2400a1e8:	f5b3 1f00 	cmp.w	r3, #2097152	; 0x200000
2400a1ec:	d02e      	beq.n	2400a24c <HAL_RCCEx_PeriphCLKConfig+0x74>
2400a1ee:	d813      	bhi.n	2400a218 <HAL_RCCEx_PeriphCLKConfig+0x40>
2400a1f0:	b1f3      	cbz	r3, 2400a230 <HAL_RCCEx_PeriphCLKConfig+0x58>
2400a1f2:	f5b3 1f80 	cmp.w	r3, #1048576	; 0x100000
2400a1f6:	d021      	beq.n	2400a23c <HAL_RCCEx_PeriphCLKConfig+0x64>
2400a1f8:	2601      	movs	r6, #1
2400a1fa:	682b      	ldr	r3, [r5, #0]
2400a1fc:	05dc      	lsls	r4, r3, #23
2400a1fe:	f140 80ea 	bpl.w	2400a3d6 <HAL_RCCEx_PeriphCLKConfig+0x1fe>
2400a202:	6d6b      	ldr	r3, [r5, #84]	; 0x54
2400a204:	2b04      	cmp	r3, #4
2400a206:	f200 80e5 	bhi.w	2400a3d4 <HAL_RCCEx_PeriphCLKConfig+0x1fc>
2400a20a:	e8df f013 	tbh	[pc, r3, lsl #1]
2400a20e:	0024      	.short	0x0024
2400a210:	00dd002b 	.word	0x00dd002b
2400a214:	00290029 	.word	0x00290029
2400a218:	f5b3 1f40 	cmp.w	r3, #3145728	; 0x300000
2400a21c:	d1ec      	bne.n	2400a1f8 <HAL_RCCEx_PeriphCLKConfig+0x20>
2400a21e:	4aa6      	ldr	r2, [pc, #664]	; (2400a4b8 <HAL_RCCEx_PeriphCLKConfig+0x2e0>)
2400a220:	2600      	movs	r6, #0
2400a222:	6e69      	ldr	r1, [r5, #100]	; 0x64
2400a224:	6d13      	ldr	r3, [r2, #80]	; 0x50
2400a226:	f423 1340 	bic.w	r3, r3, #3145728	; 0x300000
2400a22a:	430b      	orrs	r3, r1
2400a22c:	6513      	str	r3, [r2, #80]	; 0x50
2400a22e:	e7e4      	b.n	2400a1fa <HAL_RCCEx_PeriphCLKConfig+0x22>
2400a230:	4aa1      	ldr	r2, [pc, #644]	; (2400a4b8 <HAL_RCCEx_PeriphCLKConfig+0x2e0>)
2400a232:	6ad3      	ldr	r3, [r2, #44]	; 0x2c
2400a234:	f443 3300 	orr.w	r3, r3, #131072	; 0x20000
2400a238:	62d3      	str	r3, [r2, #44]	; 0x2c
2400a23a:	e7f0      	b.n	2400a21e <HAL_RCCEx_PeriphCLKConfig+0x46>
2400a23c:	2102      	movs	r1, #2
2400a23e:	3004      	adds	r0, #4
2400a240:	f7ff feda 	bl	24009ff8 <RCCEx_PLL2_Config>
2400a244:	4606      	mov	r6, r0
2400a246:	2800      	cmp	r0, #0
2400a248:	d1d7      	bne.n	2400a1fa <HAL_RCCEx_PeriphCLKConfig+0x22>
2400a24a:	e7e8      	b.n	2400a21e <HAL_RCCEx_PeriphCLKConfig+0x46>
2400a24c:	2102      	movs	r1, #2
2400a24e:	3024      	adds	r0, #36	; 0x24
2400a250:	f7ff ff4a 	bl	2400a0e8 <RCCEx_PLL3_Config>
2400a254:	e7f6      	b.n	2400a244 <HAL_RCCEx_PeriphCLKConfig+0x6c>
2400a256:	4a98      	ldr	r2, [pc, #608]	; (2400a4b8 <HAL_RCCEx_PeriphCLKConfig+0x2e0>)
2400a258:	6ad3      	ldr	r3, [r2, #44]	; 0x2c
2400a25a:	f443 3300 	orr.w	r3, r3, #131072	; 0x20000
2400a25e:	62d3      	str	r3, [r2, #44]	; 0x2c
2400a260:	4634      	mov	r4, r6
2400a262:	e004      	b.n	2400a26e <HAL_RCCEx_PeriphCLKConfig+0x96>
2400a264:	2100      	movs	r1, #0
2400a266:	1d28      	adds	r0, r5, #4
2400a268:	f7ff fec6 	bl	24009ff8 <RCCEx_PLL2_Config>
2400a26c:	4604      	mov	r4, r0
2400a26e:	2c00      	cmp	r4, #0
2400a270:	f040 80b3 	bne.w	2400a3da <HAL_RCCEx_PeriphCLKConfig+0x202>
2400a274:	4a90      	ldr	r2, [pc, #576]	; (2400a4b8 <HAL_RCCEx_PeriphCLKConfig+0x2e0>)
2400a276:	6d69      	ldr	r1, [r5, #84]	; 0x54
2400a278:	6d13      	ldr	r3, [r2, #80]	; 0x50
2400a27a:	f023 0307 	bic.w	r3, r3, #7
2400a27e:	430b      	orrs	r3, r1
2400a280:	6513      	str	r3, [r2, #80]	; 0x50
2400a282:	682b      	ldr	r3, [r5, #0]
2400a284:	0598      	lsls	r0, r3, #22
2400a286:	d50d      	bpl.n	2400a2a4 <HAL_RCCEx_PeriphCLKConfig+0xcc>
2400a288:	6dab      	ldr	r3, [r5, #88]	; 0x58
2400a28a:	2b80      	cmp	r3, #128	; 0x80
2400a28c:	f000 80c2 	beq.w	2400a414 <HAL_RCCEx_PeriphCLKConfig+0x23c>
2400a290:	f200 80a5 	bhi.w	2400a3de <HAL_RCCEx_PeriphCLKConfig+0x206>
2400a294:	2b00      	cmp	r3, #0
2400a296:	f000 80b1 	beq.w	2400a3fc <HAL_RCCEx_PeriphCLKConfig+0x224>
2400a29a:	2b40      	cmp	r3, #64	; 0x40
2400a29c:	f000 80b4 	beq.w	2400a408 <HAL_RCCEx_PeriphCLKConfig+0x230>
2400a2a0:	2601      	movs	r6, #1
2400a2a2:	4634      	mov	r4, r6
2400a2a4:	682b      	ldr	r3, [r5, #0]
2400a2a6:	0559      	lsls	r1, r3, #21
2400a2a8:	d510      	bpl.n	2400a2cc <HAL_RCCEx_PeriphCLKConfig+0xf4>
2400a2aa:	f8d5 30a4 	ldr.w	r3, [r5, #164]	; 0xa4
2400a2ae:	f5b3 0f80 	cmp.w	r3, #4194304	; 0x400000
2400a2b2:	f000 80d4 	beq.w	2400a45e <HAL_RCCEx_PeriphCLKConfig+0x286>
2400a2b6:	f200 80b5 	bhi.w	2400a424 <HAL_RCCEx_PeriphCLKConfig+0x24c>
2400a2ba:	2b00      	cmp	r3, #0
2400a2bc:	f000 80c3 	beq.w	2400a446 <HAL_RCCEx_PeriphCLKConfig+0x26e>
2400a2c0:	f5b3 1f00 	cmp.w	r3, #2097152	; 0x200000
2400a2c4:	f000 80c5 	beq.w	2400a452 <HAL_RCCEx_PeriphCLKConfig+0x27a>
2400a2c8:	2601      	movs	r6, #1
2400a2ca:	4634      	mov	r4, r6
2400a2cc:	682b      	ldr	r3, [r5, #0]
2400a2ce:	051a      	lsls	r2, r3, #20
2400a2d0:	d510      	bpl.n	2400a2f4 <HAL_RCCEx_PeriphCLKConfig+0x11c>
2400a2d2:	f8d5 30a8 	ldr.w	r3, [r5, #168]	; 0xa8
2400a2d6:	f1b3 7f00 	cmp.w	r3, #33554432	; 0x2000000
2400a2da:	f000 80e5 	beq.w	2400a4a8 <HAL_RCCEx_PeriphCLKConfig+0x2d0>
2400a2de:	f200 80c6 	bhi.w	2400a46e <HAL_RCCEx_PeriphCLKConfig+0x296>
2400a2e2:	2b00      	cmp	r3, #0
2400a2e4:	f000 80d4 	beq.w	2400a490 <HAL_RCCEx_PeriphCLKConfig+0x2b8>
2400a2e8:	f1b3 7f80 	cmp.w	r3, #16777216	; 0x1000000
2400a2ec:	f000 80d6 	beq.w	2400a49c <HAL_RCCEx_PeriphCLKConfig+0x2c4>
2400a2f0:	2601      	movs	r6, #1
2400a2f2:	4634      	mov	r4, r6
2400a2f4:	682b      	ldr	r3, [r5, #0]
2400a2f6:	019b      	lsls	r3, r3, #6
2400a2f8:	d50d      	bpl.n	2400a316 <HAL_RCCEx_PeriphCLKConfig+0x13e>
2400a2fa:	6cab      	ldr	r3, [r5, #72]	; 0x48
2400a2fc:	2b20      	cmp	r3, #32
2400a2fe:	f000 80ef 	beq.w	2400a4e0 <HAL_RCCEx_PeriphCLKConfig+0x308>
2400a302:	f200 80db 	bhi.w	2400a4bc <HAL_RCCEx_PeriphCLKConfig+0x2e4>
2400a306:	2b00      	cmp	r3, #0
2400a308:	f000 80db 	beq.w	2400a4c2 <HAL_RCCEx_PeriphCLKConfig+0x2ea>
2400a30c:	2b10      	cmp	r3, #16
2400a30e:	f000 80e1 	beq.w	2400a4d4 <HAL_RCCEx_PeriphCLKConfig+0x2fc>
2400a312:	2601      	movs	r6, #1
2400a314:	4634      	mov	r4, r6
2400a316:	682b      	ldr	r3, [r5, #0]
2400a318:	04df      	lsls	r7, r3, #19
2400a31a:	d50f      	bpl.n	2400a33c <HAL_RCCEx_PeriphCLKConfig+0x164>
2400a31c:	6deb      	ldr	r3, [r5, #92]	; 0x5c
2400a31e:	f5b3 5f00 	cmp.w	r3, #8192	; 0x2000
2400a322:	f000 8101 	beq.w	2400a528 <HAL_RCCEx_PeriphCLKConfig+0x350>
2400a326:	f200 80e3 	bhi.w	2400a4f0 <HAL_RCCEx_PeriphCLKConfig+0x318>
2400a32a:	2b00      	cmp	r3, #0
2400a32c:	f000 80f0 	beq.w	2400a510 <HAL_RCCEx_PeriphCLKConfig+0x338>
2400a330:	f5b3 5f80 	cmp.w	r3, #4096	; 0x1000
2400a334:	f000 80f2 	beq.w	2400a51c <HAL_RCCEx_PeriphCLKConfig+0x344>
2400a338:	2601      	movs	r6, #1
2400a33a:	4634      	mov	r4, r6
2400a33c:	682b      	ldr	r3, [r5, #0]
2400a33e:	0498      	lsls	r0, r3, #18
2400a340:	d50f      	bpl.n	2400a362 <HAL_RCCEx_PeriphCLKConfig+0x18a>
2400a342:	6e2b      	ldr	r3, [r5, #96]	; 0x60
2400a344:	f5b3 3f00 	cmp.w	r3, #131072	; 0x20000
2400a348:	f000 810e 	beq.w	2400a568 <HAL_RCCEx_PeriphCLKConfig+0x390>
2400a34c:	f200 80f4 	bhi.w	2400a538 <HAL_RCCEx_PeriphCLKConfig+0x360>
2400a350:	2b00      	cmp	r3, #0
2400a352:	f000 80fa 	beq.w	2400a54a <HAL_RCCEx_PeriphCLKConfig+0x372>
2400a356:	f5b3 3f80 	cmp.w	r3, #65536	; 0x10000
2400a35a:	f000 80ff 	beq.w	2400a55c <HAL_RCCEx_PeriphCLKConfig+0x384>
2400a35e:	2601      	movs	r6, #1
2400a360:	4634      	mov	r4, r6
2400a362:	682b      	ldr	r3, [r5, #0]
2400a364:	0459      	lsls	r1, r3, #17
2400a366:	d510      	bpl.n	2400a38a <HAL_RCCEx_PeriphCLKConfig+0x1b2>
2400a368:	f8d5 30ac 	ldr.w	r3, [r5, #172]	; 0xac
2400a36c:	f1b3 5f00 	cmp.w	r3, #536870912	; 0x20000000
2400a370:	f000 811b 	beq.w	2400a5aa <HAL_RCCEx_PeriphCLKConfig+0x3d2>
2400a374:	f200 8100 	bhi.w	2400a578 <HAL_RCCEx_PeriphCLKConfig+0x3a0>
2400a378:	2b00      	cmp	r3, #0
2400a37a:	f000 8106 	beq.w	2400a58a <HAL_RCCEx_PeriphCLKConfig+0x3b2>
2400a37e:	f1b3 5f80 	cmp.w	r3, #268435456	; 0x10000000
2400a382:	f000 810c 	beq.w	2400a59e <HAL_RCCEx_PeriphCLKConfig+0x3c6>
2400a386:	2601      	movs	r6, #1
2400a388:	4634      	mov	r4, r6
2400a38a:	682b      	ldr	r3, [r5, #0]
2400a38c:	041a      	lsls	r2, r3, #16
2400a38e:	d50d      	bpl.n	2400a3ac <HAL_RCCEx_PeriphCLKConfig+0x1d4>
2400a390:	6eeb      	ldr	r3, [r5, #108]	; 0x6c
2400a392:	f1b3 5f80 	cmp.w	r3, #268435456	; 0x10000000
2400a396:	f000 8110 	beq.w	2400a5ba <HAL_RCCEx_PeriphCLKConfig+0x3e2>
2400a39a:	f1b3 5f00 	cmp.w	r3, #536870912	; 0x20000000
2400a39e:	f000 811a 	beq.w	2400a5d6 <HAL_RCCEx_PeriphCLKConfig+0x3fe>
2400a3a2:	2b00      	cmp	r3, #0
2400a3a4:	f000 810e 	beq.w	2400a5c4 <HAL_RCCEx_PeriphCLKConfig+0x3ec>
2400a3a8:	2601      	movs	r6, #1
2400a3aa:	4634      	mov	r4, r6
2400a3ac:	682b      	ldr	r3, [r5, #0]
2400a3ae:	01db      	lsls	r3, r3, #7
2400a3b0:	f140 8127 	bpl.w	2400a602 <HAL_RCCEx_PeriphCLKConfig+0x42a>
2400a3b4:	6c6b      	ldr	r3, [r5, #68]	; 0x44
2400a3b6:	2b03      	cmp	r3, #3
2400a3b8:	f200 8167 	bhi.w	2400a68a <HAL_RCCEx_PeriphCLKConfig+0x4b2>
2400a3bc:	e8df f013 	tbh	[pc, r3, lsl #1]
2400a3c0:	01130118 	.word	0x01130118
2400a3c4:	0118015f 	.word	0x0118015f
2400a3c8:	2100      	movs	r1, #0
2400a3ca:	f105 0024 	add.w	r0, r5, #36	; 0x24
2400a3ce:	f7ff fe8b 	bl	2400a0e8 <RCCEx_PLL3_Config>
2400a3d2:	e74b      	b.n	2400a26c <HAL_RCCEx_PeriphCLKConfig+0x94>
2400a3d4:	2601      	movs	r6, #1
2400a3d6:	4634      	mov	r4, r6
2400a3d8:	e753      	b.n	2400a282 <HAL_RCCEx_PeriphCLKConfig+0xaa>
2400a3da:	4626      	mov	r6, r4
2400a3dc:	e751      	b.n	2400a282 <HAL_RCCEx_PeriphCLKConfig+0xaa>
2400a3de:	2bc0      	cmp	r3, #192	; 0xc0
2400a3e0:	d003      	beq.n	2400a3ea <HAL_RCCEx_PeriphCLKConfig+0x212>
2400a3e2:	f5b3 7f80 	cmp.w	r3, #256	; 0x100
2400a3e6:	f47f af5b 	bne.w	2400a2a0 <HAL_RCCEx_PeriphCLKConfig+0xc8>
2400a3ea:	b9cc      	cbnz	r4, 2400a420 <HAL_RCCEx_PeriphCLKConfig+0x248>
2400a3ec:	4a32      	ldr	r2, [pc, #200]	; (2400a4b8 <HAL_RCCEx_PeriphCLKConfig+0x2e0>)
2400a3ee:	6da9      	ldr	r1, [r5, #88]	; 0x58
2400a3f0:	6d13      	ldr	r3, [r2, #80]	; 0x50
2400a3f2:	f423 73e0 	bic.w	r3, r3, #448	; 0x1c0
2400a3f6:	430b      	orrs	r3, r1
2400a3f8:	6513      	str	r3, [r2, #80]	; 0x50
2400a3fa:	e753      	b.n	2400a2a4 <HAL_RCCEx_PeriphCLKConfig+0xcc>
2400a3fc:	4a2e      	ldr	r2, [pc, #184]	; (2400a4b8 <HAL_RCCEx_PeriphCLKConfig+0x2e0>)
2400a3fe:	6ad3      	ldr	r3, [r2, #44]	; 0x2c
2400a400:	f443 3300 	orr.w	r3, r3, #131072	; 0x20000
2400a404:	62d3      	str	r3, [r2, #44]	; 0x2c
2400a406:	e7f0      	b.n	2400a3ea <HAL_RCCEx_PeriphCLKConfig+0x212>
2400a408:	2100      	movs	r1, #0
2400a40a:	1d28      	adds	r0, r5, #4
2400a40c:	f7ff fdf4 	bl	24009ff8 <RCCEx_PLL2_Config>
2400a410:	4604      	mov	r4, r0
2400a412:	e7ea      	b.n	2400a3ea <HAL_RCCEx_PeriphCLKConfig+0x212>
2400a414:	2100      	movs	r1, #0
2400a416:	f105 0024 	add.w	r0, r5, #36	; 0x24
2400a41a:	f7ff fe65 	bl	2400a0e8 <RCCEx_PLL3_Config>
2400a41e:	e7f7      	b.n	2400a410 <HAL_RCCEx_PeriphCLKConfig+0x238>
2400a420:	4626      	mov	r6, r4
2400a422:	e73f      	b.n	2400a2a4 <HAL_RCCEx_PeriphCLKConfig+0xcc>
2400a424:	f5b3 0fc0 	cmp.w	r3, #6291456	; 0x600000
2400a428:	d003      	beq.n	2400a432 <HAL_RCCEx_PeriphCLKConfig+0x25a>
2400a42a:	f5b3 0f00 	cmp.w	r3, #8388608	; 0x800000
2400a42e:	f47f af4b 	bne.w	2400a2c8 <HAL_RCCEx_PeriphCLKConfig+0xf0>
2400a432:	b9d4      	cbnz	r4, 2400a46a <HAL_RCCEx_PeriphCLKConfig+0x292>
2400a434:	4a20      	ldr	r2, [pc, #128]	; (2400a4b8 <HAL_RCCEx_PeriphCLKConfig+0x2e0>)
2400a436:	f8d5 10a4 	ldr.w	r1, [r5, #164]	; 0xa4
2400a43a:	6d93      	ldr	r3, [r2, #88]	; 0x58
2400a43c:	f423 0360 	bic.w	r3, r3, #14680064	; 0xe00000
2400a440:	430b      	orrs	r3, r1
2400a442:	6593      	str	r3, [r2, #88]	; 0x58
2400a444:	e742      	b.n	2400a2cc <HAL_RCCEx_PeriphCLKConfig+0xf4>
2400a446:	4a1c      	ldr	r2, [pc, #112]	; (2400a4b8 <HAL_RCCEx_PeriphCLKConfig+0x2e0>)
2400a448:	6ad3      	ldr	r3, [r2, #44]	; 0x2c
2400a44a:	f443 3300 	orr.w	r3, r3, #131072	; 0x20000
2400a44e:	62d3      	str	r3, [r2, #44]	; 0x2c
2400a450:	e7ef      	b.n	2400a432 <HAL_RCCEx_PeriphCLKConfig+0x25a>
2400a452:	2100      	movs	r1, #0
2400a454:	1d28      	adds	r0, r5, #4
2400a456:	f7ff fdcf 	bl	24009ff8 <RCCEx_PLL2_Config>
2400a45a:	4604      	mov	r4, r0
2400a45c:	e7e9      	b.n	2400a432 <HAL_RCCEx_PeriphCLKConfig+0x25a>
2400a45e:	2100      	movs	r1, #0
2400a460:	f105 0024 	add.w	r0, r5, #36	; 0x24
2400a464:	f7ff fe40 	bl	2400a0e8 <RCCEx_PLL3_Config>
2400a468:	e7f7      	b.n	2400a45a <HAL_RCCEx_PeriphCLKConfig+0x282>
2400a46a:	4626      	mov	r6, r4
2400a46c:	e72e      	b.n	2400a2cc <HAL_RCCEx_PeriphCLKConfig+0xf4>
2400a46e:	f1b3 7f40 	cmp.w	r3, #50331648	; 0x3000000
2400a472:	d003      	beq.n	2400a47c <HAL_RCCEx_PeriphCLKConfig+0x2a4>
2400a474:	f1b3 6f80 	cmp.w	r3, #67108864	; 0x4000000
2400a478:	f47f af3a 	bne.w	2400a2f0 <HAL_RCCEx_PeriphCLKConfig+0x118>
2400a47c:	b9d4      	cbnz	r4, 2400a4b4 <HAL_RCCEx_PeriphCLKConfig+0x2dc>
2400a47e:	4a0e      	ldr	r2, [pc, #56]	; (2400a4b8 <HAL_RCCEx_PeriphCLKConfig+0x2e0>)
2400a480:	f8d5 10a8 	ldr.w	r1, [r5, #168]	; 0xa8
2400a484:	6d93      	ldr	r3, [r2, #88]	; 0x58
2400a486:	f023 63e0 	bic.w	r3, r3, #117440512	; 0x7000000
2400a48a:	430b      	orrs	r3, r1
2400a48c:	6593      	str	r3, [r2, #88]	; 0x58
2400a48e:	e731      	b.n	2400a2f4 <HAL_RCCEx_PeriphCLKConfig+0x11c>
2400a490:	4a09      	ldr	r2, [pc, #36]	; (2400a4b8 <HAL_RCCEx_PeriphCLKConfig+0x2e0>)
2400a492:	6ad3      	ldr	r3, [r2, #44]	; 0x2c
2400a494:	f443 3300 	orr.w	r3, r3, #131072	; 0x20000
2400a498:	62d3      	str	r3, [r2, #44]	; 0x2c
2400a49a:	e7ef      	b.n	2400a47c <HAL_RCCEx_PeriphCLKConfig+0x2a4>
2400a49c:	2100      	movs	r1, #0
2400a49e:	1d28      	adds	r0, r5, #4
2400a4a0:	f7ff fdaa 	bl	24009ff8 <RCCEx_PLL2_Config>
2400a4a4:	4604      	mov	r4, r0
2400a4a6:	e7e9      	b.n	2400a47c <HAL_RCCEx_PeriphCLKConfig+0x2a4>
2400a4a8:	2100      	movs	r1, #0
2400a4aa:	f105 0024 	add.w	r0, r5, #36	; 0x24
2400a4ae:	f7ff fe1b 	bl	2400a0e8 <RCCEx_PLL3_Config>
2400a4b2:	e7f7      	b.n	2400a4a4 <HAL_RCCEx_PeriphCLKConfig+0x2cc>
2400a4b4:	4626      	mov	r6, r4
2400a4b6:	e71d      	b.n	2400a2f4 <HAL_RCCEx_PeriphCLKConfig+0x11c>
2400a4b8:	58024400 	.word	0x58024400
2400a4bc:	2b30      	cmp	r3, #48	; 0x30
2400a4be:	f47f af28 	bne.w	2400a312 <HAL_RCCEx_PeriphCLKConfig+0x13a>
2400a4c2:	b99c      	cbnz	r4, 2400a4ec <HAL_RCCEx_PeriphCLKConfig+0x314>
2400a4c4:	4a9d      	ldr	r2, [pc, #628]	; (2400a73c <HAL_RCCEx_PeriphCLKConfig+0x564>)
2400a4c6:	6ca9      	ldr	r1, [r5, #72]	; 0x48
2400a4c8:	6cd3      	ldr	r3, [r2, #76]	; 0x4c
2400a4ca:	f023 0330 	bic.w	r3, r3, #48	; 0x30
2400a4ce:	430b      	orrs	r3, r1
2400a4d0:	64d3      	str	r3, [r2, #76]	; 0x4c
2400a4d2:	e720      	b.n	2400a316 <HAL_RCCEx_PeriphCLKConfig+0x13e>
2400a4d4:	4a99      	ldr	r2, [pc, #612]	; (2400a73c <HAL_RCCEx_PeriphCLKConfig+0x564>)
2400a4d6:	6ad3      	ldr	r3, [r2, #44]	; 0x2c
2400a4d8:	f443 3300 	orr.w	r3, r3, #131072	; 0x20000
2400a4dc:	62d3      	str	r3, [r2, #44]	; 0x2c
2400a4de:	e7f0      	b.n	2400a4c2 <HAL_RCCEx_PeriphCLKConfig+0x2ea>
2400a4e0:	2102      	movs	r1, #2
2400a4e2:	1d28      	adds	r0, r5, #4
2400a4e4:	f7ff fd88 	bl	24009ff8 <RCCEx_PLL2_Config>
2400a4e8:	4604      	mov	r4, r0
2400a4ea:	e7ea      	b.n	2400a4c2 <HAL_RCCEx_PeriphCLKConfig+0x2ea>
2400a4ec:	4626      	mov	r6, r4
2400a4ee:	e712      	b.n	2400a316 <HAL_RCCEx_PeriphCLKConfig+0x13e>
2400a4f0:	f5b3 5f40 	cmp.w	r3, #12288	; 0x3000
2400a4f4:	d003      	beq.n	2400a4fe <HAL_RCCEx_PeriphCLKConfig+0x326>
2400a4f6:	f5b3 4f80 	cmp.w	r3, #16384	; 0x4000
2400a4fa:	f47f af1d 	bne.w	2400a338 <HAL_RCCEx_PeriphCLKConfig+0x160>
2400a4fe:	b9cc      	cbnz	r4, 2400a534 <HAL_RCCEx_PeriphCLKConfig+0x35c>
2400a500:	4a8e      	ldr	r2, [pc, #568]	; (2400a73c <HAL_RCCEx_PeriphCLKConfig+0x564>)
2400a502:	6de9      	ldr	r1, [r5, #92]	; 0x5c
2400a504:	6d13      	ldr	r3, [r2, #80]	; 0x50
2400a506:	f423 43e0 	bic.w	r3, r3, #28672	; 0x7000
2400a50a:	430b      	orrs	r3, r1
2400a50c:	6513      	str	r3, [r2, #80]	; 0x50
2400a50e:	e715      	b.n	2400a33c <HAL_RCCEx_PeriphCLKConfig+0x164>
2400a510:	4a8a      	ldr	r2, [pc, #552]	; (2400a73c <HAL_RCCEx_PeriphCLKConfig+0x564>)
2400a512:	6ad3      	ldr	r3, [r2, #44]	; 0x2c
2400a514:	f443 3300 	orr.w	r3, r3, #131072	; 0x20000
2400a518:	62d3      	str	r3, [r2, #44]	; 0x2c
2400a51a:	e7f0      	b.n	2400a4fe <HAL_RCCEx_PeriphCLKConfig+0x326>
2400a51c:	2100      	movs	r1, #0
2400a51e:	1d28      	adds	r0, r5, #4
2400a520:	f7ff fd6a 	bl	24009ff8 <RCCEx_PLL2_Config>
2400a524:	4604      	mov	r4, r0
2400a526:	e7ea      	b.n	2400a4fe <HAL_RCCEx_PeriphCLKConfig+0x326>
2400a528:	2100      	movs	r1, #0
2400a52a:	f105 0024 	add.w	r0, r5, #36	; 0x24
2400a52e:	f7ff fddb 	bl	2400a0e8 <RCCEx_PLL3_Config>
2400a532:	e7f7      	b.n	2400a524 <HAL_RCCEx_PeriphCLKConfig+0x34c>
2400a534:	4626      	mov	r6, r4
2400a536:	e701      	b.n	2400a33c <HAL_RCCEx_PeriphCLKConfig+0x164>
2400a538:	f423 3280 	bic.w	r2, r3, #65536	; 0x10000
2400a53c:	f5b2 2f80 	cmp.w	r2, #262144	; 0x40000
2400a540:	d003      	beq.n	2400a54a <HAL_RCCEx_PeriphCLKConfig+0x372>
2400a542:	f5b3 3f40 	cmp.w	r3, #196608	; 0x30000
2400a546:	f47f af0a 	bne.w	2400a35e <HAL_RCCEx_PeriphCLKConfig+0x186>
2400a54a:	b99c      	cbnz	r4, 2400a574 <HAL_RCCEx_PeriphCLKConfig+0x39c>
2400a54c:	4a7b      	ldr	r2, [pc, #492]	; (2400a73c <HAL_RCCEx_PeriphCLKConfig+0x564>)
2400a54e:	6e29      	ldr	r1, [r5, #96]	; 0x60
2400a550:	6d13      	ldr	r3, [r2, #80]	; 0x50
2400a552:	f423 23e0 	bic.w	r3, r3, #458752	; 0x70000
2400a556:	430b      	orrs	r3, r1
2400a558:	6513      	str	r3, [r2, #80]	; 0x50
2400a55a:	e702      	b.n	2400a362 <HAL_RCCEx_PeriphCLKConfig+0x18a>
2400a55c:	2101      	movs	r1, #1
2400a55e:	1d28      	adds	r0, r5, #4
2400a560:	f7ff fd4a 	bl	24009ff8 <RCCEx_PLL2_Config>
2400a564:	4604      	mov	r4, r0
2400a566:	e7f0      	b.n	2400a54a <HAL_RCCEx_PeriphCLKConfig+0x372>
2400a568:	2101      	movs	r1, #1
2400a56a:	f105 0024 	add.w	r0, r5, #36	; 0x24
2400a56e:	f7ff fdbb 	bl	2400a0e8 <RCCEx_PLL3_Config>
2400a572:	e7f7      	b.n	2400a564 <HAL_RCCEx_PeriphCLKConfig+0x38c>
2400a574:	4626      	mov	r6, r4
2400a576:	e6f4      	b.n	2400a362 <HAL_RCCEx_PeriphCLKConfig+0x18a>
2400a578:	f023 5280 	bic.w	r2, r3, #268435456	; 0x10000000
2400a57c:	f1b2 4f80 	cmp.w	r2, #1073741824	; 0x40000000
2400a580:	d003      	beq.n	2400a58a <HAL_RCCEx_PeriphCLKConfig+0x3b2>
2400a582:	f1b3 5f40 	cmp.w	r3, #805306368	; 0x30000000
2400a586:	f47f aefe 	bne.w	2400a386 <HAL_RCCEx_PeriphCLKConfig+0x1ae>
2400a58a:	b9a4      	cbnz	r4, 2400a5b6 <HAL_RCCEx_PeriphCLKConfig+0x3de>
2400a58c:	4a6b      	ldr	r2, [pc, #428]	; (2400a73c <HAL_RCCEx_PeriphCLKConfig+0x564>)
2400a58e:	f8d5 10ac 	ldr.w	r1, [r5, #172]	; 0xac
2400a592:	6d93      	ldr	r3, [r2, #88]	; 0x58
2400a594:	f023 43e0 	bic.w	r3, r3, #1879048192	; 0x70000000
2400a598:	430b      	orrs	r3, r1
2400a59a:	6593      	str	r3, [r2, #88]	; 0x58
2400a59c:	e6f5      	b.n	2400a38a <HAL_RCCEx_PeriphCLKConfig+0x1b2>
2400a59e:	2101      	movs	r1, #1
2400a5a0:	1d28      	adds	r0, r5, #4
2400a5a2:	f7ff fd29 	bl	24009ff8 <RCCEx_PLL2_Config>
2400a5a6:	4604      	mov	r4, r0
2400a5a8:	e7ef      	b.n	2400a58a <HAL_RCCEx_PeriphCLKConfig+0x3b2>
2400a5aa:	2101      	movs	r1, #1
2400a5ac:	f105 0024 	add.w	r0, r5, #36	; 0x24
2400a5b0:	f7ff fd9a 	bl	2400a0e8 <RCCEx_PLL3_Config>
2400a5b4:	e7f7      	b.n	2400a5a6 <HAL_RCCEx_PeriphCLKConfig+0x3ce>
2400a5b6:	4626      	mov	r6, r4
2400a5b8:	e6e7      	b.n	2400a38a <HAL_RCCEx_PeriphCLKConfig+0x1b2>
2400a5ba:	4a60      	ldr	r2, [pc, #384]	; (2400a73c <HAL_RCCEx_PeriphCLKConfig+0x564>)
2400a5bc:	6ad3      	ldr	r3, [r2, #44]	; 0x2c
2400a5be:	f443 3300 	orr.w	r3, r3, #131072	; 0x20000
2400a5c2:	62d3      	str	r3, [r2, #44]	; 0x2c
2400a5c4:	b96c      	cbnz	r4, 2400a5e2 <HAL_RCCEx_PeriphCLKConfig+0x40a>
2400a5c6:	4a5d      	ldr	r2, [pc, #372]	; (2400a73c <HAL_RCCEx_PeriphCLKConfig+0x564>)
2400a5c8:	6ee9      	ldr	r1, [r5, #108]	; 0x6c
2400a5ca:	6d13      	ldr	r3, [r2, #80]	; 0x50
2400a5cc:	f023 5340 	bic.w	r3, r3, #805306368	; 0x30000000
2400a5d0:	430b      	orrs	r3, r1
2400a5d2:	6513      	str	r3, [r2, #80]	; 0x50
2400a5d4:	e6ea      	b.n	2400a3ac <HAL_RCCEx_PeriphCLKConfig+0x1d4>
2400a5d6:	2101      	movs	r1, #1
2400a5d8:	1d28      	adds	r0, r5, #4
2400a5da:	f7ff fd0d 	bl	24009ff8 <RCCEx_PLL2_Config>
2400a5de:	4604      	mov	r4, r0
2400a5e0:	e7f0      	b.n	2400a5c4 <HAL_RCCEx_PeriphCLKConfig+0x3ec>
2400a5e2:	4626      	mov	r6, r4
2400a5e4:	e6e2      	b.n	2400a3ac <HAL_RCCEx_PeriphCLKConfig+0x1d4>
2400a5e6:	4a55      	ldr	r2, [pc, #340]	; (2400a73c <HAL_RCCEx_PeriphCLKConfig+0x564>)
2400a5e8:	6ad3      	ldr	r3, [r2, #44]	; 0x2c
2400a5ea:	f443 3300 	orr.w	r3, r3, #131072	; 0x20000
2400a5ee:	62d3      	str	r3, [r2, #44]	; 0x2c
2400a5f0:	2c00      	cmp	r4, #0
2400a5f2:	d14d      	bne.n	2400a690 <HAL_RCCEx_PeriphCLKConfig+0x4b8>
2400a5f4:	4a51      	ldr	r2, [pc, #324]	; (2400a73c <HAL_RCCEx_PeriphCLKConfig+0x564>)
2400a5f6:	6c69      	ldr	r1, [r5, #68]	; 0x44
2400a5f8:	6cd3      	ldr	r3, [r2, #76]	; 0x4c
2400a5fa:	f023 0303 	bic.w	r3, r3, #3
2400a5fe:	430b      	orrs	r3, r1
2400a600:	64d3      	str	r3, [r2, #76]	; 0x4c
2400a602:	682b      	ldr	r3, [r5, #0]
2400a604:	025f      	lsls	r7, r3, #9
2400a606:	d54d      	bpl.n	2400a6a4 <HAL_RCCEx_PeriphCLKConfig+0x4cc>
2400a608:	4f4d      	ldr	r7, [pc, #308]	; (2400a740 <HAL_RCCEx_PeriphCLKConfig+0x568>)
2400a60a:	683b      	ldr	r3, [r7, #0]
2400a60c:	f443 7380 	orr.w	r3, r3, #256	; 0x100
2400a610:	603b      	str	r3, [r7, #0]
2400a612:	f7f6 f8c7 	bl	240007a4 <HAL_GetTick>
2400a616:	4680      	mov	r8, r0
2400a618:	683b      	ldr	r3, [r7, #0]
2400a61a:	05d8      	lsls	r0, r3, #23
2400a61c:	d53a      	bpl.n	2400a694 <HAL_RCCEx_PeriphCLKConfig+0x4bc>
2400a61e:	2c00      	cmp	r4, #0
2400a620:	d16c      	bne.n	2400a6fc <HAL_RCCEx_PeriphCLKConfig+0x524>
2400a622:	4b46      	ldr	r3, [pc, #280]	; (2400a73c <HAL_RCCEx_PeriphCLKConfig+0x564>)
2400a624:	f8d5 00b0 	ldr.w	r0, [r5, #176]	; 0xb0
2400a628:	6f1a      	ldr	r2, [r3, #112]	; 0x70
2400a62a:	4042      	eors	r2, r0
2400a62c:	f412 7f40 	tst.w	r2, #768	; 0x300
2400a630:	d00b      	beq.n	2400a64a <HAL_RCCEx_PeriphCLKConfig+0x472>
2400a632:	6f1a      	ldr	r2, [r3, #112]	; 0x70
2400a634:	6f19      	ldr	r1, [r3, #112]	; 0x70
2400a636:	f422 7240 	bic.w	r2, r2, #768	; 0x300
2400a63a:	f441 3180 	orr.w	r1, r1, #65536	; 0x10000
2400a63e:	6719      	str	r1, [r3, #112]	; 0x70
2400a640:	6f19      	ldr	r1, [r3, #112]	; 0x70
2400a642:	f421 3180 	bic.w	r1, r1, #65536	; 0x10000
2400a646:	6719      	str	r1, [r3, #112]	; 0x70
2400a648:	671a      	str	r2, [r3, #112]	; 0x70
2400a64a:	f5b0 7f80 	cmp.w	r0, #256	; 0x100
2400a64e:	d040      	beq.n	2400a6d2 <HAL_RCCEx_PeriphCLKConfig+0x4fa>
2400a650:	f8d5 30b0 	ldr.w	r3, [r5, #176]	; 0xb0
2400a654:	4939      	ldr	r1, [pc, #228]	; (2400a73c <HAL_RCCEx_PeriphCLKConfig+0x564>)
2400a656:	f403 7240 	and.w	r2, r3, #768	; 0x300
2400a65a:	f5b2 7f40 	cmp.w	r2, #768	; 0x300
2400a65e:	d149      	bne.n	2400a6f4 <HAL_RCCEx_PeriphCLKConfig+0x51c>
2400a660:	6908      	ldr	r0, [r1, #16]
2400a662:	4a38      	ldr	r2, [pc, #224]	; (2400a744 <HAL_RCCEx_PeriphCLKConfig+0x56c>)
2400a664:	f420 507c 	bic.w	r0, r0, #16128	; 0x3f00
2400a668:	ea02 1213 	and.w	r2, r2, r3, lsr #4
2400a66c:	4302      	orrs	r2, r0
2400a66e:	610a      	str	r2, [r1, #16]
2400a670:	f3c3 030b 	ubfx	r3, r3, #0, #12
2400a674:	4a31      	ldr	r2, [pc, #196]	; (2400a73c <HAL_RCCEx_PeriphCLKConfig+0x564>)
2400a676:	6f11      	ldr	r1, [r2, #112]	; 0x70
2400a678:	430b      	orrs	r3, r1
2400a67a:	6713      	str	r3, [r2, #112]	; 0x70
2400a67c:	e012      	b.n	2400a6a4 <HAL_RCCEx_PeriphCLKConfig+0x4cc>
2400a67e:	2102      	movs	r1, #2
2400a680:	1d28      	adds	r0, r5, #4
2400a682:	f7ff fcb9 	bl	24009ff8 <RCCEx_PLL2_Config>
2400a686:	4604      	mov	r4, r0
2400a688:	e7b2      	b.n	2400a5f0 <HAL_RCCEx_PeriphCLKConfig+0x418>
2400a68a:	2601      	movs	r6, #1
2400a68c:	4634      	mov	r4, r6
2400a68e:	e7b8      	b.n	2400a602 <HAL_RCCEx_PeriphCLKConfig+0x42a>
2400a690:	4626      	mov	r6, r4
2400a692:	e7b6      	b.n	2400a602 <HAL_RCCEx_PeriphCLKConfig+0x42a>
2400a694:	f7f6 f886 	bl	240007a4 <HAL_GetTick>
2400a698:	eba0 0008 	sub.w	r0, r0, r8
2400a69c:	2864      	cmp	r0, #100	; 0x64
2400a69e:	d9bb      	bls.n	2400a618 <HAL_RCCEx_PeriphCLKConfig+0x440>
2400a6a0:	2603      	movs	r6, #3
2400a6a2:	4634      	mov	r4, r6
2400a6a4:	682b      	ldr	r3, [r5, #0]
2400a6a6:	07da      	lsls	r2, r3, #31
2400a6a8:	d508      	bpl.n	2400a6bc <HAL_RCCEx_PeriphCLKConfig+0x4e4>
2400a6aa:	6fab      	ldr	r3, [r5, #120]	; 0x78
2400a6ac:	2b10      	cmp	r3, #16
2400a6ae:	d03c      	beq.n	2400a72a <HAL_RCCEx_PeriphCLKConfig+0x552>
2400a6b0:	d826      	bhi.n	2400a700 <HAL_RCCEx_PeriphCLKConfig+0x528>
2400a6b2:	b35b      	cbz	r3, 2400a70c <HAL_RCCEx_PeriphCLKConfig+0x534>
2400a6b4:	2b08      	cmp	r3, #8
2400a6b6:	d032      	beq.n	2400a71e <HAL_RCCEx_PeriphCLKConfig+0x546>
2400a6b8:	2601      	movs	r6, #1
2400a6ba:	4634      	mov	r4, r6
2400a6bc:	682b      	ldr	r3, [r5, #0]
2400a6be:	079b      	lsls	r3, r3, #30
2400a6c0:	d54f      	bpl.n	2400a762 <HAL_RCCEx_PeriphCLKConfig+0x58a>
2400a6c2:	6f6b      	ldr	r3, [r5, #116]	; 0x74
2400a6c4:	2b05      	cmp	r3, #5
2400a6c6:	d862      	bhi.n	2400a78e <HAL_RCCEx_PeriphCLKConfig+0x5b6>
2400a6c8:	e8df f003 	tbb	[pc, r3]
2400a6cc:	435b3e43 	.word	0x435b3e43
2400a6d0:	4343      	.short	0x4343
2400a6d2:	f7f6 f867 	bl	240007a4 <HAL_GetTick>
2400a6d6:	f8df 8064 	ldr.w	r8, [pc, #100]	; 2400a73c <HAL_RCCEx_PeriphCLKConfig+0x564>
2400a6da:	4607      	mov	r7, r0
2400a6dc:	f241 3988 	movw	r9, #5000	; 0x1388
2400a6e0:	f8d8 3070 	ldr.w	r3, [r8, #112]	; 0x70
2400a6e4:	0799      	lsls	r1, r3, #30
2400a6e6:	d4b3      	bmi.n	2400a650 <HAL_RCCEx_PeriphCLKConfig+0x478>
2400a6e8:	f7f6 f85c 	bl	240007a4 <HAL_GetTick>
2400a6ec:	1bc0      	subs	r0, r0, r7
2400a6ee:	4548      	cmp	r0, r9
2400a6f0:	d9f6      	bls.n	2400a6e0 <HAL_RCCEx_PeriphCLKConfig+0x508>
2400a6f2:	e7d5      	b.n	2400a6a0 <HAL_RCCEx_PeriphCLKConfig+0x4c8>
2400a6f4:	690a      	ldr	r2, [r1, #16]
2400a6f6:	f422 527c 	bic.w	r2, r2, #16128	; 0x3f00
2400a6fa:	e7b8      	b.n	2400a66e <HAL_RCCEx_PeriphCLKConfig+0x496>
2400a6fc:	4626      	mov	r6, r4
2400a6fe:	e7d1      	b.n	2400a6a4 <HAL_RCCEx_PeriphCLKConfig+0x4cc>
2400a700:	f023 0208 	bic.w	r2, r3, #8
2400a704:	2a20      	cmp	r2, #32
2400a706:	d001      	beq.n	2400a70c <HAL_RCCEx_PeriphCLKConfig+0x534>
2400a708:	2b18      	cmp	r3, #24
2400a70a:	d1d5      	bne.n	2400a6b8 <HAL_RCCEx_PeriphCLKConfig+0x4e0>
2400a70c:	b99c      	cbnz	r4, 2400a736 <HAL_RCCEx_PeriphCLKConfig+0x55e>
2400a70e:	4a0b      	ldr	r2, [pc, #44]	; (2400a73c <HAL_RCCEx_PeriphCLKConfig+0x564>)
2400a710:	6fa9      	ldr	r1, [r5, #120]	; 0x78
2400a712:	6d53      	ldr	r3, [r2, #84]	; 0x54
2400a714:	f023 0338 	bic.w	r3, r3, #56	; 0x38
2400a718:	430b      	orrs	r3, r1
2400a71a:	6553      	str	r3, [r2, #84]	; 0x54
2400a71c:	e7ce      	b.n	2400a6bc <HAL_RCCEx_PeriphCLKConfig+0x4e4>
2400a71e:	2101      	movs	r1, #1
2400a720:	1d28      	adds	r0, r5, #4
2400a722:	f7ff fc69 	bl	24009ff8 <RCCEx_PLL2_Config>
2400a726:	4604      	mov	r4, r0
2400a728:	e7f0      	b.n	2400a70c <HAL_RCCEx_PeriphCLKConfig+0x534>
2400a72a:	2101      	movs	r1, #1
2400a72c:	f105 0024 	add.w	r0, r5, #36	; 0x24
2400a730:	f7ff fcda 	bl	2400a0e8 <RCCEx_PLL3_Config>
2400a734:	e7f7      	b.n	2400a726 <HAL_RCCEx_PeriphCLKConfig+0x54e>
2400a736:	4626      	mov	r6, r4
2400a738:	e7c0      	b.n	2400a6bc <HAL_RCCEx_PeriphCLKConfig+0x4e4>
2400a73a:	bf00      	nop
2400a73c:	58024400 	.word	0x58024400
2400a740:	58024800 	.word	0x58024800
2400a744:	00ffffcf 	.word	0x00ffffcf
2400a748:	2101      	movs	r1, #1
2400a74a:	1d28      	adds	r0, r5, #4
2400a74c:	f7ff fc54 	bl	24009ff8 <RCCEx_PLL2_Config>
2400a750:	4604      	mov	r4, r0
2400a752:	b9fc      	cbnz	r4, 2400a794 <HAL_RCCEx_PeriphCLKConfig+0x5bc>
2400a754:	4aac      	ldr	r2, [pc, #688]	; (2400aa08 <HAL_RCCEx_PeriphCLKConfig+0x830>)
2400a756:	6f69      	ldr	r1, [r5, #116]	; 0x74
2400a758:	6d53      	ldr	r3, [r2, #84]	; 0x54
2400a75a:	f023 0307 	bic.w	r3, r3, #7
2400a75e:	430b      	orrs	r3, r1
2400a760:	6553      	str	r3, [r2, #84]	; 0x54
2400a762:	682b      	ldr	r3, [r5, #0]
2400a764:	075f      	lsls	r7, r3, #29
2400a766:	d527      	bpl.n	2400a7b8 <HAL_RCCEx_PeriphCLKConfig+0x5e0>
2400a768:	f8d5 3090 	ldr.w	r3, [r5, #144]	; 0x90
2400a76c:	2b05      	cmp	r3, #5
2400a76e:	f200 8125 	bhi.w	2400a9bc <HAL_RCCEx_PeriphCLKConfig+0x7e4>
2400a772:	e8df f013 	tbh	[pc, r3, lsl #1]
2400a776:	0016      	.short	0x0016
2400a778:	011d0011 	.word	0x011d0011
2400a77c:	00160016 	.word	0x00160016
2400a780:	0016      	.short	0x0016
2400a782:	2101      	movs	r1, #1
2400a784:	f105 0024 	add.w	r0, r5, #36	; 0x24
2400a788:	f7ff fcae 	bl	2400a0e8 <RCCEx_PLL3_Config>
2400a78c:	e7e0      	b.n	2400a750 <HAL_RCCEx_PeriphCLKConfig+0x578>
2400a78e:	2601      	movs	r6, #1
2400a790:	4634      	mov	r4, r6
2400a792:	e7e6      	b.n	2400a762 <HAL_RCCEx_PeriphCLKConfig+0x58a>
2400a794:	4626      	mov	r6, r4
2400a796:	e7e4      	b.n	2400a762 <HAL_RCCEx_PeriphCLKConfig+0x58a>
2400a798:	2101      	movs	r1, #1
2400a79a:	1d28      	adds	r0, r5, #4
2400a79c:	f7ff fc2c 	bl	24009ff8 <RCCEx_PLL2_Config>
2400a7a0:	4604      	mov	r4, r0
2400a7a2:	2c00      	cmp	r4, #0
2400a7a4:	f040 810d 	bne.w	2400a9c2 <HAL_RCCEx_PeriphCLKConfig+0x7ea>
2400a7a8:	4a97      	ldr	r2, [pc, #604]	; (2400aa08 <HAL_RCCEx_PeriphCLKConfig+0x830>)
2400a7aa:	f8d5 1090 	ldr.w	r1, [r5, #144]	; 0x90
2400a7ae:	6d93      	ldr	r3, [r2, #88]	; 0x58
2400a7b0:	f023 0307 	bic.w	r3, r3, #7
2400a7b4:	430b      	orrs	r3, r1
2400a7b6:	6593      	str	r3, [r2, #88]	; 0x58
2400a7b8:	682b      	ldr	r3, [r5, #0]
2400a7ba:	0698      	lsls	r0, r3, #26
2400a7bc:	d510      	bpl.n	2400a7e0 <HAL_RCCEx_PeriphCLKConfig+0x608>
2400a7be:	f8d5 308c 	ldr.w	r3, [r5, #140]	; 0x8c
2400a7c2:	f1b3 5f00 	cmp.w	r3, #536870912	; 0x20000000
2400a7c6:	f000 8117 	beq.w	2400a9f8 <HAL_RCCEx_PeriphCLKConfig+0x820>
2400a7ca:	f200 80fc 	bhi.w	2400a9c6 <HAL_RCCEx_PeriphCLKConfig+0x7ee>
2400a7ce:	2b00      	cmp	r3, #0
2400a7d0:	f000 8102 	beq.w	2400a9d8 <HAL_RCCEx_PeriphCLKConfig+0x800>
2400a7d4:	f1b3 5f80 	cmp.w	r3, #268435456	; 0x10000000
2400a7d8:	f000 8108 	beq.w	2400a9ec <HAL_RCCEx_PeriphCLKConfig+0x814>
2400a7dc:	2601      	movs	r6, #1
2400a7de:	4634      	mov	r4, r6
2400a7e0:	682b      	ldr	r3, [r5, #0]
2400a7e2:	0659      	lsls	r1, r3, #25
2400a7e4:	d510      	bpl.n	2400a808 <HAL_RCCEx_PeriphCLKConfig+0x630>
2400a7e6:	f8d5 3098 	ldr.w	r3, [r5, #152]	; 0x98
2400a7ea:	f5b3 6f00 	cmp.w	r3, #2048	; 0x800
2400a7ee:	f000 8126 	beq.w	2400aa3e <HAL_RCCEx_PeriphCLKConfig+0x866>
2400a7f2:	f200 810b 	bhi.w	2400aa0c <HAL_RCCEx_PeriphCLKConfig+0x834>
2400a7f6:	2b00      	cmp	r3, #0
2400a7f8:	f000 8111 	beq.w	2400aa1e <HAL_RCCEx_PeriphCLKConfig+0x846>
2400a7fc:	f5b3 6f80 	cmp.w	r3, #1024	; 0x400
2400a800:	f000 8117 	beq.w	2400aa32 <HAL_RCCEx_PeriphCLKConfig+0x85a>
2400a804:	2601      	movs	r6, #1
2400a806:	4634      	mov	r4, r6
2400a808:	682b      	ldr	r3, [r5, #0]
2400a80a:	061a      	lsls	r2, r3, #24
2400a80c:	d510      	bpl.n	2400a830 <HAL_RCCEx_PeriphCLKConfig+0x658>
2400a80e:	f8d5 309c 	ldr.w	r3, [r5, #156]	; 0x9c
2400a812:	f5b3 4f80 	cmp.w	r3, #16384	; 0x4000
2400a816:	f000 8133 	beq.w	2400aa80 <HAL_RCCEx_PeriphCLKConfig+0x8a8>
2400a81a:	f200 8118 	bhi.w	2400aa4e <HAL_RCCEx_PeriphCLKConfig+0x876>
2400a81e:	2b00      	cmp	r3, #0
2400a820:	f000 811e 	beq.w	2400aa60 <HAL_RCCEx_PeriphCLKConfig+0x888>
2400a824:	f5b3 5f00 	cmp.w	r3, #8192	; 0x2000
2400a828:	f000 8124 	beq.w	2400aa74 <HAL_RCCEx_PeriphCLKConfig+0x89c>
2400a82c:	2601      	movs	r6, #1
2400a82e:	4634      	mov	r4, r6
2400a830:	682b      	ldr	r3, [r5, #0]
2400a832:	071b      	lsls	r3, r3, #28
2400a834:	d514      	bpl.n	2400a860 <HAL_RCCEx_PeriphCLKConfig+0x688>
2400a836:	f8d5 3080 	ldr.w	r3, [r5, #128]	; 0x80
2400a83a:	f5b3 5f80 	cmp.w	r3, #4096	; 0x1000
2400a83e:	d107      	bne.n	2400a850 <HAL_RCCEx_PeriphCLKConfig+0x678>
2400a840:	2102      	movs	r1, #2
2400a842:	f105 0024 	add.w	r0, r5, #36	; 0x24
2400a846:	f7ff fc4f 	bl	2400a0e8 <RCCEx_PLL3_Config>
2400a84a:	2800      	cmp	r0, #0
2400a84c:	bf18      	it	ne
2400a84e:	2601      	movne	r6, #1
2400a850:	4a6d      	ldr	r2, [pc, #436]	; (2400aa08 <HAL_RCCEx_PeriphCLKConfig+0x830>)
2400a852:	f8d5 1080 	ldr.w	r1, [r5, #128]	; 0x80
2400a856:	6d53      	ldr	r3, [r2, #84]	; 0x54
2400a858:	f423 5340 	bic.w	r3, r3, #12288	; 0x3000
2400a85c:	430b      	orrs	r3, r1
2400a85e:	6553      	str	r3, [r2, #84]	; 0x54
2400a860:	682b      	ldr	r3, [r5, #0]
2400a862:	06df      	lsls	r7, r3, #27
2400a864:	d514      	bpl.n	2400a890 <HAL_RCCEx_PeriphCLKConfig+0x6b8>
2400a866:	f8d5 3094 	ldr.w	r3, [r5, #148]	; 0x94
2400a86a:	f5b3 7f80 	cmp.w	r3, #256	; 0x100
2400a86e:	d107      	bne.n	2400a880 <HAL_RCCEx_PeriphCLKConfig+0x6a8>
2400a870:	2102      	movs	r1, #2
2400a872:	f105 0024 	add.w	r0, r5, #36	; 0x24
2400a876:	f7ff fc37 	bl	2400a0e8 <RCCEx_PLL3_Config>
2400a87a:	2800      	cmp	r0, #0
2400a87c:	bf18      	it	ne
2400a87e:	2601      	movne	r6, #1
2400a880:	4a61      	ldr	r2, [pc, #388]	; (2400aa08 <HAL_RCCEx_PeriphCLKConfig+0x830>)
2400a882:	f8d5 1094 	ldr.w	r1, [r5, #148]	; 0x94
2400a886:	6d93      	ldr	r3, [r2, #88]	; 0x58
2400a888:	f423 7340 	bic.w	r3, r3, #768	; 0x300
2400a88c:	430b      	orrs	r3, r1
2400a88e:	6593      	str	r3, [r2, #88]	; 0x58
2400a890:	682b      	ldr	r3, [r5, #0]
2400a892:	0318      	lsls	r0, r3, #12
2400a894:	d51a      	bpl.n	2400a8cc <HAL_RCCEx_PeriphCLKConfig+0x6f4>
2400a896:	f8d5 10a0 	ldr.w	r1, [r5, #160]	; 0xa0
2400a89a:	f5b1 3f80 	cmp.w	r1, #65536	; 0x10000
2400a89e:	f000 80f7 	beq.w	2400aa90 <HAL_RCCEx_PeriphCLKConfig+0x8b8>
2400a8a2:	f5b1 3f00 	cmp.w	r1, #131072	; 0x20000
2400a8a6:	d006      	beq.n	2400a8b6 <HAL_RCCEx_PeriphCLKConfig+0x6de>
2400a8a8:	2900      	cmp	r1, #0
2400a8aa:	f040 80f7 	bne.w	2400aa9c <HAL_RCCEx_PeriphCLKConfig+0x8c4>
2400a8ae:	1d28      	adds	r0, r5, #4
2400a8b0:	f7ff fba2 	bl	24009ff8 <RCCEx_PLL2_Config>
2400a8b4:	4604      	mov	r4, r0
2400a8b6:	2c00      	cmp	r4, #0
2400a8b8:	f040 80f3 	bne.w	2400aaa2 <HAL_RCCEx_PeriphCLKConfig+0x8ca>
2400a8bc:	4a52      	ldr	r2, [pc, #328]	; (2400aa08 <HAL_RCCEx_PeriphCLKConfig+0x830>)
2400a8be:	f8d5 10a0 	ldr.w	r1, [r5, #160]	; 0xa0
2400a8c2:	6d93      	ldr	r3, [r2, #88]	; 0x58
2400a8c4:	f423 3340 	bic.w	r3, r3, #196608	; 0x30000
2400a8c8:	430b      	orrs	r3, r1
2400a8ca:	6593      	str	r3, [r2, #88]	; 0x58
2400a8cc:	682b      	ldr	r3, [r5, #0]
2400a8ce:	0359      	lsls	r1, r3, #13
2400a8d0:	d51c      	bpl.n	2400a90c <HAL_RCCEx_PeriphCLKConfig+0x734>
2400a8d2:	f8d5 3084 	ldr.w	r3, [r5, #132]	; 0x84
2400a8d6:	f5b3 1f00 	cmp.w	r3, #2097152	; 0x200000
2400a8da:	f000 80e4 	beq.w	2400aaa6 <HAL_RCCEx_PeriphCLKConfig+0x8ce>
2400a8de:	f5b3 1f40 	cmp.w	r3, #3145728	; 0x300000
2400a8e2:	d008      	beq.n	2400a8f6 <HAL_RCCEx_PeriphCLKConfig+0x71e>
2400a8e4:	f5b3 1f80 	cmp.w	r3, #1048576	; 0x100000
2400a8e8:	f040 80e4 	bne.w	2400aab4 <HAL_RCCEx_PeriphCLKConfig+0x8dc>
2400a8ec:	4a46      	ldr	r2, [pc, #280]	; (2400aa08 <HAL_RCCEx_PeriphCLKConfig+0x830>)
2400a8ee:	6ad3      	ldr	r3, [r2, #44]	; 0x2c
2400a8f0:	f443 3300 	orr.w	r3, r3, #131072	; 0x20000
2400a8f4:	62d3      	str	r3, [r2, #44]	; 0x2c
2400a8f6:	2c00      	cmp	r4, #0
2400a8f8:	f040 80df 	bne.w	2400aaba <HAL_RCCEx_PeriphCLKConfig+0x8e2>
2400a8fc:	4a42      	ldr	r2, [pc, #264]	; (2400aa08 <HAL_RCCEx_PeriphCLKConfig+0x830>)
2400a8fe:	f8d5 1084 	ldr.w	r1, [r5, #132]	; 0x84
2400a902:	6d53      	ldr	r3, [r2, #84]	; 0x54
2400a904:	f423 1340 	bic.w	r3, r3, #3145728	; 0x300000
2400a908:	430b      	orrs	r3, r1
2400a90a:	6553      	str	r3, [r2, #84]	; 0x54
2400a90c:	682b      	ldr	r3, [r5, #0]
2400a90e:	03da      	lsls	r2, r3, #15
2400a910:	d509      	bpl.n	2400a926 <HAL_RCCEx_PeriphCLKConfig+0x74e>
2400a912:	6ceb      	ldr	r3, [r5, #76]	; 0x4c
2400a914:	2b00      	cmp	r3, #0
2400a916:	f000 80d2 	beq.w	2400aabe <HAL_RCCEx_PeriphCLKConfig+0x8e6>
2400a91a:	f5b3 3f80 	cmp.w	r3, #65536	; 0x10000
2400a91e:	f000 80dc 	beq.w	2400aada <HAL_RCCEx_PeriphCLKConfig+0x902>
2400a922:	2601      	movs	r6, #1
2400a924:	4634      	mov	r4, r6
2400a926:	682b      	ldr	r3, [r5, #0]
2400a928:	009b      	lsls	r3, r3, #2
2400a92a:	d507      	bpl.n	2400a93c <HAL_RCCEx_PeriphCLKConfig+0x764>
2400a92c:	2102      	movs	r1, #2
2400a92e:	f105 0024 	add.w	r0, r5, #36	; 0x24
2400a932:	f7ff fbd9 	bl	2400a0e8 <RCCEx_PLL3_Config>
2400a936:	2800      	cmp	r0, #0
2400a938:	bf18      	it	ne
2400a93a:	2601      	movne	r6, #1
2400a93c:	682b      	ldr	r3, [r5, #0]
2400a93e:	039f      	lsls	r7, r3, #14
2400a940:	d50a      	bpl.n	2400a958 <HAL_RCCEx_PeriphCLKConfig+0x780>
2400a942:	6fe9      	ldr	r1, [r5, #124]	; 0x7c
2400a944:	f5b1 7f80 	cmp.w	r1, #256	; 0x100
2400a948:	f000 80dd 	beq.w	2400ab06 <HAL_RCCEx_PeriphCLKConfig+0x92e>
2400a94c:	f200 80cd 	bhi.w	2400aaea <HAL_RCCEx_PeriphCLKConfig+0x912>
2400a950:	2900      	cmp	r1, #0
2400a952:	f000 80d0 	beq.w	2400aaf6 <HAL_RCCEx_PeriphCLKConfig+0x91e>
2400a956:	2601      	movs	r6, #1
2400a958:	02d8      	lsls	r0, r3, #11
2400a95a:	d506      	bpl.n	2400a96a <HAL_RCCEx_PeriphCLKConfig+0x792>
2400a95c:	492a      	ldr	r1, [pc, #168]	; (2400aa08 <HAL_RCCEx_PeriphCLKConfig+0x830>)
2400a95e:	6f28      	ldr	r0, [r5, #112]	; 0x70
2400a960:	6d0a      	ldr	r2, [r1, #80]	; 0x50
2400a962:	f022 4200 	bic.w	r2, r2, #2147483648	; 0x80000000
2400a966:	4302      	orrs	r2, r0
2400a968:	650a      	str	r2, [r1, #80]	; 0x50
2400a96a:	0299      	lsls	r1, r3, #10
2400a96c:	d506      	bpl.n	2400a97c <HAL_RCCEx_PeriphCLKConfig+0x7a4>
2400a96e:	4926      	ldr	r1, [pc, #152]	; (2400aa08 <HAL_RCCEx_PeriphCLKConfig+0x830>)
2400a970:	6ea8      	ldr	r0, [r5, #104]	; 0x68
2400a972:	6d0a      	ldr	r2, [r1, #80]	; 0x50
2400a974:	f022 7280 	bic.w	r2, r2, #16777216	; 0x1000000
2400a978:	4302      	orrs	r2, r0
2400a97a:	650a      	str	r2, [r1, #80]	; 0x50
2400a97c:	005a      	lsls	r2, r3, #1
2400a97e:	d509      	bpl.n	2400a994 <HAL_RCCEx_PeriphCLKConfig+0x7bc>
2400a980:	4a21      	ldr	r2, [pc, #132]	; (2400aa08 <HAL_RCCEx_PeriphCLKConfig+0x830>)
2400a982:	6911      	ldr	r1, [r2, #16]
2400a984:	f421 4100 	bic.w	r1, r1, #32768	; 0x8000
2400a988:	6111      	str	r1, [r2, #16]
2400a98a:	6911      	ldr	r1, [r2, #16]
2400a98c:	f8d5 00b8 	ldr.w	r0, [r5, #184]	; 0xb8
2400a990:	4301      	orrs	r1, r0
2400a992:	6111      	str	r1, [r2, #16]
2400a994:	2b00      	cmp	r3, #0
2400a996:	da06      	bge.n	2400a9a6 <HAL_RCCEx_PeriphCLKConfig+0x7ce>
2400a998:	4a1b      	ldr	r2, [pc, #108]	; (2400aa08 <HAL_RCCEx_PeriphCLKConfig+0x830>)
2400a99a:	6d29      	ldr	r1, [r5, #80]	; 0x50
2400a99c:	6cd3      	ldr	r3, [r2, #76]	; 0x4c
2400a99e:	f023 5340 	bic.w	r3, r3, #805306368	; 0x30000000
2400a9a2:	430b      	orrs	r3, r1
2400a9a4:	64d3      	str	r3, [r2, #76]	; 0x4c
2400a9a6:	1e30      	subs	r0, r6, #0
2400a9a8:	bf18      	it	ne
2400a9aa:	2001      	movne	r0, #1
2400a9ac:	e8bd 83f8 	ldmia.w	sp!, {r3, r4, r5, r6, r7, r8, r9, pc}
2400a9b0:	2101      	movs	r1, #1
2400a9b2:	f105 0024 	add.w	r0, r5, #36	; 0x24
2400a9b6:	f7ff fb97 	bl	2400a0e8 <RCCEx_PLL3_Config>
2400a9ba:	e6f1      	b.n	2400a7a0 <HAL_RCCEx_PeriphCLKConfig+0x5c8>
2400a9bc:	2601      	movs	r6, #1
2400a9be:	4634      	mov	r4, r6
2400a9c0:	e6fa      	b.n	2400a7b8 <HAL_RCCEx_PeriphCLKConfig+0x5e0>
2400a9c2:	4626      	mov	r6, r4
2400a9c4:	e6f8      	b.n	2400a7b8 <HAL_RCCEx_PeriphCLKConfig+0x5e0>
2400a9c6:	f023 5280 	bic.w	r2, r3, #268435456	; 0x10000000
2400a9ca:	f1b2 4f80 	cmp.w	r2, #1073741824	; 0x40000000
2400a9ce:	d003      	beq.n	2400a9d8 <HAL_RCCEx_PeriphCLKConfig+0x800>
2400a9d0:	f1b3 5f40 	cmp.w	r3, #805306368	; 0x30000000
2400a9d4:	f47f af02 	bne.w	2400a7dc <HAL_RCCEx_PeriphCLKConfig+0x604>
2400a9d8:	b9a4      	cbnz	r4, 2400aa04 <HAL_RCCEx_PeriphCLKConfig+0x82c>
2400a9da:	4a0b      	ldr	r2, [pc, #44]	; (2400aa08 <HAL_RCCEx_PeriphCLKConfig+0x830>)
2400a9dc:	f8d5 108c 	ldr.w	r1, [r5, #140]	; 0x8c
2400a9e0:	6d53      	ldr	r3, [r2, #84]	; 0x54
2400a9e2:	f023 43e0 	bic.w	r3, r3, #1879048192	; 0x70000000
2400a9e6:	430b      	orrs	r3, r1
2400a9e8:	6553      	str	r3, [r2, #84]	; 0x54
2400a9ea:	e6f9      	b.n	2400a7e0 <HAL_RCCEx_PeriphCLKConfig+0x608>
2400a9ec:	2100      	movs	r1, #0
2400a9ee:	1d28      	adds	r0, r5, #4
2400a9f0:	f7ff fb02 	bl	24009ff8 <RCCEx_PLL2_Config>
2400a9f4:	4604      	mov	r4, r0
2400a9f6:	e7ef      	b.n	2400a9d8 <HAL_RCCEx_PeriphCLKConfig+0x800>
2400a9f8:	2102      	movs	r1, #2
2400a9fa:	f105 0024 	add.w	r0, r5, #36	; 0x24
2400a9fe:	f7ff fb73 	bl	2400a0e8 <RCCEx_PLL3_Config>
2400aa02:	e7f7      	b.n	2400a9f4 <HAL_RCCEx_PeriphCLKConfig+0x81c>
2400aa04:	4626      	mov	r6, r4
2400aa06:	e6eb      	b.n	2400a7e0 <HAL_RCCEx_PeriphCLKConfig+0x608>
2400aa08:	58024400 	.word	0x58024400
2400aa0c:	f423 6280 	bic.w	r2, r3, #1024	; 0x400
2400aa10:	f5b2 5f80 	cmp.w	r2, #4096	; 0x1000
2400aa14:	d003      	beq.n	2400aa1e <HAL_RCCEx_PeriphCLKConfig+0x846>
2400aa16:	f5b3 6f40 	cmp.w	r3, #3072	; 0xc00
2400aa1a:	f47f aef3 	bne.w	2400a804 <HAL_RCCEx_PeriphCLKConfig+0x62c>
2400aa1e:	b9a4      	cbnz	r4, 2400aa4a <HAL_RCCEx_PeriphCLKConfig+0x872>
2400aa20:	4a3d      	ldr	r2, [pc, #244]	; (2400ab18 <HAL_RCCEx_PeriphCLKConfig+0x940>)
2400aa22:	f8d5 1098 	ldr.w	r1, [r5, #152]	; 0x98
2400aa26:	6d93      	ldr	r3, [r2, #88]	; 0x58
2400aa28:	f423 53e0 	bic.w	r3, r3, #7168	; 0x1c00
2400aa2c:	430b      	orrs	r3, r1
2400aa2e:	6593      	str	r3, [r2, #88]	; 0x58
2400aa30:	e6ea      	b.n	2400a808 <HAL_RCCEx_PeriphCLKConfig+0x630>
2400aa32:	2100      	movs	r1, #0
2400aa34:	1d28      	adds	r0, r5, #4
2400aa36:	f7ff fadf 	bl	24009ff8 <RCCEx_PLL2_Config>
2400aa3a:	4604      	mov	r4, r0
2400aa3c:	e7ef      	b.n	2400aa1e <HAL_RCCEx_PeriphCLKConfig+0x846>
2400aa3e:	2102      	movs	r1, #2
2400aa40:	f105 0024 	add.w	r0, r5, #36	; 0x24
2400aa44:	f7ff fb50 	bl	2400a0e8 <RCCEx_PLL3_Config>
2400aa48:	e7f7      	b.n	2400aa3a <HAL_RCCEx_PeriphCLKConfig+0x862>
2400aa4a:	4626      	mov	r6, r4
2400aa4c:	e6dc      	b.n	2400a808 <HAL_RCCEx_PeriphCLKConfig+0x630>
2400aa4e:	f423 5200 	bic.w	r2, r3, #8192	; 0x2000
2400aa52:	f5b2 4f00 	cmp.w	r2, #32768	; 0x8000
2400aa56:	d003      	beq.n	2400aa60 <HAL_RCCEx_PeriphCLKConfig+0x888>
2400aa58:	f5b3 4fc0 	cmp.w	r3, #24576	; 0x6000
2400aa5c:	f47f aee6 	bne.w	2400a82c <HAL_RCCEx_PeriphCLKConfig+0x654>
2400aa60:	b9a4      	cbnz	r4, 2400aa8c <HAL_RCCEx_PeriphCLKConfig+0x8b4>
2400aa62:	4a2d      	ldr	r2, [pc, #180]	; (2400ab18 <HAL_RCCEx_PeriphCLKConfig+0x940>)
2400aa64:	f8d5 109c 	ldr.w	r1, [r5, #156]	; 0x9c
2400aa68:	6d93      	ldr	r3, [r2, #88]	; 0x58
2400aa6a:	f423 4360 	bic.w	r3, r3, #57344	; 0xe000
2400aa6e:	430b      	orrs	r3, r1
2400aa70:	6593      	str	r3, [r2, #88]	; 0x58
2400aa72:	e6dd      	b.n	2400a830 <HAL_RCCEx_PeriphCLKConfig+0x658>
2400aa74:	2100      	movs	r1, #0
2400aa76:	1d28      	adds	r0, r5, #4
2400aa78:	f7ff fabe 	bl	24009ff8 <RCCEx_PLL2_Config>
2400aa7c:	4604      	mov	r4, r0
2400aa7e:	e7ef      	b.n	2400aa60 <HAL_RCCEx_PeriphCLKConfig+0x888>
2400aa80:	2102      	movs	r1, #2
2400aa82:	f105 0024 	add.w	r0, r5, #36	; 0x24
2400aa86:	f7ff fb2f 	bl	2400a0e8 <RCCEx_PLL3_Config>
2400aa8a:	e7f7      	b.n	2400aa7c <HAL_RCCEx_PeriphCLKConfig+0x8a4>
2400aa8c:	4626      	mov	r6, r4
2400aa8e:	e6cf      	b.n	2400a830 <HAL_RCCEx_PeriphCLKConfig+0x658>
2400aa90:	2102      	movs	r1, #2
2400aa92:	f105 0024 	add.w	r0, r5, #36	; 0x24
2400aa96:	f7ff fb27 	bl	2400a0e8 <RCCEx_PLL3_Config>
2400aa9a:	e70b      	b.n	2400a8b4 <HAL_RCCEx_PeriphCLKConfig+0x6dc>
2400aa9c:	2601      	movs	r6, #1
2400aa9e:	4634      	mov	r4, r6
2400aaa0:	e714      	b.n	2400a8cc <HAL_RCCEx_PeriphCLKConfig+0x6f4>
2400aaa2:	4626      	mov	r6, r4
2400aaa4:	e712      	b.n	2400a8cc <HAL_RCCEx_PeriphCLKConfig+0x6f4>
2400aaa6:	2101      	movs	r1, #1
2400aaa8:	f105 0024 	add.w	r0, r5, #36	; 0x24
2400aaac:	f7ff fb1c 	bl	2400a0e8 <RCCEx_PLL3_Config>
2400aab0:	4604      	mov	r4, r0
2400aab2:	e720      	b.n	2400a8f6 <HAL_RCCEx_PeriphCLKConfig+0x71e>
2400aab4:	2601      	movs	r6, #1
2400aab6:	4634      	mov	r4, r6
2400aab8:	e728      	b.n	2400a90c <HAL_RCCEx_PeriphCLKConfig+0x734>
2400aaba:	4626      	mov	r6, r4
2400aabc:	e726      	b.n	2400a90c <HAL_RCCEx_PeriphCLKConfig+0x734>
2400aabe:	4a16      	ldr	r2, [pc, #88]	; (2400ab18 <HAL_RCCEx_PeriphCLKConfig+0x940>)
2400aac0:	6ad3      	ldr	r3, [r2, #44]	; 0x2c
2400aac2:	f443 3300 	orr.w	r3, r3, #131072	; 0x20000
2400aac6:	62d3      	str	r3, [r2, #44]	; 0x2c
2400aac8:	b96c      	cbnz	r4, 2400aae6 <HAL_RCCEx_PeriphCLKConfig+0x90e>
2400aaca:	4a13      	ldr	r2, [pc, #76]	; (2400ab18 <HAL_RCCEx_PeriphCLKConfig+0x940>)
2400aacc:	6ce9      	ldr	r1, [r5, #76]	; 0x4c
2400aace:	6cd3      	ldr	r3, [r2, #76]	; 0x4c
2400aad0:	f423 3380 	bic.w	r3, r3, #65536	; 0x10000
2400aad4:	430b      	orrs	r3, r1
2400aad6:	64d3      	str	r3, [r2, #76]	; 0x4c
2400aad8:	e725      	b.n	2400a926 <HAL_RCCEx_PeriphCLKConfig+0x74e>
2400aada:	2102      	movs	r1, #2
2400aadc:	1d28      	adds	r0, r5, #4
2400aade:	f7ff fa8b 	bl	24009ff8 <RCCEx_PLL2_Config>
2400aae2:	4604      	mov	r4, r0
2400aae4:	e7f0      	b.n	2400aac8 <HAL_RCCEx_PeriphCLKConfig+0x8f0>
2400aae6:	4626      	mov	r6, r4
2400aae8:	e71d      	b.n	2400a926 <HAL_RCCEx_PeriphCLKConfig+0x74e>
2400aaea:	f421 7280 	bic.w	r2, r1, #256	; 0x100
2400aaee:	f5b2 7f00 	cmp.w	r2, #512	; 0x200
2400aaf2:	f47f af30 	bne.w	2400a956 <HAL_RCCEx_PeriphCLKConfig+0x77e>
2400aaf6:	b964      	cbnz	r4, 2400ab12 <HAL_RCCEx_PeriphCLKConfig+0x93a>
2400aaf8:	4807      	ldr	r0, [pc, #28]	; (2400ab18 <HAL_RCCEx_PeriphCLKConfig+0x940>)
2400aafa:	6d42      	ldr	r2, [r0, #84]	; 0x54
2400aafc:	f422 7240 	bic.w	r2, r2, #768	; 0x300
2400ab00:	430a      	orrs	r2, r1
2400ab02:	6542      	str	r2, [r0, #84]	; 0x54
2400ab04:	e728      	b.n	2400a958 <HAL_RCCEx_PeriphCLKConfig+0x780>
2400ab06:	4804      	ldr	r0, [pc, #16]	; (2400ab18 <HAL_RCCEx_PeriphCLKConfig+0x940>)
2400ab08:	6ac2      	ldr	r2, [r0, #44]	; 0x2c
2400ab0a:	f442 3200 	orr.w	r2, r2, #131072	; 0x20000
2400ab0e:	62c2      	str	r2, [r0, #44]	; 0x2c
2400ab10:	e7f1      	b.n	2400aaf6 <HAL_RCCEx_PeriphCLKConfig+0x91e>
2400ab12:	4626      	mov	r6, r4
2400ab14:	e720      	b.n	2400a958 <HAL_RCCEx_PeriphCLKConfig+0x780>
2400ab16:	bf00      	nop
2400ab18:	58024400 	.word	0x58024400

2400ab1c <HAL_RCCEx_GetPeriphCLKConfig>:
2400ab1c:	f06f 53a0 	mvn.w	r3, #335544320	; 0x14000000
2400ab20:	6003      	str	r3, [r0, #0]
2400ab22:	4b62      	ldr	r3, [pc, #392]	; (2400acac <HAL_RCCEx_GetPeriphCLKConfig+0x190>)
2400ab24:	6a9a      	ldr	r2, [r3, #40]	; 0x28
2400ab26:	f3c2 5205 	ubfx	r2, r2, #20, #6
2400ab2a:	6242      	str	r2, [r0, #36]	; 0x24
2400ab2c:	6c1a      	ldr	r2, [r3, #64]	; 0x40
2400ab2e:	f3c2 0208 	ubfx	r2, r2, #0, #9
2400ab32:	3201      	adds	r2, #1
2400ab34:	6282      	str	r2, [r0, #40]	; 0x28
2400ab36:	6c1a      	ldr	r2, [r3, #64]	; 0x40
2400ab38:	f3c2 6206 	ubfx	r2, r2, #24, #7
2400ab3c:	3201      	adds	r2, #1
2400ab3e:	6342      	str	r2, [r0, #52]	; 0x34
2400ab40:	6c1a      	ldr	r2, [r3, #64]	; 0x40
2400ab42:	f3c2 2246 	ubfx	r2, r2, #9, #7
2400ab46:	3201      	adds	r2, #1
2400ab48:	62c2      	str	r2, [r0, #44]	; 0x2c
2400ab4a:	6c1a      	ldr	r2, [r3, #64]	; 0x40
2400ab4c:	f3c2 4206 	ubfx	r2, r2, #16, #7
2400ab50:	3201      	adds	r2, #1
2400ab52:	6302      	str	r2, [r0, #48]	; 0x30
2400ab54:	6ada      	ldr	r2, [r3, #44]	; 0x2c
2400ab56:	f3c2 2281 	ubfx	r2, r2, #10, #2
2400ab5a:	6382      	str	r2, [r0, #56]	; 0x38
2400ab5c:	6ada      	ldr	r2, [r3, #44]	; 0x2c
2400ab5e:	f3c2 2240 	ubfx	r2, r2, #9, #1
2400ab62:	63c2      	str	r2, [r0, #60]	; 0x3c
2400ab64:	6a9a      	ldr	r2, [r3, #40]	; 0x28
2400ab66:	f3c2 3205 	ubfx	r2, r2, #12, #6
2400ab6a:	6042      	str	r2, [r0, #4]
2400ab6c:	6b9a      	ldr	r2, [r3, #56]	; 0x38
2400ab6e:	f3c2 0208 	ubfx	r2, r2, #0, #9
2400ab72:	3201      	adds	r2, #1
2400ab74:	6082      	str	r2, [r0, #8]
2400ab76:	6b9a      	ldr	r2, [r3, #56]	; 0x38
2400ab78:	f3c2 6206 	ubfx	r2, r2, #24, #7
2400ab7c:	3201      	adds	r2, #1
2400ab7e:	6142      	str	r2, [r0, #20]
2400ab80:	6b9a      	ldr	r2, [r3, #56]	; 0x38
2400ab82:	f3c2 2246 	ubfx	r2, r2, #9, #7
2400ab86:	3201      	adds	r2, #1
2400ab88:	60c2      	str	r2, [r0, #12]
2400ab8a:	6b9a      	ldr	r2, [r3, #56]	; 0x38
2400ab8c:	f3c2 4206 	ubfx	r2, r2, #16, #7
2400ab90:	3201      	adds	r2, #1
2400ab92:	6102      	str	r2, [r0, #16]
2400ab94:	6ada      	ldr	r2, [r3, #44]	; 0x2c
2400ab96:	f3c2 1281 	ubfx	r2, r2, #6, #2
2400ab9a:	6182      	str	r2, [r0, #24]
2400ab9c:	6ada      	ldr	r2, [r3, #44]	; 0x2c
2400ab9e:	f3c2 1240 	ubfx	r2, r2, #5, #1
2400aba2:	61c2      	str	r2, [r0, #28]
2400aba4:	6d5a      	ldr	r2, [r3, #84]	; 0x54
2400aba6:	f002 0238 	and.w	r2, r2, #56	; 0x38
2400abaa:	6782      	str	r2, [r0, #120]	; 0x78
2400abac:	6d5a      	ldr	r2, [r3, #84]	; 0x54
2400abae:	f002 0207 	and.w	r2, r2, #7
2400abb2:	6742      	str	r2, [r0, #116]	; 0x74
2400abb4:	6d9a      	ldr	r2, [r3, #88]	; 0x58
2400abb6:	f002 0207 	and.w	r2, r2, #7
2400abba:	f8c0 2090 	str.w	r2, [r0, #144]	; 0x90
2400abbe:	6d5a      	ldr	r2, [r3, #84]	; 0x54
2400abc0:	f402 5240 	and.w	r2, r2, #12288	; 0x3000
2400abc4:	f8c0 2080 	str.w	r2, [r0, #128]	; 0x80
2400abc8:	6d5a      	ldr	r2, [r3, #84]	; 0x54
2400abca:	f002 42e0 	and.w	r2, r2, #1879048192	; 0x70000000
2400abce:	f8c0 208c 	str.w	r2, [r0, #140]	; 0x8c
2400abd2:	6d9a      	ldr	r2, [r3, #88]	; 0x58
2400abd4:	f402 52e0 	and.w	r2, r2, #7168	; 0x1c00
2400abd8:	f8c0 2098 	str.w	r2, [r0, #152]	; 0x98
2400abdc:	6d9a      	ldr	r2, [r3, #88]	; 0x58
2400abde:	f402 4260 	and.w	r2, r2, #57344	; 0xe000
2400abe2:	f8c0 209c 	str.w	r2, [r0, #156]	; 0x9c
2400abe6:	6d1a      	ldr	r2, [r3, #80]	; 0x50
2400abe8:	f002 0207 	and.w	r2, r2, #7
2400abec:	6542      	str	r2, [r0, #84]	; 0x54
2400abee:	6d1a      	ldr	r2, [r3, #80]	; 0x50
2400abf0:	f402 72e0 	and.w	r2, r2, #448	; 0x1c0
2400abf4:	6582      	str	r2, [r0, #88]	; 0x58
2400abf6:	6d9a      	ldr	r2, [r3, #88]	; 0x58
2400abf8:	f402 0260 	and.w	r2, r2, #14680064	; 0xe00000
2400abfc:	f8c0 20a4 	str.w	r2, [r0, #164]	; 0xa4
2400ac00:	6d9a      	ldr	r2, [r3, #88]	; 0x58
2400ac02:	f002 62e0 	and.w	r2, r2, #117440512	; 0x7000000
2400ac06:	f8c0 20a8 	str.w	r2, [r0, #168]	; 0xa8
2400ac0a:	6f1a      	ldr	r2, [r3, #112]	; 0x70
2400ac0c:	f402 7240 	and.w	r2, r2, #768	; 0x300
2400ac10:	f8c0 20b0 	str.w	r2, [r0, #176]	; 0xb0
2400ac14:	6d5a      	ldr	r2, [r3, #84]	; 0x54
2400ac16:	f402 1240 	and.w	r2, r2, #3145728	; 0x300000
2400ac1a:	f8c0 2084 	str.w	r2, [r0, #132]	; 0x84
2400ac1e:	6cda      	ldr	r2, [r3, #76]	; 0x4c
2400ac20:	f402 3280 	and.w	r2, r2, #65536	; 0x10000
2400ac24:	64c2      	str	r2, [r0, #76]	; 0x4c
2400ac26:	6d5a      	ldr	r2, [r3, #84]	; 0x54
2400ac28:	f402 7240 	and.w	r2, r2, #768	; 0x300
2400ac2c:	67c2      	str	r2, [r0, #124]	; 0x7c
2400ac2e:	691a      	ldr	r2, [r3, #16]
2400ac30:	f402 4280 	and.w	r2, r2, #16384	; 0x4000
2400ac34:	f8c0 20b4 	str.w	r2, [r0, #180]	; 0xb4
2400ac38:	6d9a      	ldr	r2, [r3, #88]	; 0x58
2400ac3a:	f402 3240 	and.w	r2, r2, #196608	; 0x30000
2400ac3e:	f8c0 20a0 	str.w	r2, [r0, #160]	; 0xa0
2400ac42:	6d1a      	ldr	r2, [r3, #80]	; 0x50
2400ac44:	f002 4200 	and.w	r2, r2, #2147483648	; 0x80000000
2400ac48:	6702      	str	r2, [r0, #112]	; 0x70
2400ac4a:	6d1a      	ldr	r2, [r3, #80]	; 0x50
2400ac4c:	f002 7280 	and.w	r2, r2, #16777216	; 0x1000000
2400ac50:	6682      	str	r2, [r0, #104]	; 0x68
2400ac52:	6d1a      	ldr	r2, [r3, #80]	; 0x50
2400ac54:	f402 1240 	and.w	r2, r2, #3145728	; 0x300000
2400ac58:	6642      	str	r2, [r0, #100]	; 0x64
2400ac5a:	6d1a      	ldr	r2, [r3, #80]	; 0x50
2400ac5c:	f402 42e0 	and.w	r2, r2, #28672	; 0x7000
2400ac60:	65c2      	str	r2, [r0, #92]	; 0x5c
2400ac62:	6d1a      	ldr	r2, [r3, #80]	; 0x50
2400ac64:	f402 22e0 	and.w	r2, r2, #458752	; 0x70000
2400ac68:	6602      	str	r2, [r0, #96]	; 0x60
2400ac6a:	6d9a      	ldr	r2, [r3, #88]	; 0x58
2400ac6c:	f002 42e0 	and.w	r2, r2, #1879048192	; 0x70000000
2400ac70:	f8c0 20ac 	str.w	r2, [r0, #172]	; 0xac
2400ac74:	6d1a      	ldr	r2, [r3, #80]	; 0x50
2400ac76:	f002 5240 	and.w	r2, r2, #805306368	; 0x30000000
2400ac7a:	66c2      	str	r2, [r0, #108]	; 0x6c
2400ac7c:	6d5a      	ldr	r2, [r3, #84]	; 0x54
2400ac7e:	f402 0240 	and.w	r2, r2, #12582912	; 0xc00000
2400ac82:	f8c0 2088 	str.w	r2, [r0, #136]	; 0x88
2400ac86:	6cda      	ldr	r2, [r3, #76]	; 0x4c
2400ac88:	f002 0203 	and.w	r2, r2, #3
2400ac8c:	6442      	str	r2, [r0, #68]	; 0x44
2400ac8e:	6cda      	ldr	r2, [r3, #76]	; 0x4c
2400ac90:	f002 0230 	and.w	r2, r2, #48	; 0x30
2400ac94:	6482      	str	r2, [r0, #72]	; 0x48
2400ac96:	6cda      	ldr	r2, [r3, #76]	; 0x4c
2400ac98:	f002 5240 	and.w	r2, r2, #805306368	; 0x30000000
2400ac9c:	6502      	str	r2, [r0, #80]	; 0x50
2400ac9e:	691b      	ldr	r3, [r3, #16]
2400aca0:	f403 4300 	and.w	r3, r3, #32768	; 0x8000
2400aca4:	f8c0 30b8 	str.w	r3, [r0, #184]	; 0xb8
2400aca8:	4770      	bx	lr
2400acaa:	bf00      	nop
2400acac:	58024400 	.word	0x58024400

2400acb0 <HAL_RCCEx_GetD1PCLK1Freq>:
2400acb0:	b508      	push	{r3, lr}
2400acb2:	f7ff f8a5 	bl	24009e00 <HAL_RCC_GetHCLKFreq>
2400acb6:	4b05      	ldr	r3, [pc, #20]	; (2400accc <HAL_RCCEx_GetD1PCLK1Freq+0x1c>)
2400acb8:	4a05      	ldr	r2, [pc, #20]	; (2400acd0 <HAL_RCCEx_GetD1PCLK1Freq+0x20>)
2400acba:	699b      	ldr	r3, [r3, #24]
2400acbc:	f3c3 1302 	ubfx	r3, r3, #4, #3
2400acc0:	5cd3      	ldrb	r3, [r2, r3]
2400acc2:	f003 031f 	and.w	r3, r3, #31
2400acc6:	40d8      	lsrs	r0, r3
2400acc8:	bd08      	pop	{r3, pc}
2400acca:	bf00      	nop
2400accc:	58024400 	.word	0x58024400
2400acd0:	2400c230 	.word	0x2400c230

2400acd4 <HAL_RCCEx_GetD3PCLK1Freq>:
2400acd4:	b508      	push	{r3, lr}
2400acd6:	f7ff f893 	bl	24009e00 <HAL_RCC_GetHCLKFreq>
2400acda:	4b05      	ldr	r3, [pc, #20]	; (2400acf0 <HAL_RCCEx_GetD3PCLK1Freq+0x1c>)
2400acdc:	4a05      	ldr	r2, [pc, #20]	; (2400acf4 <HAL_RCCEx_GetD3PCLK1Freq+0x20>)
2400acde:	6a1b      	ldr	r3, [r3, #32]
2400ace0:	f3c3 1302 	ubfx	r3, r3, #4, #3
2400ace4:	5cd3      	ldrb	r3, [r2, r3]
2400ace6:	f003 031f 	and.w	r3, r3, #31
2400acea:	40d8      	lsrs	r0, r3
2400acec:	bd08      	pop	{r3, pc}
2400acee:	bf00      	nop
2400acf0:	58024400 	.word	0x58024400
2400acf4:	2400c230 	.word	0x2400c230

2400acf8 <HAL_RCCEx_GetPLL2ClockFreq>:
2400acf8:	4a4e      	ldr	r2, [pc, #312]	; (2400ae34 <HAL_RCCEx_GetPLL2ClockFreq+0x13c>)
2400acfa:	b570      	push	{r4, r5, r6, lr}
2400acfc:	6a94      	ldr	r4, [r2, #40]	; 0x28
2400acfe:	6a96      	ldr	r6, [r2, #40]	; 0x28
2400ad00:	6ad5      	ldr	r5, [r2, #44]	; 0x2c
2400ad02:	f416 3f7c 	tst.w	r6, #258048	; 0x3f000
2400ad06:	f3c6 3105 	ubfx	r1, r6, #12, #6
2400ad0a:	6bd3      	ldr	r3, [r2, #60]	; 0x3c
2400ad0c:	f000 808d 	beq.w	2400ae2a <HAL_RCCEx_GetPLL2ClockFreq+0x132>
2400ad10:	ee07 1a90 	vmov	s15, r1
2400ad14:	f3c3 03cc 	ubfx	r3, r3, #3, #13
2400ad18:	f3c5 1100 	ubfx	r1, r5, #4, #1
2400ad1c:	f004 0403 	and.w	r4, r4, #3
2400ad20:	eef8 6ae7 	vcvt.f32.s32	s13, s15
2400ad24:	434b      	muls	r3, r1
2400ad26:	2c01      	cmp	r4, #1
2400ad28:	eeb7 6a00 	vmov.f32	s12, #112	; 0x3f800000  1.0
2400ad2c:	ee07 3a90 	vmov	s15, r3
2400ad30:	eefa 7ae9 	vcvt.f32.s32	s15, s15, #13
2400ad34:	d06b      	beq.n	2400ae0e <HAL_RCCEx_GetPLL2ClockFreq+0x116>
2400ad36:	2c02      	cmp	r4, #2
2400ad38:	d05b      	beq.n	2400adf2 <HAL_RCCEx_GetPLL2ClockFreq+0xfa>
2400ad3a:	2c00      	cmp	r4, #0
2400ad3c:	d167      	bne.n	2400ae0e <HAL_RCCEx_GetPLL2ClockFreq+0x116>
2400ad3e:	6813      	ldr	r3, [r2, #0]
2400ad40:	069b      	lsls	r3, r3, #26
2400ad42:	d546      	bpl.n	2400add2 <HAL_RCCEx_GetPLL2ClockFreq+0xda>
2400ad44:	6811      	ldr	r1, [r2, #0]
2400ad46:	6b93      	ldr	r3, [r2, #56]	; 0x38
2400ad48:	f3c1 01c1 	ubfx	r1, r1, #3, #2
2400ad4c:	4a3a      	ldr	r2, [pc, #232]	; (2400ae38 <HAL_RCCEx_GetPLL2ClockFreq+0x140>)
2400ad4e:	f3c3 0308 	ubfx	r3, r3, #0, #9
2400ad52:	40ca      	lsrs	r2, r1
2400ad54:	ee07 2a10 	vmov	s14, r2
2400ad58:	eef8 5ac7 	vcvt.f32.s32	s11, s14
2400ad5c:	ee85 7aa6 	vdiv.f32	s14, s11, s13
2400ad60:	ee06 3a90 	vmov	s13, r3
2400ad64:	eef8 6ae6 	vcvt.f32.s32	s13, s13
2400ad68:	ee76 7aa7 	vadd.f32	s15, s13, s15
2400ad6c:	ee77 7a86 	vadd.f32	s15, s15, s12
2400ad70:	4a30      	ldr	r2, [pc, #192]	; (2400ae34 <HAL_RCCEx_GetPLL2ClockFreq+0x13c>)
2400ad72:	ee67 7a87 	vmul.f32	s15, s15, s14
2400ad76:	6b93      	ldr	r3, [r2, #56]	; 0x38
2400ad78:	f3c3 2346 	ubfx	r3, r3, #9, #7
2400ad7c:	ee07 3a10 	vmov	s14, r3
2400ad80:	eeb8 7ac7 	vcvt.f32.s32	s14, s14
2400ad84:	ee37 7a06 	vadd.f32	s14, s14, s12
2400ad88:	eec7 6a87 	vdiv.f32	s13, s15, s14
2400ad8c:	eefc 6ae6 	vcvt.u32.f32	s13, s13
2400ad90:	edc0 6a00 	vstr	s13, [r0]
2400ad94:	6b93      	ldr	r3, [r2, #56]	; 0x38
2400ad96:	f3c3 4306 	ubfx	r3, r3, #16, #7
2400ad9a:	ee07 3a10 	vmov	s14, r3
2400ad9e:	eeb8 7ac7 	vcvt.f32.s32	s14, s14
2400ada2:	ee37 7a06 	vadd.f32	s14, s14, s12
2400ada6:	eec7 6a87 	vdiv.f32	s13, s15, s14
2400adaa:	eefc 6ae6 	vcvt.u32.f32	s13, s13
2400adae:	edc0 6a01 	vstr	s13, [r0, #4]
2400adb2:	6b93      	ldr	r3, [r2, #56]	; 0x38
2400adb4:	f3c3 6306 	ubfx	r3, r3, #24, #7
2400adb8:	ee07 3a10 	vmov	s14, r3
2400adbc:	eeb8 7ac7 	vcvt.f32.s32	s14, s14
2400adc0:	ee37 6a06 	vadd.f32	s12, s14, s12
2400adc4:	ee87 7a86 	vdiv.f32	s14, s15, s12
2400adc8:	eebc 7ac7 	vcvt.u32.f32	s14, s14
2400adcc:	ed80 7a02 	vstr	s14, [r0, #8]
2400add0:	bd70      	pop	{r4, r5, r6, pc}
2400add2:	6b93      	ldr	r3, [r2, #56]	; 0x38
2400add4:	eddf 5a19 	vldr	s11, [pc, #100]	; 2400ae3c <HAL_RCCEx_GetPLL2ClockFreq+0x144>
2400add8:	f3c3 0308 	ubfx	r3, r3, #0, #9
2400addc:	ee07 3a10 	vmov	s14, r3
2400ade0:	eeb8 7ac7 	vcvt.f32.s32	s14, s14
2400ade4:	ee77 7a27 	vadd.f32	s15, s14, s15
2400ade8:	ee77 7a86 	vadd.f32	s15, s15, s12
2400adec:	ee85 7aa6 	vdiv.f32	s14, s11, s13
2400adf0:	e7be      	b.n	2400ad70 <HAL_RCCEx_GetPLL2ClockFreq+0x78>
2400adf2:	6b93      	ldr	r3, [r2, #56]	; 0x38
2400adf4:	eddf 5a12 	vldr	s11, [pc, #72]	; 2400ae40 <HAL_RCCEx_GetPLL2ClockFreq+0x148>
2400adf8:	f3c3 0308 	ubfx	r3, r3, #0, #9
2400adfc:	ee07 3a10 	vmov	s14, r3
2400ae00:	eeb8 7ac7 	vcvt.f32.s32	s14, s14
2400ae04:	ee77 7a27 	vadd.f32	s15, s14, s15
2400ae08:	ee77 7a86 	vadd.f32	s15, s15, s12
2400ae0c:	e7ee      	b.n	2400adec <HAL_RCCEx_GetPLL2ClockFreq+0xf4>
2400ae0e:	6b93      	ldr	r3, [r2, #56]	; 0x38
2400ae10:	eddf 5a0c 	vldr	s11, [pc, #48]	; 2400ae44 <HAL_RCCEx_GetPLL2ClockFreq+0x14c>
2400ae14:	f3c3 0308 	ubfx	r3, r3, #0, #9
2400ae18:	ee07 3a10 	vmov	s14, r3
2400ae1c:	eeb8 7ac7 	vcvt.f32.s32	s14, s14
2400ae20:	ee77 7a27 	vadd.f32	s15, s14, s15
2400ae24:	ee77 7a86 	vadd.f32	s15, s15, s12
2400ae28:	e7e0      	b.n	2400adec <HAL_RCCEx_GetPLL2ClockFreq+0xf4>
2400ae2a:	e9c0 1100 	strd	r1, r1, [r0]
2400ae2e:	6081      	str	r1, [r0, #8]
2400ae30:	e7ce      	b.n	2400add0 <HAL_RCCEx_GetPLL2ClockFreq+0xd8>
2400ae32:	bf00      	nop
2400ae34:	58024400 	.word	0x58024400
2400ae38:	03d09000 	.word	0x03d09000
2400ae3c:	4c742400 	.word	0x4c742400
2400ae40:	4bbebc20 	.word	0x4bbebc20
2400ae44:	4a742400 	.word	0x4a742400

2400ae48 <HAL_RCCEx_GetPLL3ClockFreq>:
2400ae48:	4a4e      	ldr	r2, [pc, #312]	; (2400af84 <HAL_RCCEx_GetPLL3ClockFreq+0x13c>)
2400ae4a:	b570      	push	{r4, r5, r6, lr}
2400ae4c:	6a94      	ldr	r4, [r2, #40]	; 0x28
2400ae4e:	6a96      	ldr	r6, [r2, #40]	; 0x28
2400ae50:	6ad5      	ldr	r5, [r2, #44]	; 0x2c
2400ae52:	f016 7f7c 	tst.w	r6, #66060288	; 0x3f00000
2400ae56:	f3c6 5105 	ubfx	r1, r6, #20, #6
2400ae5a:	6c53      	ldr	r3, [r2, #68]	; 0x44
2400ae5c:	f000 808d 	beq.w	2400af7a <HAL_RCCEx_GetPLL3ClockFreq+0x132>
2400ae60:	ee07 1a90 	vmov	s15, r1
2400ae64:	f3c3 03cc 	ubfx	r3, r3, #3, #13
2400ae68:	f3c5 2100 	ubfx	r1, r5, #8, #1
2400ae6c:	f004 0403 	and.w	r4, r4, #3
2400ae70:	eef8 6ae7 	vcvt.f32.s32	s13, s15
2400ae74:	434b      	muls	r3, r1
2400ae76:	2c01      	cmp	r4, #1
2400ae78:	eeb7 6a00 	vmov.f32	s12, #112	; 0x3f800000  1.0
2400ae7c:	ee07 3a90 	vmov	s15, r3
2400ae80:	eefa 7ae9 	vcvt.f32.s32	s15, s15, #13
2400ae84:	d06b      	beq.n	2400af5e <HAL_RCCEx_GetPLL3ClockFreq+0x116>
2400ae86:	2c02      	cmp	r4, #2
2400ae88:	d05b      	beq.n	2400af42 <HAL_RCCEx_GetPLL3ClockFreq+0xfa>
2400ae8a:	2c00      	cmp	r4, #0
2400ae8c:	d167      	bne.n	2400af5e <HAL_RCCEx_GetPLL3ClockFreq+0x116>
2400ae8e:	6813      	ldr	r3, [r2, #0]
2400ae90:	069b      	lsls	r3, r3, #26
2400ae92:	d546      	bpl.n	2400af22 <HAL_RCCEx_GetPLL3ClockFreq+0xda>
2400ae94:	6811      	ldr	r1, [r2, #0]
2400ae96:	6c13      	ldr	r3, [r2, #64]	; 0x40
2400ae98:	f3c1 01c1 	ubfx	r1, r1, #3, #2
2400ae9c:	4a3a      	ldr	r2, [pc, #232]	; (2400af88 <HAL_RCCEx_GetPLL3ClockFreq+0x140>)
2400ae9e:	f3c3 0308 	ubfx	r3, r3, #0, #9
2400aea2:	40ca      	lsrs	r2, r1
2400aea4:	ee07 2a10 	vmov	s14, r2
2400aea8:	eef8 5ac7 	vcvt.f32.s32	s11, s14
2400aeac:	ee85 7aa6 	vdiv.f32	s14, s11, s13
2400aeb0:	ee06 3a90 	vmov	s13, r3
2400aeb4:	eef8 6ae6 	vcvt.f32.s32	s13, s13
2400aeb8:	ee76 7aa7 	vadd.f32	s15, s13, s15
2400aebc:	ee77 7a86 	vadd.f32	s15, s15, s12
2400aec0:	4a30      	ldr	r2, [pc, #192]	; (2400af84 <HAL_RCCEx_GetPLL3ClockFreq+0x13c>)
2400aec2:	ee67 7a87 	vmul.f32	s15, s15, s14
2400aec6:	6c13      	ldr	r3, [r2, #64]	; 0x40
2400aec8:	f3c3 2346 	ubfx	r3, r3, #9, #7
2400aecc:	ee07 3a10 	vmov	s14, r3
2400aed0:	eeb8 7ac7 	vcvt.f32.s32	s14, s14
2400aed4:	ee37 7a06 	vadd.f32	s14, s14, s12
2400aed8:	eec7 6a87 	vdiv.f32	s13, s15, s14
2400aedc:	eefc 6ae6 	vcvt.u32.f32	s13, s13
2400aee0:	edc0 6a00 	vstr	s13, [r0]
2400aee4:	6c13      	ldr	r3, [r2, #64]	; 0x40
2400aee6:	f3c3 4306 	ubfx	r3, r3, #16, #7
2400aeea:	ee07 3a10 	vmov	s14, r3
2400aeee:	eeb8 7ac7 	vcvt.f32.s32	s14, s14
2400aef2:	ee37 7a06 	vadd.f32	s14, s14, s12
2400aef6:	eec7 6a87 	vdiv.f32	s13, s15, s14
2400aefa:	eefc 6ae6 	vcvt.u32.f32	s13, s13
2400aefe:	edc0 6a01 	vstr	s13, [r0, #4]
2400af02:	6c13      	ldr	r3, [r2, #64]	; 0x40
2400af04:	f3c3 6306 	ubfx	r3, r3, #24, #7
2400af08:	ee07 3a10 	vmov	s14, r3
2400af0c:	eeb8 7ac7 	vcvt.f32.s32	s14, s14
2400af10:	ee37 6a06 	vadd.f32	s12, s14, s12
2400af14:	ee87 7a86 	vdiv.f32	s14, s15, s12
2400af18:	eebc 7ac7 	vcvt.u32.f32	s14, s14
2400af1c:	ed80 7a02 	vstr	s14, [r0, #8]
2400af20:	bd70      	pop	{r4, r5, r6, pc}
2400af22:	6c13      	ldr	r3, [r2, #64]	; 0x40
2400af24:	eddf 5a19 	vldr	s11, [pc, #100]	; 2400af8c <HAL_RCCEx_GetPLL3ClockFreq+0x144>
2400af28:	f3c3 0308 	ubfx	r3, r3, #0, #9
2400af2c:	ee07 3a10 	vmov	s14, r3
2400af30:	eeb8 7ac7 	vcvt.f32.s32	s14, s14
2400af34:	ee77 7a27 	vadd.f32	s15, s14, s15
2400af38:	ee77 7a86 	vadd.f32	s15, s15, s12
2400af3c:	ee85 7aa6 	vdiv.f32	s14, s11, s13
2400af40:	e7be      	b.n	2400aec0 <HAL_RCCEx_GetPLL3ClockFreq+0x78>
2400af42:	6c13      	ldr	r3, [r2, #64]	; 0x40
2400af44:	eddf 5a12 	vldr	s11, [pc, #72]	; 2400af90 <HAL_RCCEx_GetPLL3ClockFreq+0x148>
2400af48:	f3c3 0308 	ubfx	r3, r3, #0, #9
2400af4c:	ee07 3a10 	vmov	s14, r3
2400af50:	eeb8 7ac7 	vcvt.f32.s32	s14, s14
2400af54:	ee77 7a27 	vadd.f32	s15, s14, s15
2400af58:	ee77 7a86 	vadd.f32	s15, s15, s12
2400af5c:	e7ee      	b.n	2400af3c <HAL_RCCEx_GetPLL3ClockFreq+0xf4>
2400af5e:	6c13      	ldr	r3, [r2, #64]	; 0x40
2400af60:	eddf 5a0c 	vldr	s11, [pc, #48]	; 2400af94 <HAL_RCCEx_GetPLL3ClockFreq+0x14c>
2400af64:	f3c3 0308 	ubfx	r3, r3, #0, #9
2400af68:	ee07 3a10 	vmov	s14, r3
2400af6c:	eeb8 7ac7 	vcvt.f32.s32	s14, s14
2400af70:	ee77 7a27 	vadd.f32	s15, s14, s15
2400af74:	ee77 7a86 	vadd.f32	s15, s15, s12
2400af78:	e7e0      	b.n	2400af3c <HAL_RCCEx_GetPLL3ClockFreq+0xf4>
2400af7a:	e9c0 1100 	strd	r1, r1, [r0]
2400af7e:	6081      	str	r1, [r0, #8]
2400af80:	e7ce      	b.n	2400af20 <HAL_RCCEx_GetPLL3ClockFreq+0xd8>
2400af82:	bf00      	nop
2400af84:	58024400 	.word	0x58024400
2400af88:	03d09000 	.word	0x03d09000
2400af8c:	4c742400 	.word	0x4c742400
2400af90:	4bbebc20 	.word	0x4bbebc20
2400af94:	4a742400 	.word	0x4a742400

2400af98 <HAL_RCCEx_GetPLL1ClockFreq>:
2400af98:	4a4e      	ldr	r2, [pc, #312]	; (2400b0d4 <HAL_RCCEx_GetPLL1ClockFreq+0x13c>)
2400af9a:	b570      	push	{r4, r5, r6, lr}
2400af9c:	6a94      	ldr	r4, [r2, #40]	; 0x28
2400af9e:	6a96      	ldr	r6, [r2, #40]	; 0x28
2400afa0:	6ad5      	ldr	r5, [r2, #44]	; 0x2c
2400afa2:	f416 7f7c 	tst.w	r6, #1008	; 0x3f0
2400afa6:	f3c6 1105 	ubfx	r1, r6, #4, #6
2400afaa:	6b53      	ldr	r3, [r2, #52]	; 0x34
2400afac:	f000 808d 	beq.w	2400b0ca <HAL_RCCEx_GetPLL1ClockFreq+0x132>
2400afb0:	ee07 1a90 	vmov	s15, r1
2400afb4:	f3c3 03cc 	ubfx	r3, r3, #3, #13
2400afb8:	f005 0101 	and.w	r1, r5, #1
2400afbc:	f004 0403 	and.w	r4, r4, #3
2400afc0:	eef8 6ae7 	vcvt.f32.s32	s13, s15
2400afc4:	434b      	muls	r3, r1
2400afc6:	2c01      	cmp	r4, #1
2400afc8:	eeb7 6a00 	vmov.f32	s12, #112	; 0x3f800000  1.0
2400afcc:	ee07 3a90 	vmov	s15, r3
2400afd0:	eefa 7ae9 	vcvt.f32.s32	s15, s15, #13
2400afd4:	d06b      	beq.n	2400b0ae <HAL_RCCEx_GetPLL1ClockFreq+0x116>
2400afd6:	2c02      	cmp	r4, #2
2400afd8:	d05b      	beq.n	2400b092 <HAL_RCCEx_GetPLL1ClockFreq+0xfa>
2400afda:	2c00      	cmp	r4, #0
2400afdc:	d167      	bne.n	2400b0ae <HAL_RCCEx_GetPLL1ClockFreq+0x116>
2400afde:	6813      	ldr	r3, [r2, #0]
2400afe0:	069b      	lsls	r3, r3, #26
2400afe2:	d546      	bpl.n	2400b072 <HAL_RCCEx_GetPLL1ClockFreq+0xda>
2400afe4:	6811      	ldr	r1, [r2, #0]
2400afe6:	6b13      	ldr	r3, [r2, #48]	; 0x30
2400afe8:	f3c1 01c1 	ubfx	r1, r1, #3, #2
2400afec:	4a3a      	ldr	r2, [pc, #232]	; (2400b0d8 <HAL_RCCEx_GetPLL1ClockFreq+0x140>)
2400afee:	f3c3 0308 	ubfx	r3, r3, #0, #9
2400aff2:	40ca      	lsrs	r2, r1
2400aff4:	ee07 2a10 	vmov	s14, r2
2400aff8:	eef8 5ac7 	vcvt.f32.s32	s11, s14
2400affc:	ee85 7aa6 	vdiv.f32	s14, s11, s13
2400b000:	ee06 3a90 	vmov	s13, r3
2400b004:	eef8 6ae6 	vcvt.f32.s32	s13, s13
2400b008:	ee76 7aa7 	vadd.f32	s15, s13, s15
2400b00c:	ee77 7a86 	vadd.f32	s15, s15, s12
2400b010:	4a30      	ldr	r2, [pc, #192]	; (2400b0d4 <HAL_RCCEx_GetPLL1ClockFreq+0x13c>)
2400b012:	ee67 7a87 	vmul.f32	s15, s15, s14
2400b016:	6b13      	ldr	r3, [r2, #48]	; 0x30
2400b018:	f3c3 2346 	ubfx	r3, r3, #9, #7
2400b01c:	ee07 3a10 	vmov	s14, r3
2400b020:	eeb8 7ac7 	vcvt.f32.s32	s14, s14
2400b024:	ee37 7a06 	vadd.f32	s14, s14, s12
2400b028:	eec7 6a87 	vdiv.f32	s13, s15, s14
2400b02c:	eefc 6ae6 	vcvt.u32.f32	s13, s13
2400b030:	edc0 6a00 	vstr	s13, [r0]
2400b034:	6b13      	ldr	r3, [r2, #48]	; 0x30
2400b036:	f3c3 4306 	ubfx	r3, r3, #16, #7
2400b03a:	ee07 3a10 	vmov	s14, r3
2400b03e:	eeb8 7ac7 	vcvt.f32.s32	s14, s14
2400b042:	ee37 7a06 	vadd.f32	s14, s14, s12
2400b046:	eec7 6a87 	vdiv.f32	s13, s15, s14
2400b04a:	eefc 6ae6 	vcvt.u32.f32	s13, s13
2400b04e:	edc0 6a01 	vstr	s13, [r0, #4]
2400b052:	6b13      	ldr	r3, [r2, #48]	; 0x30
2400b054:	f3c3 6306 	ubfx	r3, r3, #24, #7
2400b058:	ee07 3a10 	vmov	s14, r3
2400b05c:	eeb8 7ac7 	vcvt.f32.s32	s14, s14
2400b060:	ee37 6a06 	vadd.f32	s12, s14, s12
2400b064:	ee87 7a86 	vdiv.f32	s14, s15, s12
2400b068:	eebc 7ac7 	vcvt.u32.f32	s14, s14
2400b06c:	ed80 7a02 	vstr	s14, [r0, #8]
2400b070:	bd70      	pop	{r4, r5, r6, pc}
2400b072:	6b13      	ldr	r3, [r2, #48]	; 0x30
2400b074:	eddf 5a19 	vldr	s11, [pc, #100]	; 2400b0dc <HAL_RCCEx_GetPLL1ClockFreq+0x144>
2400b078:	f3c3 0308 	ubfx	r3, r3, #0, #9
2400b07c:	ee07 3a10 	vmov	s14, r3
2400b080:	eeb8 7ac7 	vcvt.f32.s32	s14, s14
2400b084:	ee77 7a27 	vadd.f32	s15, s14, s15
2400b088:	ee77 7a86 	vadd.f32	s15, s15, s12
2400b08c:	ee85 7aa6 	vdiv.f32	s14, s11, s13
2400b090:	e7be      	b.n	2400b010 <HAL_RCCEx_GetPLL1ClockFreq+0x78>
2400b092:	6b13      	ldr	r3, [r2, #48]	; 0x30
2400b094:	eddf 5a12 	vldr	s11, [pc, #72]	; 2400b0e0 <HAL_RCCEx_GetPLL1ClockFreq+0x148>
2400b098:	f3c3 0308 	ubfx	r3, r3, #0, #9
2400b09c:	ee07 3a10 	vmov	s14, r3
2400b0a0:	eeb8 7ac7 	vcvt.f32.s32	s14, s14
2400b0a4:	ee77 7a27 	vadd.f32	s15, s14, s15
2400b0a8:	ee77 7a86 	vadd.f32	s15, s15, s12
2400b0ac:	e7ee      	b.n	2400b08c <HAL_RCCEx_GetPLL1ClockFreq+0xf4>
2400b0ae:	6b13      	ldr	r3, [r2, #48]	; 0x30
2400b0b0:	eddf 5a0c 	vldr	s11, [pc, #48]	; 2400b0e4 <HAL_RCCEx_GetPLL1ClockFreq+0x14c>
2400b0b4:	f3c3 0308 	ubfx	r3, r3, #0, #9
2400b0b8:	ee07 3a10 	vmov	s14, r3
2400b0bc:	eeb8 7ac7 	vcvt.f32.s32	s14, s14
2400b0c0:	ee77 7a27 	vadd.f32	s15, s14, s15
2400b0c4:	ee77 7a86 	vadd.f32	s15, s15, s12
2400b0c8:	e7e0      	b.n	2400b08c <HAL_RCCEx_GetPLL1ClockFreq+0xf4>
2400b0ca:	e9c0 1100 	strd	r1, r1, [r0]
2400b0ce:	6081      	str	r1, [r0, #8]
2400b0d0:	e7ce      	b.n	2400b070 <HAL_RCCEx_GetPLL1ClockFreq+0xd8>
2400b0d2:	bf00      	nop
2400b0d4:	58024400 	.word	0x58024400
2400b0d8:	03d09000 	.word	0x03d09000
2400b0dc:	4c742400 	.word	0x4c742400
2400b0e0:	4bbebc20 	.word	0x4bbebc20
2400b0e4:	4a742400 	.word	0x4a742400

2400b0e8 <HAL_RCCEx_GetPeriphCLKFreq>:
2400b0e8:	f5b0 7f80 	cmp.w	r0, #256	; 0x100
2400b0ec:	b51f      	push	{r0, r1, r2, r3, r4, lr}
2400b0ee:	d113      	bne.n	2400b118 <HAL_RCCEx_GetPeriphCLKFreq+0x30>
2400b0f0:	4a67      	ldr	r2, [pc, #412]	; (2400b290 <HAL_RCCEx_GetPeriphCLKFreq+0x1a8>)
2400b0f2:	6d13      	ldr	r3, [r2, #80]	; 0x50
2400b0f4:	f003 0307 	and.w	r3, r3, #7
2400b0f8:	2b04      	cmp	r3, #4
2400b0fa:	d81b      	bhi.n	2400b134 <HAL_RCCEx_GetPeriphCLKFreq+0x4c>
2400b0fc:	e8df f003 	tbb	[pc, r3]
2400b100:	c2088203 	.word	0xc2088203
2400b104:	22          	.byte	0x22
2400b105:	00          	.byte	0x00
2400b106:	a801      	add	r0, sp, #4
2400b108:	f7ff ff46 	bl	2400af98 <HAL_RCCEx_GetPLL1ClockFreq>
2400b10c:	9802      	ldr	r0, [sp, #8]
2400b10e:	e07d      	b.n	2400b20c <HAL_RCCEx_GetPeriphCLKFreq+0x124>
2400b110:	a801      	add	r0, sp, #4
2400b112:	f7ff fe99 	bl	2400ae48 <HAL_RCCEx_GetPLL3ClockFreq>
2400b116:	e078      	b.n	2400b20a <HAL_RCCEx_GetPeriphCLKFreq+0x122>
2400b118:	f5b0 7f00 	cmp.w	r0, #512	; 0x200
2400b11c:	d121      	bne.n	2400b162 <HAL_RCCEx_GetPeriphCLKFreq+0x7a>
2400b11e:	4a5c      	ldr	r2, [pc, #368]	; (2400b290 <HAL_RCCEx_GetPeriphCLKFreq+0x1a8>)
2400b120:	6d13      	ldr	r3, [r2, #80]	; 0x50
2400b122:	f403 73e0 	and.w	r3, r3, #448	; 0x1c0
2400b126:	2b80      	cmp	r3, #128	; 0x80
2400b128:	d0f2      	beq.n	2400b110 <HAL_RCCEx_GetPeriphCLKFreq+0x28>
2400b12a:	d805      	bhi.n	2400b138 <HAL_RCCEx_GetPeriphCLKFreq+0x50>
2400b12c:	2b00      	cmp	r3, #0
2400b12e:	d0ea      	beq.n	2400b106 <HAL_RCCEx_GetPeriphCLKFreq+0x1e>
2400b130:	2b40      	cmp	r3, #64	; 0x40
2400b132:	d067      	beq.n	2400b204 <HAL_RCCEx_GetPeriphCLKFreq+0x11c>
2400b134:	2000      	movs	r0, #0
2400b136:	e069      	b.n	2400b20c <HAL_RCCEx_GetPeriphCLKFreq+0x124>
2400b138:	2bc0      	cmp	r3, #192	; 0xc0
2400b13a:	f000 80a3 	beq.w	2400b284 <HAL_RCCEx_GetPeriphCLKFreq+0x19c>
2400b13e:	f5b3 7f80 	cmp.w	r3, #256	; 0x100
2400b142:	d1f7      	bne.n	2400b134 <HAL_RCCEx_GetPeriphCLKFreq+0x4c>
2400b144:	6cd3      	ldr	r3, [r2, #76]	; 0x4c
2400b146:	f013 5340 	ands.w	r3, r3, #805306368	; 0x30000000
2400b14a:	f000 809d 	beq.w	2400b288 <HAL_RCCEx_GetPeriphCLKFreq+0x1a0>
2400b14e:	f1b3 5f80 	cmp.w	r3, #268435456	; 0x10000000
2400b152:	f000 809b 	beq.w	2400b28c <HAL_RCCEx_GetPeriphCLKFreq+0x1a4>
2400b156:	f1b3 5f00 	cmp.w	r3, #536870912	; 0x20000000
2400b15a:	484e      	ldr	r0, [pc, #312]	; (2400b294 <HAL_RCCEx_GetPeriphCLKFreq+0x1ac>)
2400b15c:	bf18      	it	ne
2400b15e:	2000      	movne	r0, #0
2400b160:	e054      	b.n	2400b20c <HAL_RCCEx_GetPeriphCLKFreq+0x124>
2400b162:	f5b0 6f80 	cmp.w	r0, #1024	; 0x400
2400b166:	d112      	bne.n	2400b18e <HAL_RCCEx_GetPeriphCLKFreq+0xa6>
2400b168:	4a49      	ldr	r2, [pc, #292]	; (2400b290 <HAL_RCCEx_GetPeriphCLKFreq+0x1a8>)
2400b16a:	6d93      	ldr	r3, [r2, #88]	; 0x58
2400b16c:	f403 0360 	and.w	r3, r3, #14680064	; 0xe00000
2400b170:	f5b3 0f80 	cmp.w	r3, #4194304	; 0x400000
2400b174:	d0cc      	beq.n	2400b110 <HAL_RCCEx_GetPeriphCLKFreq+0x28>
2400b176:	d804      	bhi.n	2400b182 <HAL_RCCEx_GetPeriphCLKFreq+0x9a>
2400b178:	2b00      	cmp	r3, #0
2400b17a:	d0c4      	beq.n	2400b106 <HAL_RCCEx_GetPeriphCLKFreq+0x1e>
2400b17c:	f5b3 1f00 	cmp.w	r3, #2097152	; 0x200000
2400b180:	e7d7      	b.n	2400b132 <HAL_RCCEx_GetPeriphCLKFreq+0x4a>
2400b182:	f5b3 0fc0 	cmp.w	r3, #6291456	; 0x600000
2400b186:	d07d      	beq.n	2400b284 <HAL_RCCEx_GetPeriphCLKFreq+0x19c>
2400b188:	f5b3 0f00 	cmp.w	r3, #8388608	; 0x800000
2400b18c:	e7d9      	b.n	2400b142 <HAL_RCCEx_GetPeriphCLKFreq+0x5a>
2400b18e:	f5b0 6f00 	cmp.w	r0, #2048	; 0x800
2400b192:	d112      	bne.n	2400b1ba <HAL_RCCEx_GetPeriphCLKFreq+0xd2>
2400b194:	4a3e      	ldr	r2, [pc, #248]	; (2400b290 <HAL_RCCEx_GetPeriphCLKFreq+0x1a8>)
2400b196:	6d93      	ldr	r3, [r2, #88]	; 0x58
2400b198:	f003 63e0 	and.w	r3, r3, #117440512	; 0x7000000
2400b19c:	f1b3 7f00 	cmp.w	r3, #33554432	; 0x2000000
2400b1a0:	d0b6      	beq.n	2400b110 <HAL_RCCEx_GetPeriphCLKFreq+0x28>
2400b1a2:	d804      	bhi.n	2400b1ae <HAL_RCCEx_GetPeriphCLKFreq+0xc6>
2400b1a4:	2b00      	cmp	r3, #0
2400b1a6:	d0ae      	beq.n	2400b106 <HAL_RCCEx_GetPeriphCLKFreq+0x1e>
2400b1a8:	f1b3 7f80 	cmp.w	r3, #16777216	; 0x1000000
2400b1ac:	e7c1      	b.n	2400b132 <HAL_RCCEx_GetPeriphCLKFreq+0x4a>
2400b1ae:	f1b3 7f40 	cmp.w	r3, #50331648	; 0x3000000
2400b1b2:	d067      	beq.n	2400b284 <HAL_RCCEx_GetPeriphCLKFreq+0x19c>
2400b1b4:	f1b3 6f80 	cmp.w	r3, #67108864	; 0x4000000
2400b1b8:	e7c3      	b.n	2400b142 <HAL_RCCEx_GetPeriphCLKFreq+0x5a>
2400b1ba:	f5b0 5f80 	cmp.w	r0, #4096	; 0x1000
2400b1be:	d112      	bne.n	2400b1e6 <HAL_RCCEx_GetPeriphCLKFreq+0xfe>
2400b1c0:	4a33      	ldr	r2, [pc, #204]	; (2400b290 <HAL_RCCEx_GetPeriphCLKFreq+0x1a8>)
2400b1c2:	6d13      	ldr	r3, [r2, #80]	; 0x50
2400b1c4:	f403 43e0 	and.w	r3, r3, #28672	; 0x7000
2400b1c8:	f5b3 5f00 	cmp.w	r3, #8192	; 0x2000
2400b1cc:	d0a0      	beq.n	2400b110 <HAL_RCCEx_GetPeriphCLKFreq+0x28>
2400b1ce:	d804      	bhi.n	2400b1da <HAL_RCCEx_GetPeriphCLKFreq+0xf2>
2400b1d0:	2b00      	cmp	r3, #0
2400b1d2:	d098      	beq.n	2400b106 <HAL_RCCEx_GetPeriphCLKFreq+0x1e>
2400b1d4:	f5b3 5f80 	cmp.w	r3, #4096	; 0x1000
2400b1d8:	e7ab      	b.n	2400b132 <HAL_RCCEx_GetPeriphCLKFreq+0x4a>
2400b1da:	f5b3 5f40 	cmp.w	r3, #12288	; 0x3000
2400b1de:	d051      	beq.n	2400b284 <HAL_RCCEx_GetPeriphCLKFreq+0x19c>
2400b1e0:	f5b3 4f80 	cmp.w	r3, #16384	; 0x4000
2400b1e4:	e7ad      	b.n	2400b142 <HAL_RCCEx_GetPeriphCLKFreq+0x5a>
2400b1e6:	f5b0 2f00 	cmp.w	r0, #524288	; 0x80000
2400b1ea:	d117      	bne.n	2400b21c <HAL_RCCEx_GetPeriphCLKFreq+0x134>
2400b1ec:	4a28      	ldr	r2, [pc, #160]	; (2400b290 <HAL_RCCEx_GetPeriphCLKFreq+0x1a8>)
2400b1ee:	6d93      	ldr	r3, [r2, #88]	; 0x58
2400b1f0:	f403 3340 	and.w	r3, r3, #196608	; 0x30000
2400b1f4:	f5b3 3f80 	cmp.w	r3, #65536	; 0x10000
2400b1f8:	d00b      	beq.n	2400b212 <HAL_RCCEx_GetPeriphCLKFreq+0x12a>
2400b1fa:	f5b3 3f00 	cmp.w	r3, #131072	; 0x20000
2400b1fe:	d0a1      	beq.n	2400b144 <HAL_RCCEx_GetPeriphCLKFreq+0x5c>
2400b200:	2b00      	cmp	r3, #0
2400b202:	d197      	bne.n	2400b134 <HAL_RCCEx_GetPeriphCLKFreq+0x4c>
2400b204:	a801      	add	r0, sp, #4
2400b206:	f7ff fd77 	bl	2400acf8 <HAL_RCCEx_GetPLL2ClockFreq>
2400b20a:	9801      	ldr	r0, [sp, #4]
2400b20c:	b005      	add	sp, #20
2400b20e:	f85d fb04 	ldr.w	pc, [sp], #4
2400b212:	a801      	add	r0, sp, #4
2400b214:	f7ff fe18 	bl	2400ae48 <HAL_RCCEx_GetPLL3ClockFreq>
2400b218:	9803      	ldr	r0, [sp, #12]
2400b21a:	e7f7      	b.n	2400b20c <HAL_RCCEx_GetPeriphCLKFreq+0x124>
2400b21c:	f5b0 3f80 	cmp.w	r0, #65536	; 0x10000
2400b220:	d108      	bne.n	2400b234 <HAL_RCCEx_GetPeriphCLKFreq+0x14c>
2400b222:	4b1b      	ldr	r3, [pc, #108]	; (2400b290 <HAL_RCCEx_GetPeriphCLKFreq+0x1a8>)
2400b224:	6cdb      	ldr	r3, [r3, #76]	; 0x4c
2400b226:	03db      	lsls	r3, r3, #15
2400b228:	f57f af6d 	bpl.w	2400b106 <HAL_RCCEx_GetPeriphCLKFreq+0x1e>
2400b22c:	a801      	add	r0, sp, #4
2400b22e:	f7ff fd63 	bl	2400acf8 <HAL_RCCEx_GetPLL2ClockFreq>
2400b232:	e7f1      	b.n	2400b218 <HAL_RCCEx_GetPeriphCLKFreq+0x130>
2400b234:	f5b0 4f80 	cmp.w	r0, #16384	; 0x4000
2400b238:	f47f af7c 	bne.w	2400b134 <HAL_RCCEx_GetPeriphCLKFreq+0x4c>
2400b23c:	4b14      	ldr	r3, [pc, #80]	; (2400b290 <HAL_RCCEx_GetPeriphCLKFreq+0x1a8>)
2400b23e:	6d9b      	ldr	r3, [r3, #88]	; 0x58
2400b240:	f003 43e0 	and.w	r3, r3, #1879048192	; 0x70000000
2400b244:	f1b3 5f40 	cmp.w	r3, #805306368	; 0x30000000
2400b248:	d01e      	beq.n	2400b288 <HAL_RCCEx_GetPeriphCLKFreq+0x1a0>
2400b24a:	d80d      	bhi.n	2400b268 <HAL_RCCEx_GetPeriphCLKFreq+0x180>
2400b24c:	f1b3 5f80 	cmp.w	r3, #268435456	; 0x10000000
2400b250:	d010      	beq.n	2400b274 <HAL_RCCEx_GetPeriphCLKFreq+0x18c>
2400b252:	f1b3 5f00 	cmp.w	r3, #536870912	; 0x20000000
2400b256:	d011      	beq.n	2400b27c <HAL_RCCEx_GetPeriphCLKFreq+0x194>
2400b258:	2b00      	cmp	r3, #0
2400b25a:	f47f af6b 	bne.w	2400b134 <HAL_RCCEx_GetPeriphCLKFreq+0x4c>
2400b25e:	b005      	add	sp, #20
2400b260:	f85d eb04 	ldr.w	lr, [sp], #4
2400b264:	f7ff bd36 	b.w	2400acd4 <HAL_RCCEx_GetD3PCLK1Freq>
2400b268:	f1b3 4f80 	cmp.w	r3, #1073741824	; 0x40000000
2400b26c:	d00e      	beq.n	2400b28c <HAL_RCCEx_GetPeriphCLKFreq+0x1a4>
2400b26e:	f1b3 4fa0 	cmp.w	r3, #1342177280	; 0x50000000
2400b272:	e772      	b.n	2400b15a <HAL_RCCEx_GetPeriphCLKFreq+0x72>
2400b274:	a801      	add	r0, sp, #4
2400b276:	f7ff fd3f 	bl	2400acf8 <HAL_RCCEx_GetPLL2ClockFreq>
2400b27a:	e747      	b.n	2400b10c <HAL_RCCEx_GetPeriphCLKFreq+0x24>
2400b27c:	a801      	add	r0, sp, #4
2400b27e:	f7ff fde3 	bl	2400ae48 <HAL_RCCEx_GetPLL3ClockFreq>
2400b282:	e743      	b.n	2400b10c <HAL_RCCEx_GetPeriphCLKFreq+0x24>
2400b284:	4804      	ldr	r0, [pc, #16]	; (2400b298 <HAL_RCCEx_GetPeriphCLKFreq+0x1b0>)
2400b286:	e7c1      	b.n	2400b20c <HAL_RCCEx_GetPeriphCLKFreq+0x124>
2400b288:	4804      	ldr	r0, [pc, #16]	; (2400b29c <HAL_RCCEx_GetPeriphCLKFreq+0x1b4>)
2400b28a:	e7bf      	b.n	2400b20c <HAL_RCCEx_GetPeriphCLKFreq+0x124>
2400b28c:	4804      	ldr	r0, [pc, #16]	; (2400b2a0 <HAL_RCCEx_GetPeriphCLKFreq+0x1b8>)
2400b28e:	e7bd      	b.n	2400b20c <HAL_RCCEx_GetPeriphCLKFreq+0x124>
2400b290:	58024400 	.word	0x58024400
2400b294:	017d7840 	.word	0x017d7840
2400b298:	00bb8000 	.word	0x00bb8000
2400b29c:	03d09000 	.word	0x03d09000
2400b2a0:	003d0900 	.word	0x003d0900

2400b2a4 <HAL_RCCEx_GetD1SysClockFreq>:
2400b2a4:	b508      	push	{r3, lr}
2400b2a6:	f7fe fbe5 	bl	24009a74 <HAL_RCC_GetSysClockFreq>
2400b2aa:	490b      	ldr	r1, [pc, #44]	; (2400b2d8 <HAL_RCCEx_GetD1SysClockFreq+0x34>)
2400b2ac:	4a0b      	ldr	r2, [pc, #44]	; (2400b2dc <HAL_RCCEx_GetD1SysClockFreq+0x38>)
2400b2ae:	698b      	ldr	r3, [r1, #24]
2400b2b0:	f3c3 2303 	ubfx	r3, r3, #8, #4
2400b2b4:	5cd3      	ldrb	r3, [r2, r3]
2400b2b6:	f003 031f 	and.w	r3, r3, #31
2400b2ba:	40d8      	lsrs	r0, r3
2400b2bc:	698b      	ldr	r3, [r1, #24]
2400b2be:	f003 030f 	and.w	r3, r3, #15
2400b2c2:	5cd3      	ldrb	r3, [r2, r3]
2400b2c4:	4a06      	ldr	r2, [pc, #24]	; (2400b2e0 <HAL_RCCEx_GetD1SysClockFreq+0x3c>)
2400b2c6:	f003 031f 	and.w	r3, r3, #31
2400b2ca:	fa20 f303 	lsr.w	r3, r0, r3
2400b2ce:	6013      	str	r3, [r2, #0]
2400b2d0:	4b04      	ldr	r3, [pc, #16]	; (2400b2e4 <HAL_RCCEx_GetD1SysClockFreq+0x40>)
2400b2d2:	6018      	str	r0, [r3, #0]
2400b2d4:	bd08      	pop	{r3, pc}
2400b2d6:	bf00      	nop
2400b2d8:	58024400 	.word	0x58024400
2400b2dc:	2400c230 	.word	0x2400c230
2400b2e0:	240004bc 	.word	0x240004bc
2400b2e4:	240004b8 	.word	0x240004b8

2400b2e8 <HAL_RCCEx_EnableLSECSS>:
2400b2e8:	4a02      	ldr	r2, [pc, #8]	; (2400b2f4 <HAL_RCCEx_EnableLSECSS+0xc>)
2400b2ea:	6f13      	ldr	r3, [r2, #112]	; 0x70
2400b2ec:	f043 0320 	orr.w	r3, r3, #32
2400b2f0:	6713      	str	r3, [r2, #112]	; 0x70
2400b2f2:	4770      	bx	lr
2400b2f4:	58024400 	.word	0x58024400

2400b2f8 <HAL_RCCEx_DisableLSECSS>:
2400b2f8:	4b04      	ldr	r3, [pc, #16]	; (2400b30c <HAL_RCCEx_DisableLSECSS+0x14>)
2400b2fa:	6f1a      	ldr	r2, [r3, #112]	; 0x70
2400b2fc:	f022 0220 	bic.w	r2, r2, #32
2400b300:	671a      	str	r2, [r3, #112]	; 0x70
2400b302:	6e1a      	ldr	r2, [r3, #96]	; 0x60
2400b304:	f422 7200 	bic.w	r2, r2, #512	; 0x200
2400b308:	661a      	str	r2, [r3, #96]	; 0x60
2400b30a:	4770      	bx	lr
2400b30c:	58024400 	.word	0x58024400

2400b310 <HAL_RCCEx_EnableLSECSS_IT>:
2400b310:	4b0a      	ldr	r3, [pc, #40]	; (2400b33c <HAL_RCCEx_EnableLSECSS_IT+0x2c>)
2400b312:	6f1a      	ldr	r2, [r3, #112]	; 0x70
2400b314:	f042 0220 	orr.w	r2, r2, #32
2400b318:	671a      	str	r2, [r3, #112]	; 0x70
2400b31a:	6e1a      	ldr	r2, [r3, #96]	; 0x60
2400b31c:	f442 7200 	orr.w	r2, r2, #512	; 0x200
2400b320:	661a      	str	r2, [r3, #96]	; 0x60
2400b322:	f04f 43b0 	mov.w	r3, #1476395008	; 0x58000000
2400b326:	f8d3 2080 	ldr.w	r2, [r3, #128]	; 0x80
2400b32a:	f442 2280 	orr.w	r2, r2, #262144	; 0x40000
2400b32e:	f8c3 2080 	str.w	r2, [r3, #128]	; 0x80
2400b332:	681a      	ldr	r2, [r3, #0]
2400b334:	f442 2280 	orr.w	r2, r2, #262144	; 0x40000
2400b338:	601a      	str	r2, [r3, #0]
2400b33a:	4770      	bx	lr
2400b33c:	58024400 	.word	0x58024400

2400b340 <HAL_RCCEx_WakeUpStopCLKConfig>:
2400b340:	4a03      	ldr	r2, [pc, #12]	; (2400b350 <HAL_RCCEx_WakeUpStopCLKConfig+0x10>)
2400b342:	6913      	ldr	r3, [r2, #16]
2400b344:	f023 0340 	bic.w	r3, r3, #64	; 0x40
2400b348:	4318      	orrs	r0, r3
2400b34a:	6110      	str	r0, [r2, #16]
2400b34c:	4770      	bx	lr
2400b34e:	bf00      	nop
2400b350:	58024400 	.word	0x58024400

2400b354 <HAL_RCCEx_KerWakeUpStopCLKConfig>:
2400b354:	4a03      	ldr	r2, [pc, #12]	; (2400b364 <HAL_RCCEx_KerWakeUpStopCLKConfig+0x10>)
2400b356:	6913      	ldr	r3, [r2, #16]
2400b358:	f023 0380 	bic.w	r3, r3, #128	; 0x80
2400b35c:	4318      	orrs	r0, r3
2400b35e:	6110      	str	r0, [r2, #16]
2400b360:	4770      	bx	lr
2400b362:	bf00      	nop
2400b364:	58024400 	.word	0x58024400

2400b368 <HAL_RCCEx_WWDGxSysResetConfig>:
2400b368:	4a03      	ldr	r2, [pc, #12]	; (2400b378 <HAL_RCCEx_WWDGxSysResetConfig+0x10>)
2400b36a:	f8d2 30a0 	ldr.w	r3, [r2, #160]	; 0xa0
2400b36e:	4318      	orrs	r0, r3
2400b370:	f8c2 00a0 	str.w	r0, [r2, #160]	; 0xa0
2400b374:	4770      	bx	lr
2400b376:	bf00      	nop
2400b378:	58024400 	.word	0x58024400

2400b37c <HAL_RCCEx_CRSConfig>:
2400b37c:	4b18      	ldr	r3, [pc, #96]	; (2400b3e0 <HAL_RCCEx_CRSConfig+0x64>)
2400b37e:	f8d3 2094 	ldr.w	r2, [r3, #148]	; 0x94
2400b382:	f042 0202 	orr.w	r2, r2, #2
2400b386:	b510      	push	{r4, lr}
2400b388:	f8c3 2094 	str.w	r2, [r3, #148]	; 0x94
2400b38c:	4604      	mov	r4, r0
2400b38e:	f8d3 2094 	ldr.w	r2, [r3, #148]	; 0x94
2400b392:	f022 0202 	bic.w	r2, r2, #2
2400b396:	f8c3 2094 	str.w	r2, [r3, #148]	; 0x94
2400b39a:	f7f5 fa4d 	bl	24000838 <HAL_GetREVID>
2400b39e:	f241 0303 	movw	r3, #4099	; 0x1003
2400b3a2:	4298      	cmp	r0, r3
2400b3a4:	6823      	ldr	r3, [r4, #0]
2400b3a6:	e9d4 1201 	ldrd	r1, r2, [r4, #4]
2400b3aa:	d816      	bhi.n	2400b3da <HAL_RCCEx_CRSConfig+0x5e>
2400b3ac:	f1b1 5f40 	cmp.w	r1, #805306368	; 0x30000000
2400b3b0:	d113      	bne.n	2400b3da <HAL_RCCEx_CRSConfig+0x5e>
2400b3b2:	431a      	orrs	r2, r3
2400b3b4:	e9d4 3103 	ldrd	r3, r1, [r4, #12]
2400b3b8:	ea43 4301 	orr.w	r3, r3, r1, lsl #16
2400b3bc:	431a      	orrs	r2, r3
2400b3be:	4b09      	ldr	r3, [pc, #36]	; (2400b3e4 <HAL_RCCEx_CRSConfig+0x68>)
2400b3c0:	605a      	str	r2, [r3, #4]
2400b3c2:	681a      	ldr	r2, [r3, #0]
2400b3c4:	6961      	ldr	r1, [r4, #20]
2400b3c6:	f422 527c 	bic.w	r2, r2, #16128	; 0x3f00
2400b3ca:	ea42 2201 	orr.w	r2, r2, r1, lsl #8
2400b3ce:	601a      	str	r2, [r3, #0]
2400b3d0:	681a      	ldr	r2, [r3, #0]
2400b3d2:	f042 0260 	orr.w	r2, r2, #96	; 0x60
2400b3d6:	601a      	str	r2, [r3, #0]
2400b3d8:	bd10      	pop	{r4, pc}
2400b3da:	430b      	orrs	r3, r1
2400b3dc:	e7e9      	b.n	2400b3b2 <HAL_RCCEx_CRSConfig+0x36>
2400b3de:	bf00      	nop
2400b3e0:	58024400 	.word	0x58024400
2400b3e4:	40008400 	.word	0x40008400

2400b3e8 <HAL_RCCEx_CRSSoftwareSynchronizationGenerate>:
2400b3e8:	4a02      	ldr	r2, [pc, #8]	; (2400b3f4 <HAL_RCCEx_CRSSoftwareSynchronizationGenerate+0xc>)
2400b3ea:	6813      	ldr	r3, [r2, #0]
2400b3ec:	f043 0380 	orr.w	r3, r3, #128	; 0x80
2400b3f0:	6013      	str	r3, [r2, #0]
2400b3f2:	4770      	bx	lr
2400b3f4:	40008400 	.word	0x40008400

2400b3f8 <HAL_RCCEx_CRSGetSynchronizationInfo>:
2400b3f8:	4b07      	ldr	r3, [pc, #28]	; (2400b418 <HAL_RCCEx_CRSGetSynchronizationInfo+0x20>)
2400b3fa:	685a      	ldr	r2, [r3, #4]
2400b3fc:	b292      	uxth	r2, r2
2400b3fe:	6002      	str	r2, [r0, #0]
2400b400:	681a      	ldr	r2, [r3, #0]
2400b402:	f3c2 2205 	ubfx	r2, r2, #8, #6
2400b406:	6042      	str	r2, [r0, #4]
2400b408:	689a      	ldr	r2, [r3, #8]
2400b40a:	0c12      	lsrs	r2, r2, #16
2400b40c:	6082      	str	r2, [r0, #8]
2400b40e:	689b      	ldr	r3, [r3, #8]
2400b410:	f403 4300 	and.w	r3, r3, #32768	; 0x8000
2400b414:	60c3      	str	r3, [r0, #12]
2400b416:	4770      	bx	lr
2400b418:	40008400 	.word	0x40008400

2400b41c <HAL_RCCEx_CRSWaitSynchronization>:
2400b41c:	b5f8      	push	{r3, r4, r5, r6, r7, lr}
2400b41e:	4605      	mov	r5, r0
2400b420:	4c1d      	ldr	r4, [pc, #116]	; (2400b498 <HAL_RCCEx_CRSWaitSynchronization+0x7c>)
2400b422:	f7f5 f9bf 	bl	240007a4 <HAL_GetTick>
2400b426:	2701      	movs	r7, #1
2400b428:	4606      	mov	r6, r0
2400b42a:	1c68      	adds	r0, r5, #1
2400b42c:	d12a      	bne.n	2400b484 <HAL_RCCEx_CRSWaitSynchronization+0x68>
2400b42e:	2000      	movs	r0, #0
2400b430:	68a2      	ldr	r2, [r4, #8]
2400b432:	07d1      	lsls	r1, r2, #31
2400b434:	d502      	bpl.n	2400b43c <HAL_RCCEx_CRSWaitSynchronization+0x20>
2400b436:	f040 0002 	orr.w	r0, r0, #2
2400b43a:	60e7      	str	r7, [r4, #12]
2400b43c:	68a2      	ldr	r2, [r4, #8]
2400b43e:	0792      	lsls	r2, r2, #30
2400b440:	d503      	bpl.n	2400b44a <HAL_RCCEx_CRSWaitSynchronization+0x2e>
2400b442:	2202      	movs	r2, #2
2400b444:	f040 0004 	orr.w	r0, r0, #4
2400b448:	60e2      	str	r2, [r4, #12]
2400b44a:	68a2      	ldr	r2, [r4, #8]
2400b44c:	0553      	lsls	r3, r2, #21
2400b44e:	d503      	bpl.n	2400b458 <HAL_RCCEx_CRSWaitSynchronization+0x3c>
2400b450:	2204      	movs	r2, #4
2400b452:	f040 0020 	orr.w	r0, r0, #32
2400b456:	60e2      	str	r2, [r4, #12]
2400b458:	68a2      	ldr	r2, [r4, #8]
2400b45a:	05d1      	lsls	r1, r2, #23
2400b45c:	d503      	bpl.n	2400b466 <HAL_RCCEx_CRSWaitSynchronization+0x4a>
2400b45e:	2204      	movs	r2, #4
2400b460:	f040 0008 	orr.w	r0, r0, #8
2400b464:	60e2      	str	r2, [r4, #12]
2400b466:	68a2      	ldr	r2, [r4, #8]
2400b468:	0592      	lsls	r2, r2, #22
2400b46a:	d503      	bpl.n	2400b474 <HAL_RCCEx_CRSWaitSynchronization+0x58>
2400b46c:	2204      	movs	r2, #4
2400b46e:	f040 0010 	orr.w	r0, r0, #16
2400b472:	60e2      	str	r2, [r4, #12]
2400b474:	68a2      	ldr	r2, [r4, #8]
2400b476:	0713      	lsls	r3, r2, #28
2400b478:	d501      	bpl.n	2400b47e <HAL_RCCEx_CRSWaitSynchronization+0x62>
2400b47a:	2208      	movs	r2, #8
2400b47c:	60e2      	str	r2, [r4, #12]
2400b47e:	2800      	cmp	r0, #0
2400b480:	d0d3      	beq.n	2400b42a <HAL_RCCEx_CRSWaitSynchronization+0xe>
2400b482:	bdf8      	pop	{r3, r4, r5, r6, r7, pc}
2400b484:	f7f5 f98e 	bl	240007a4 <HAL_GetTick>
2400b488:	1b80      	subs	r0, r0, r6
2400b48a:	42a8      	cmp	r0, r5
2400b48c:	d801      	bhi.n	2400b492 <HAL_RCCEx_CRSWaitSynchronization+0x76>
2400b48e:	2d00      	cmp	r5, #0
2400b490:	d1cd      	bne.n	2400b42e <HAL_RCCEx_CRSWaitSynchronization+0x12>
2400b492:	2001      	movs	r0, #1
2400b494:	e7cc      	b.n	2400b430 <HAL_RCCEx_CRSWaitSynchronization+0x14>
2400b496:	bf00      	nop
2400b498:	40008400 	.word	0x40008400

2400b49c <HAL_RCCEx_CRS_SyncOkCallback>:
2400b49c:	4770      	bx	lr

2400b49e <HAL_RCCEx_CRS_SyncWarnCallback>:
2400b49e:	4770      	bx	lr

2400b4a0 <HAL_RCCEx_CRS_ExpectedSyncCallback>:
2400b4a0:	4770      	bx	lr

2400b4a2 <HAL_RCCEx_CRS_ErrorCallback>:
2400b4a2:	4770      	bx	lr

2400b4a4 <HAL_RCCEx_CRS_IRQHandler>:
2400b4a4:	491b      	ldr	r1, [pc, #108]	; (2400b514 <HAL_RCCEx_CRS_IRQHandler+0x70>)
2400b4a6:	b508      	push	{r3, lr}
2400b4a8:	688b      	ldr	r3, [r1, #8]
2400b4aa:	680a      	ldr	r2, [r1, #0]
2400b4ac:	07d8      	lsls	r0, r3, #31
2400b4ae:	d506      	bpl.n	2400b4be <HAL_RCCEx_CRS_IRQHandler+0x1a>
2400b4b0:	07d0      	lsls	r0, r2, #31
2400b4b2:	d504      	bpl.n	2400b4be <HAL_RCCEx_CRS_IRQHandler+0x1a>
2400b4b4:	2301      	movs	r3, #1
2400b4b6:	60cb      	str	r3, [r1, #12]
2400b4b8:	f7ff fff0 	bl	2400b49c <HAL_RCCEx_CRS_SyncOkCallback>
2400b4bc:	bd08      	pop	{r3, pc}
2400b4be:	0798      	lsls	r0, r3, #30
2400b4c0:	d507      	bpl.n	2400b4d2 <HAL_RCCEx_CRS_IRQHandler+0x2e>
2400b4c2:	0791      	lsls	r1, r2, #30
2400b4c4:	d505      	bpl.n	2400b4d2 <HAL_RCCEx_CRS_IRQHandler+0x2e>
2400b4c6:	4b13      	ldr	r3, [pc, #76]	; (2400b514 <HAL_RCCEx_CRS_IRQHandler+0x70>)
2400b4c8:	2202      	movs	r2, #2
2400b4ca:	60da      	str	r2, [r3, #12]
2400b4cc:	f7ff ffe7 	bl	2400b49e <HAL_RCCEx_CRS_SyncWarnCallback>
2400b4d0:	e7f4      	b.n	2400b4bc <HAL_RCCEx_CRS_IRQHandler+0x18>
2400b4d2:	0718      	lsls	r0, r3, #28
2400b4d4:	d507      	bpl.n	2400b4e6 <HAL_RCCEx_CRS_IRQHandler+0x42>
2400b4d6:	0711      	lsls	r1, r2, #28
2400b4d8:	d505      	bpl.n	2400b4e6 <HAL_RCCEx_CRS_IRQHandler+0x42>
2400b4da:	4b0e      	ldr	r3, [pc, #56]	; (2400b514 <HAL_RCCEx_CRS_IRQHandler+0x70>)
2400b4dc:	2208      	movs	r2, #8
2400b4de:	60da      	str	r2, [r3, #12]
2400b4e0:	f7ff ffde 	bl	2400b4a0 <HAL_RCCEx_CRS_ExpectedSyncCallback>
2400b4e4:	e7ea      	b.n	2400b4bc <HAL_RCCEx_CRS_IRQHandler+0x18>
2400b4e6:	0758      	lsls	r0, r3, #29
2400b4e8:	d5e8      	bpl.n	2400b4bc <HAL_RCCEx_CRS_IRQHandler+0x18>
2400b4ea:	0751      	lsls	r1, r2, #29
2400b4ec:	d5e6      	bpl.n	2400b4bc <HAL_RCCEx_CRS_IRQHandler+0x18>
2400b4ee:	f413 7080 	ands.w	r0, r3, #256	; 0x100
2400b4f2:	bf18      	it	ne
2400b4f4:	2008      	movne	r0, #8
2400b4f6:	059a      	lsls	r2, r3, #22
2400b4f8:	f04f 0204 	mov.w	r2, #4
2400b4fc:	bf48      	it	mi
2400b4fe:	f040 0010 	orrmi.w	r0, r0, #16
2400b502:	055b      	lsls	r3, r3, #21
2400b504:	4b03      	ldr	r3, [pc, #12]	; (2400b514 <HAL_RCCEx_CRS_IRQHandler+0x70>)
2400b506:	bf48      	it	mi
2400b508:	f040 0020 	orrmi.w	r0, r0, #32
2400b50c:	60da      	str	r2, [r3, #12]
2400b50e:	f7ff ffc8 	bl	2400b4a2 <HAL_RCCEx_CRS_ErrorCallback>
2400b512:	e7d3      	b.n	2400b4bc <HAL_RCCEx_CRS_IRQHandler+0x18>
2400b514:	40008400 	.word	0x40008400

2400b518 <HAL_RCCEx_LSECSS_Callback>:
2400b518:	4770      	bx	lr
	...

2400b51c <HAL_RCCEx_LSECSS_IRQHandler>:
2400b51c:	b508      	push	{r3, lr}
2400b51e:	4b05      	ldr	r3, [pc, #20]	; (2400b534 <HAL_RCCEx_LSECSS_IRQHandler+0x18>)
2400b520:	6e5a      	ldr	r2, [r3, #100]	; 0x64
2400b522:	0592      	lsls	r2, r2, #22
2400b524:	d504      	bpl.n	2400b530 <HAL_RCCEx_LSECSS_IRQHandler+0x14>
2400b526:	f44f 7200 	mov.w	r2, #512	; 0x200
2400b52a:	669a      	str	r2, [r3, #104]	; 0x68
2400b52c:	f7ff fff4 	bl	2400b518 <HAL_RCCEx_LSECSS_Callback>
2400b530:	bd08      	pop	{r3, pc}
2400b532:	bf00      	nop
2400b534:	58024400 	.word	0x58024400

2400b538 <Init>:
2400b538:	f04f 23e0 	mov.w	r3, #3758153728	; 0xe000e000
2400b53c:	4a12      	ldr	r2, [pc, #72]	; (2400b588 <Init+0x50>)
2400b53e:	b510      	push	{r4, lr}
2400b540:	f8c3 2df0 	str.w	r2, [r3, #3568]	; 0xdf0
2400b544:	2400      	movs	r4, #0
2400b546:	f000 fc8d 	bl	2400be64 <SystemInit>
2400b54a:	4b10      	ldr	r3, [pc, #64]	; (2400b58c <Init+0x54>)
2400b54c:	4a10      	ldr	r2, [pc, #64]	; (2400b590 <Init+0x58>)
2400b54e:	609a      	str	r2, [r3, #8]
2400b550:	f384 8810 	msr	PRIMASK, r4
2400b554:	f7f5 f8ec 	bl	24000730 <HAL_Init>
2400b558:	f000 f922 	bl	2400b7a0 <SystemClock_Config>
2400b55c:	4a0d      	ldr	r2, [pc, #52]	; (2400b594 <Init+0x5c>)
2400b55e:	6fd1      	ldr	r1, [r2, #124]	; 0x7c
2400b560:	f441 4180 	orr.w	r1, r1, #16384	; 0x4000
2400b564:	67d1      	str	r1, [r2, #124]	; 0x7c
2400b566:	6fd1      	ldr	r1, [r2, #124]	; 0x7c
2400b568:	f421 4180 	bic.w	r1, r1, #16384	; 0x4000
2400b56c:	67d1      	str	r1, [r2, #124]	; 0x7c
2400b56e:	f000 fa4b 	bl	2400ba08 <CSP_QUADSPI_Init>
2400b572:	2301      	movs	r3, #1
2400b574:	b118      	cbz	r0, 2400b57e <Init+0x46>
2400b576:	f383 8810 	msr	PRIMASK, r3
2400b57a:	4620      	mov	r0, r4
2400b57c:	bd10      	pop	{r4, pc}
2400b57e:	f383 8810 	msr	PRIMASK, r3
2400b582:	4618      	mov	r0, r3
2400b584:	e7fa      	b.n	2400b57c <Init+0x44>
2400b586:	bf00      	nop
2400b588:	a05f0000 	.word	0xa05f0000
2400b58c:	e000ed00 	.word	0xe000ed00
2400b590:	24000200 	.word	0x24000200
2400b594:	58024400 	.word	0x58024400

2400b598 <Write>:
2400b598:	e92d 41f0 	stmdb	sp!, {r4, r5, r6, r7, r8, lr}
2400b59c:	4607      	mov	r7, r0
2400b59e:	4688      	mov	r8, r1
2400b5a0:	4616      	mov	r6, r2
2400b5a2:	2400      	movs	r4, #0
2400b5a4:	f384 8810 	msr	PRIMASK, r4
2400b5a8:	480d      	ldr	r0, [pc, #52]	; (2400b5e0 <Write+0x48>)
2400b5aa:	f7fd fde2 	bl	24009172 <HAL_QSPI_Abort>
2400b5ae:	4605      	mov	r5, r0
2400b5b0:	b128      	cbz	r0, 2400b5be <Write+0x26>
2400b5b2:	2301      	movs	r3, #1
2400b5b4:	f383 8810 	msr	PRIMASK, r3
2400b5b8:	4620      	mov	r0, r4
2400b5ba:	e8bd 81f0 	ldmia.w	sp!, {r4, r5, r6, r7, r8, pc}
2400b5be:	4642      	mov	r2, r8
2400b5c0:	f027 417f 	bic.w	r1, r7, #4278190080	; 0xff000000
2400b5c4:	4630      	mov	r0, r6
2400b5c6:	f000 fac1 	bl	2400bb4c <CSP_QSPI_WriteMemory>
2400b5ca:	2301      	movs	r3, #1
2400b5cc:	b118      	cbz	r0, 2400b5d6 <Write+0x3e>
2400b5ce:	f383 8810 	msr	PRIMASK, r3
2400b5d2:	4628      	mov	r0, r5
2400b5d4:	e7f1      	b.n	2400b5ba <Write+0x22>
2400b5d6:	f383 8810 	msr	PRIMASK, r3
2400b5da:	4618      	mov	r0, r3
2400b5dc:	e7ed      	b.n	2400b5ba <Write+0x22>
2400b5de:	bf00      	nop
2400b5e0:	24000560 	.word	0x24000560

2400b5e4 <SectorErase>:
2400b5e4:	b573      	push	{r0, r1, r4, r5, r6, lr}
2400b5e6:	4606      	mov	r6, r0
2400b5e8:	2400      	movs	r4, #0
2400b5ea:	9101      	str	r1, [sp, #4]
2400b5ec:	f384 8810 	msr	PRIMASK, r4
2400b5f0:	480c      	ldr	r0, [pc, #48]	; (2400b624 <SectorErase+0x40>)
2400b5f2:	f7fd fdbe 	bl	24009172 <HAL_QSPI_Abort>
2400b5f6:	9901      	ldr	r1, [sp, #4]
2400b5f8:	4605      	mov	r5, r0
2400b5fa:	b128      	cbz	r0, 2400b608 <SectorErase+0x24>
2400b5fc:	2301      	movs	r3, #1
2400b5fe:	f383 8810 	msr	PRIMASK, r3
2400b602:	4620      	mov	r0, r4
2400b604:	b002      	add	sp, #8
2400b606:	bd70      	pop	{r4, r5, r6, pc}
2400b608:	4630      	mov	r0, r6
2400b60a:	f000 fa67 	bl	2400badc <CSP_QSPI_EraseSector>
2400b60e:	2301      	movs	r3, #1
2400b610:	b118      	cbz	r0, 2400b61a <SectorErase+0x36>
2400b612:	f383 8810 	msr	PRIMASK, r3
2400b616:	4628      	mov	r0, r5
2400b618:	e7f4      	b.n	2400b604 <SectorErase+0x20>
2400b61a:	f383 8810 	msr	PRIMASK, r3
2400b61e:	4618      	mov	r0, r3
2400b620:	e7f0      	b.n	2400b604 <SectorErase+0x20>
2400b622:	bf00      	nop
2400b624:	24000560 	.word	0x24000560

2400b628 <MassErase>:
2400b628:	b538      	push	{r3, r4, r5, lr}
2400b62a:	2400      	movs	r4, #0
2400b62c:	f384 8810 	msr	PRIMASK, r4
2400b630:	480a      	ldr	r0, [pc, #40]	; (2400b65c <MassErase+0x34>)
2400b632:	f7fd fd9e 	bl	24009172 <HAL_QSPI_Abort>
2400b636:	4605      	mov	r5, r0
2400b638:	b120      	cbz	r0, 2400b644 <MassErase+0x1c>
2400b63a:	2301      	movs	r3, #1
2400b63c:	f383 8810 	msr	PRIMASK, r3
2400b640:	4620      	mov	r0, r4
2400b642:	bd38      	pop	{r3, r4, r5, pc}
2400b644:	f000 fa20 	bl	2400ba88 <CSP_QSPI_Erase_Chip>
2400b648:	2301      	movs	r3, #1
2400b64a:	b118      	cbz	r0, 2400b654 <MassErase+0x2c>
2400b64c:	f383 8810 	msr	PRIMASK, r3
2400b650:	4628      	mov	r0, r5
2400b652:	e7f6      	b.n	2400b642 <MassErase+0x1a>
2400b654:	f383 8810 	msr	PRIMASK, r3
2400b658:	4618      	mov	r0, r3
2400b65a:	e7f2      	b.n	2400b642 <MassErase+0x1a>
2400b65c:	24000560 	.word	0x24000560

2400b660 <CheckSum>:
2400b660:	f011 0303 	ands.w	r3, r1, #3
2400b664:	bf18      	it	ne
2400b666:	f1c3 0304 	rsbne	r3, r3, #4
2400b66a:	b5f0      	push	{r4, r5, r6, r7, lr}
2400b66c:	f000 0603 	and.w	r6, r0, #3
2400b670:	b2cc      	uxtb	r4, r1
2400b672:	f020 0703 	bic.w	r7, r0, #3
2400b676:	4419      	add	r1, r3
2400b678:	4610      	mov	r0, r2
2400b67a:	2500      	movs	r5, #0
2400b67c:	42a9      	cmp	r1, r5
2400b67e:	d800      	bhi.n	2400b682 <CheckSum+0x22>
2400b680:	bdf0      	pop	{r4, r5, r6, r7, pc}
2400b682:	597b      	ldr	r3, [r7, r5]
2400b684:	b166      	cbz	r6, 2400b6a0 <CheckSum+0x40>
2400b686:	2e02      	cmp	r6, #2
2400b688:	eb00 6013 	add.w	r0, r0, r3, lsr #24
2400b68c:	d004      	beq.n	2400b698 <CheckSum+0x38>
2400b68e:	2e03      	cmp	r6, #3
2400b690:	d01c      	beq.n	2400b6cc <CheckSum+0x6c>
2400b692:	f3c3 2207 	ubfx	r2, r3, #8, #8
2400b696:	4410      	add	r0, r2
2400b698:	f3c3 4307 	ubfx	r3, r3, #16, #8
2400b69c:	4418      	add	r0, r3
2400b69e:	e015      	b.n	2400b6cc <CheckSum+0x6c>
2400b6a0:	1b0a      	subs	r2, r1, r4
2400b6a2:	0796      	lsls	r6, r2, #30
2400b6a4:	d020      	beq.n	2400b6e8 <CheckSum+0x88>
2400b6a6:	1b4e      	subs	r6, r1, r5
2400b6a8:	2e04      	cmp	r6, #4
2400b6aa:	d81d      	bhi.n	2400b6e8 <CheckSum+0x88>
2400b6ac:	2a02      	cmp	r2, #2
2400b6ae:	d010      	beq.n	2400b6d2 <CheckSum+0x72>
2400b6b0:	2a03      	cmp	r2, #3
2400b6b2:	d015      	beq.n	2400b6e0 <CheckSum+0x80>
2400b6b4:	2a01      	cmp	r2, #1
2400b6b6:	d109      	bne.n	2400b6cc <CheckSum+0x6c>
2400b6b8:	fa50 f283 	uxtab	r2, r0, r3
2400b6bc:	f3c3 2007 	ubfx	r0, r3, #8, #8
2400b6c0:	f3c3 4307 	ubfx	r3, r3, #16, #8
2400b6c4:	3c01      	subs	r4, #1
2400b6c6:	4410      	add	r0, r2
2400b6c8:	4418      	add	r0, r3
2400b6ca:	b2e4      	uxtb	r4, r4
2400b6cc:	3504      	adds	r5, #4
2400b6ce:	2600      	movs	r6, #0
2400b6d0:	e7d4      	b.n	2400b67c <CheckSum+0x1c>
2400b6d2:	fa50 f083 	uxtab	r0, r0, r3
2400b6d6:	f3c3 2307 	ubfx	r3, r3, #8, #8
2400b6da:	3c02      	subs	r4, #2
2400b6dc:	4418      	add	r0, r3
2400b6de:	e7f4      	b.n	2400b6ca <CheckSum+0x6a>
2400b6e0:	fa50 f083 	uxtab	r0, r0, r3
2400b6e4:	3c03      	subs	r4, #3
2400b6e6:	e7f0      	b.n	2400b6ca <CheckSum+0x6a>
2400b6e8:	b2da      	uxtb	r2, r3
2400b6ea:	eb02 6213 	add.w	r2, r2, r3, lsr #24
2400b6ee:	4410      	add	r0, r2
2400b6f0:	e7cf      	b.n	2400b692 <CheckSum+0x32>

2400b6f2 <Verify>:
2400b6f2:	e92d 43f8 	stmdb	sp!, {r3, r4, r5, r6, r7, r8, r9, lr}
2400b6f6:	4606      	mov	r6, r0
2400b6f8:	460f      	mov	r7, r1
2400b6fa:	4691      	mov	r9, r2
2400b6fc:	4698      	mov	r8, r3
2400b6fe:	2500      	movs	r5, #0
2400b700:	f385 8810 	msr	PRIMASK, r5
2400b704:	f000 fa76 	bl	2400bbf4 <CSP_QSPI_EnableMemoryMappedMode>
2400b708:	4604      	mov	r4, r0
2400b70a:	b130      	cbz	r0, 2400b71a <Verify+0x28>
2400b70c:	2301      	movs	r3, #1
2400b70e:	f383 8810 	msr	PRIMASK, r3
2400b712:	4628      	mov	r0, r5
2400b714:	4629      	mov	r1, r5
2400b716:	e8bd 83f8 	ldmia.w	sp!, {r3, r4, r5, r6, r7, r8, r9, pc}
2400b71a:	f3c8 4103 	ubfx	r1, r8, #16, #4
2400b71e:	f008 000f 	and.w	r0, r8, #15
2400b722:	4622      	mov	r2, r4
2400b724:	ea4f 0589 	mov.w	r5, r9, lsl #2
2400b728:	ebc1 0189 	rsb	r1, r1, r9, lsl #2
2400b72c:	4430      	add	r0, r6
2400b72e:	f7ff ff97 	bl	2400b660 <CheckSum>
2400b732:	4622      	mov	r2, r4
2400b734:	4601      	mov	r1, r0
2400b736:	1c70      	adds	r0, r6, #1
2400b738:	42aa      	cmp	r2, r5
2400b73a:	d104      	bne.n	2400b746 <Verify+0x54>
2400b73c:	2301      	movs	r3, #1
2400b73e:	f383 8810 	msr	PRIMASK, r3
2400b742:	2000      	movs	r0, #0
2400b744:	e7e7      	b.n	2400b716 <Verify+0x24>
2400b746:	f812 c006 	ldrb.w	ip, [r2, r6]
2400b74a:	1883      	adds	r3, r0, r2
2400b74c:	5dd4      	ldrb	r4, [r2, r7]
2400b74e:	45a4      	cmp	ip, r4
2400b750:	d004      	beq.n	2400b75c <Verify+0x6a>
2400b752:	2001      	movs	r0, #1
2400b754:	f380 8810 	msr	PRIMASK, r0
2400b758:	18d0      	adds	r0, r2, r3
2400b75a:	e7dc      	b.n	2400b716 <Verify+0x24>
2400b75c:	3201      	adds	r2, #1
2400b75e:	e7eb      	b.n	2400b738 <Verify+0x46>

2400b760 <__io_putchar>:
2400b760:	f04f 4360 	mov.w	r3, #3758096384	; 0xe0000000
2400b764:	f8d3 2e80 	ldr.w	r2, [r3, #3712]	; 0xe80
2400b768:	07d1      	lsls	r1, r2, #31
2400b76a:	d50a      	bpl.n	2400b782 <__io_putchar+0x22>
2400b76c:	f8d3 2e00 	ldr.w	r2, [r3, #3584]	; 0xe00
2400b770:	07d2      	lsls	r2, r2, #31
2400b772:	d401      	bmi.n	2400b778 <__io_putchar+0x18>
2400b774:	4770      	bx	lr
2400b776:	bf00      	nop
2400b778:	681a      	ldr	r2, [r3, #0]
2400b77a:	2a00      	cmp	r2, #0
2400b77c:	d0fb      	beq.n	2400b776 <__io_putchar+0x16>
2400b77e:	b2c2      	uxtb	r2, r0
2400b780:	701a      	strb	r2, [r3, #0]
2400b782:	4770      	bx	lr

2400b784 <Error_Handler>:
2400b784:	4c05      	ldr	r4, [pc, #20]	; (2400b79c <Error_Handler+0x18>)
2400b786:	b508      	push	{r3, lr}
2400b788:	4620      	mov	r0, r4
2400b78a:	f44f 5100 	mov.w	r1, #8192	; 0x2000
2400b78e:	f7f8 fe6a 	bl	24004466 <HAL_GPIO_TogglePin>
2400b792:	f44f 70fa 	mov.w	r0, #500	; 0x1f4
2400b796:	f7f5 f82b 	bl	240007f0 <HAL_Delay>
2400b79a:	e7f5      	b.n	2400b788 <Error_Handler+0x4>
2400b79c:	58020c00 	.word	0x58020c00

2400b7a0 <SystemClock_Config>:
2400b7a0:	b5f0      	push	{r4, r5, r6, r7, lr}
2400b7a2:	b0cd      	sub	sp, #308	; 0x134
2400b7a4:	224c      	movs	r2, #76	; 0x4c
2400b7a6:	2100      	movs	r1, #0
2400b7a8:	a80a      	add	r0, sp, #40	; 0x28
2400b7aa:	f000 fc9f 	bl	2400c0ec <memset>
2400b7ae:	2220      	movs	r2, #32
2400b7b0:	2100      	movs	r1, #0
2400b7b2:	a802      	add	r0, sp, #8
2400b7b4:	f000 fc9a 	bl	2400c0ec <memset>
2400b7b8:	22bc      	movs	r2, #188	; 0xbc
2400b7ba:	2100      	movs	r1, #0
2400b7bc:	a81d      	add	r0, sp, #116	; 0x74
2400b7be:	f000 fc95 	bl	2400c0ec <memset>
2400b7c2:	2002      	movs	r0, #2
2400b7c4:	f7fc fbec 	bl	24007fa0 <HAL_PWREx_ConfigSupply>
2400b7c8:	2300      	movs	r3, #0
2400b7ca:	9301      	str	r3, [sp, #4]
2400b7cc:	4b42      	ldr	r3, [pc, #264]	; (2400b8d8 <SystemClock_Config+0x138>)
2400b7ce:	699a      	ldr	r2, [r3, #24]
2400b7d0:	f442 4240 	orr.w	r2, r2, #49152	; 0xc000
2400b7d4:	619a      	str	r2, [r3, #24]
2400b7d6:	699a      	ldr	r2, [r3, #24]
2400b7d8:	f402 4240 	and.w	r2, r2, #49152	; 0xc000
2400b7dc:	9201      	str	r2, [sp, #4]
2400b7de:	4a3f      	ldr	r2, [pc, #252]	; (2400b8dc <SystemClock_Config+0x13c>)
2400b7e0:	6ad1      	ldr	r1, [r2, #44]	; 0x2c
2400b7e2:	f041 0101 	orr.w	r1, r1, #1
2400b7e6:	62d1      	str	r1, [r2, #44]	; 0x2c
2400b7e8:	6ad2      	ldr	r2, [r2, #44]	; 0x2c
2400b7ea:	f002 0201 	and.w	r2, r2, #1
2400b7ee:	9201      	str	r2, [sp, #4]
2400b7f0:	9a01      	ldr	r2, [sp, #4]
2400b7f2:	699a      	ldr	r2, [r3, #24]
2400b7f4:	0492      	lsls	r2, r2, #18
2400b7f6:	d5fc      	bpl.n	2400b7f2 <SystemClock_Config+0x52>
2400b7f8:	f7fc fad8 	bl	24007dac <HAL_PWR_EnableBkUpAccess>
2400b7fc:	2605      	movs	r6, #5
2400b7fe:	f7f5 f81b 	bl	24000838 <HAL_GetREVID>
2400b802:	4a37      	ldr	r2, [pc, #220]	; (2400b8e0 <SystemClock_Config+0x140>)
2400b804:	f04f 0e25 	mov.w	lr, #37	; 0x25
2400b808:	2402      	movs	r4, #2
2400b80a:	6f13      	ldr	r3, [r2, #112]	; 0x70
2400b80c:	2501      	movs	r5, #1
2400b80e:	2708      	movs	r7, #8
2400b810:	a80a      	add	r0, sp, #40	; 0x28
2400b812:	f023 0318 	bic.w	r3, r3, #24
2400b816:	6713      	str	r3, [r2, #112]	; 0x70
2400b818:	6a93      	ldr	r3, [r2, #40]	; 0x28
2400b81a:	f023 0303 	bic.w	r3, r3, #3
2400b81e:	f043 0302 	orr.w	r3, r3, #2
2400b822:	6293      	str	r3, [r2, #40]	; 0x28
2400b824:	f44f 3380 	mov.w	r3, #65536	; 0x10000
2400b828:	950c      	str	r5, [sp, #48]	; 0x30
2400b82a:	9510      	str	r5, [sp, #64]	; 0x40
2400b82c:	9419      	str	r4, [sp, #100]	; 0x64
2400b82e:	e9cd e30a 	strd	lr, r3, [sp, #40]	; 0x28
2400b832:	23a0      	movs	r3, #160	; 0xa0
2400b834:	e9cd 6315 	strd	r6, r3, [sp, #84]	; 0x54
2400b838:	2300      	movs	r3, #0
2400b83a:	e9cd 4413 	strd	r4, r4, [sp, #76]	; 0x4c
2400b83e:	e9cd 4417 	strd	r4, r4, [sp, #92]	; 0x5c
2400b842:	e9cd 731a 	strd	r7, r3, [sp, #104]	; 0x68
2400b846:	931c      	str	r3, [sp, #112]	; 0x70
2400b848:	f7fd fe30 	bl	240094ac <HAL_RCC_OscConfig>
2400b84c:	b108      	cbz	r0, 2400b852 <SystemClock_Config+0xb2>
2400b84e:	f7ff ff99 	bl	2400b784 <Error_Handler>
2400b852:	2303      	movs	r3, #3
2400b854:	f04f 0c3f 	mov.w	ip, #63	; 0x3f
2400b858:	f44f 6280 	mov.w	r2, #1024	; 0x400
2400b85c:	2104      	movs	r1, #4
2400b85e:	e9cd c302 	strd	ip, r3, [sp, #8]
2400b862:	2340      	movs	r3, #64	; 0x40
2400b864:	e9cd 0704 	strd	r0, r7, [sp, #16]
2400b868:	a802      	add	r0, sp, #8
2400b86a:	e9cd 3306 	strd	r3, r3, [sp, #24]
2400b86e:	e9cd 2308 	strd	r2, r3, [sp, #32]
2400b872:	f7fe f99f 	bl	24009bb4 <HAL_RCC_ClockConfig>
2400b876:	2800      	cmp	r0, #0
2400b878:	d1e9      	bne.n	2400b84e <SystemClock_Config+0xae>
2400b87a:	4b1a      	ldr	r3, [pc, #104]	; (2400b8e4 <SystemClock_Config+0x144>)
2400b87c:	21c0      	movs	r1, #192	; 0xc0
2400b87e:	2220      	movs	r2, #32
2400b880:	9034      	str	r0, [sp, #208]	; 0xd0
2400b882:	903a      	str	r0, [sp, #232]	; 0xe8
2400b884:	903d      	str	r0, [sp, #244]	; 0xf4
2400b886:	9045      	str	r0, [sp, #276]	; 0x114
2400b888:	962a      	str	r6, [sp, #168]	; 0xa8
2400b88a:	e9cd 341d 	strd	r3, r4, [sp, #116]	; 0x74
2400b88e:	230c      	movs	r3, #12
2400b890:	e9cd 4521 	strd	r4, r5, [sp, #132]	; 0x84
2400b894:	e9cd 351f 	strd	r3, r5, [sp, #124]	; 0x7c
2400b898:	e9cd 0425 	strd	r0, r4, [sp, #148]	; 0x94
2400b89c:	9327      	str	r3, [sp, #156]	; 0x9c
2400b89e:	240a      	movs	r4, #10
2400b8a0:	2319      	movs	r3, #25
2400b8a2:	f44f 6540 	mov.w	r5, #3072	; 0xc00
2400b8a6:	e9cd 4328 	strd	r4, r3, [sp, #160]	; 0xa0
2400b8aa:	f44f 7300 	mov.w	r3, #512	; 0x200
2400b8ae:	e9cd 532b 	strd	r5, r3, [sp, #172]	; 0xac
2400b8b2:	f44f 1340 	mov.w	r3, #3145728	; 0x300000
2400b8b6:	e9cd 002d 	strd	r0, r0, [sp, #180]	; 0xb4
2400b8ba:	e9cd 002f 	strd	r0, r0, [sp, #188]	; 0xbc
2400b8be:	e9cd 303e 	strd	r3, r0, [sp, #248]	; 0xf8
2400b8c2:	a81d      	add	r0, sp, #116	; 0x74
2400b8c4:	e9cd 1223 	strd	r1, r2, [sp, #140]	; 0x8c
2400b8c8:	f7fe fc86 	bl	2400a1d8 <HAL_RCCEx_PeriphCLKConfig>
2400b8cc:	2800      	cmp	r0, #0
2400b8ce:	d1be      	bne.n	2400b84e <SystemClock_Config+0xae>
2400b8d0:	f7fc fd6c 	bl	240083ac <HAL_PWREx_EnableUSBVoltageDetector>
2400b8d4:	b04d      	add	sp, #308	; 0x134
2400b8d6:	bdf0      	pop	{r4, r5, r6, r7, pc}
2400b8d8:	58024800 	.word	0x58024800
2400b8dc:	58000400 	.word	0x58000400
2400b8e0:	58024400 	.word	0x58024400
2400b8e4:	238d100a 	.word	0x238d100a

2400b8e8 <main>:
2400b8e8:	b508      	push	{r3, lr}
2400b8ea:	f7f4 ff21 	bl	24000730 <HAL_Init>
2400b8ee:	f7ff ff57 	bl	2400b7a0 <SystemClock_Config>
2400b8f2:	2001      	movs	r0, #1
2400b8f4:	bd08      	pop	{r3, pc}
	...

2400b8f8 <QSPI_AutoPollingMemReady>:
2400b8f8:	b500      	push	{lr}
2400b8fa:	f44f 7280 	mov.w	r2, #256	; 0x100
2400b8fe:	b095      	sub	sp, #84	; 0x54
2400b900:	f04f 7180 	mov.w	r1, #16777216	; 0x1000000
2400b904:	4603      	mov	r3, r0
2400b906:	920c      	str	r2, [sp, #48]	; 0x30
2400b908:	2205      	movs	r2, #5
2400b90a:	910f      	str	r1, [sp, #60]	; 0x3c
2400b90c:	2101      	movs	r1, #1
2400b90e:	9206      	str	r2, [sp, #24]
2400b910:	2200      	movs	r2, #0
2400b912:	9101      	str	r1, [sp, #4]
2400b914:	920b      	str	r2, [sp, #44]	; 0x2c
2400b916:	9213      	str	r2, [sp, #76]	; 0x4c
2400b918:	9200      	str	r2, [sp, #0]
2400b91a:	480b      	ldr	r0, [pc, #44]	; (2400b948 <QSPI_AutoPollingMemReady+0x50>)
2400b91c:	e9cd 1203 	strd	r1, r2, [sp, #12]
2400b920:	e9cd 220d 	strd	r2, r2, [sp, #52]	; 0x34
2400b924:	e9cd 2211 	strd	r2, r2, [sp, #68]	; 0x44
2400b928:	2210      	movs	r2, #16
2400b92a:	a906      	add	r1, sp, #24
2400b92c:	9202      	str	r2, [sp, #8]
2400b92e:	f44f 0280 	mov.w	r2, #4194304	; 0x400000
2400b932:	9205      	str	r2, [sp, #20]
2400b934:	466a      	mov	r2, sp
2400b936:	f7fd fa25 	bl	24008d84 <HAL_QSPI_AutoPolling>
2400b93a:	3800      	subs	r0, #0
2400b93c:	bf18      	it	ne
2400b93e:	2001      	movne	r0, #1
2400b940:	b015      	add	sp, #84	; 0x54
2400b942:	f85d fb04 	ldr.w	pc, [sp], #4
2400b946:	bf00      	nop
2400b948:	24000560 	.word	0x24000560

2400b94c <QSPI_WriteEnable>:
2400b94c:	b500      	push	{lr}
2400b94e:	f44f 7380 	mov.w	r3, #256	; 0x100
2400b952:	b095      	sub	sp, #84	; 0x54
2400b954:	f241 3288 	movw	r2, #5000	; 0x1388
2400b958:	4817      	ldr	r0, [pc, #92]	; (2400b9b8 <QSPI_WriteEnable+0x6c>)
2400b95a:	930c      	str	r3, [sp, #48]	; 0x30
2400b95c:	2306      	movs	r3, #6
2400b95e:	a906      	add	r1, sp, #24
2400b960:	9306      	str	r3, [sp, #24]
2400b962:	2300      	movs	r3, #0
2400b964:	e9cd 330d 	strd	r3, r3, [sp, #52]	; 0x34
2400b968:	930f      	str	r3, [sp, #60]	; 0x3c
2400b96a:	930b      	str	r3, [sp, #44]	; 0x2c
2400b96c:	9313      	str	r3, [sp, #76]	; 0x4c
2400b96e:	e9cd 3311 	strd	r3, r3, [sp, #68]	; 0x44
2400b972:	f7fc ff35 	bl	240087e0 <HAL_QSPI_Command>
2400b976:	b9e0      	cbnz	r0, 2400b9b2 <QSPI_WriteEnable+0x66>
2400b978:	2302      	movs	r3, #2
2400b97a:	2201      	movs	r2, #1
2400b97c:	f44f 0180 	mov.w	r1, #4194304	; 0x400000
2400b980:	9004      	str	r0, [sp, #16]
2400b982:	480d      	ldr	r0, [pc, #52]	; (2400b9b8 <QSPI_WriteEnable+0x6c>)
2400b984:	e9cd 3300 	strd	r3, r3, [sp]
2400b988:	2310      	movs	r3, #16
2400b98a:	e9cd 3202 	strd	r3, r2, [sp, #8]
2400b98e:	2305      	movs	r3, #5
2400b990:	466a      	mov	r2, sp
2400b992:	e9cd 1305 	strd	r1, r3, [sp, #20]
2400b996:	f04f 7380 	mov.w	r3, #16777216	; 0x1000000
2400b99a:	a906      	add	r1, sp, #24
2400b99c:	930f      	str	r3, [sp, #60]	; 0x3c
2400b99e:	f241 3388 	movw	r3, #5000	; 0x1388
2400b9a2:	f7fd f9ef 	bl	24008d84 <HAL_QSPI_AutoPolling>
2400b9a6:	3800      	subs	r0, #0
2400b9a8:	bf18      	it	ne
2400b9aa:	2001      	movne	r0, #1
2400b9ac:	b015      	add	sp, #84	; 0x54
2400b9ae:	f85d fb04 	ldr.w	pc, [sp], #4
2400b9b2:	2001      	movs	r0, #1
2400b9b4:	e7fa      	b.n	2400b9ac <QSPI_WriteEnable+0x60>
2400b9b6:	bf00      	nop
2400b9b8:	24000560 	.word	0x24000560

2400b9bc <MX_QUADSPI_Init>:
2400b9bc:	b508      	push	{r3, lr}
2400b9be:	4810      	ldr	r0, [pc, #64]	; (2400ba00 <MX_QUADSPI_Init+0x44>)
2400b9c0:	2301      	movs	r3, #1
2400b9c2:	4a10      	ldr	r2, [pc, #64]	; (2400ba04 <MX_QUADSPI_Init+0x48>)
2400b9c4:	2104      	movs	r1, #4
2400b9c6:	e9c0 2300 	strd	r2, r3, [r0]
2400b9ca:	2310      	movs	r3, #16
2400b9cc:	e9c0 1302 	strd	r1, r3, [r0, #8]
2400b9d0:	f04f 7380 	mov.w	r3, #16777216	; 0x1000000
2400b9d4:	fa93 f3a3 	rbit	r3, r3
2400b9d8:	fab3 f383 	clz	r3, r3
2400b9dc:	f44f 6c80 	mov.w	ip, #1024	; 0x400
2400b9e0:	3b01      	subs	r3, #1
2400b9e2:	6103      	str	r3, [r0, #16]
2400b9e4:	2300      	movs	r3, #0
2400b9e6:	e9c0 c305 	strd	ip, r3, [r0, #20]
2400b9ea:	e9c0 3307 	strd	r3, r3, [r0, #28]
2400b9ee:	f7fc fe97 	bl	24008720 <HAL_QSPI_Init>
2400b9f2:	b118      	cbz	r0, 2400b9fc <MX_QUADSPI_Init+0x40>
2400b9f4:	e8bd 4008 	ldmia.w	sp!, {r3, lr}
2400b9f8:	f7ff bec4 	b.w	2400b784 <Error_Handler>
2400b9fc:	bd08      	pop	{r3, pc}
2400b9fe:	bf00      	nop
2400ba00:	24000560 	.word	0x24000560
2400ba04:	52005000 	.word	0x52005000

2400ba08 <CSP_QUADSPI_Init>:
2400ba08:	b530      	push	{r4, r5, lr}
2400ba0a:	4d1d      	ldr	r5, [pc, #116]	; (2400ba80 <CSP_QUADSPI_Init+0x78>)
2400ba0c:	b08f      	sub	sp, #60	; 0x3c
2400ba0e:	4b1d      	ldr	r3, [pc, #116]	; (2400ba84 <CSP_QUADSPI_Init+0x7c>)
2400ba10:	4628      	mov	r0, r5
2400ba12:	602b      	str	r3, [r5, #0]
2400ba14:	f7fc fed3 	bl	240087be <HAL_QSPI_DeInit>
2400ba18:	4604      	mov	r4, r0
2400ba1a:	b9c0      	cbnz	r0, 2400ba4e <CSP_QUADSPI_Init+0x46>
2400ba1c:	f7ff ffce 	bl	2400b9bc <MX_QUADSPI_Init>
2400ba20:	f44f 7380 	mov.w	r3, #256	; 0x100
2400ba24:	f241 3288 	movw	r2, #5000	; 0x1388
2400ba28:	4669      	mov	r1, sp
2400ba2a:	9306      	str	r3, [sp, #24]
2400ba2c:	f44f 5300 	mov.w	r3, #8192	; 0x2000
2400ba30:	4628      	mov	r0, r5
2400ba32:	9408      	str	r4, [sp, #32]
2400ba34:	9303      	str	r3, [sp, #12]
2400ba36:	2366      	movs	r3, #102	; 0x66
2400ba38:	940d      	str	r4, [sp, #52]	; 0x34
2400ba3a:	9300      	str	r3, [sp, #0]
2400ba3c:	9407      	str	r4, [sp, #28]
2400ba3e:	9401      	str	r4, [sp, #4]
2400ba40:	9409      	str	r4, [sp, #36]	; 0x24
2400ba42:	9405      	str	r4, [sp, #20]
2400ba44:	e9cd 440b 	strd	r4, r4, [sp, #44]	; 0x2c
2400ba48:	f7fc feca 	bl	240087e0 <HAL_QSPI_Command>
2400ba4c:	b108      	cbz	r0, 2400ba52 <CSP_QUADSPI_Init+0x4a>
2400ba4e:	2001      	movs	r0, #1
2400ba50:	e013      	b.n	2400ba7a <CSP_QUADSPI_Init+0x72>
2400ba52:	23c8      	movs	r3, #200	; 0xc8
2400ba54:	bf00      	nop
2400ba56:	3b01      	subs	r3, #1
2400ba58:	d1fc      	bne.n	2400ba54 <CSP_QUADSPI_Init+0x4c>
2400ba5a:	2399      	movs	r3, #153	; 0x99
2400ba5c:	f241 3288 	movw	r2, #5000	; 0x1388
2400ba60:	4669      	mov	r1, sp
2400ba62:	4807      	ldr	r0, [pc, #28]	; (2400ba80 <CSP_QUADSPI_Init+0x78>)
2400ba64:	9300      	str	r3, [sp, #0]
2400ba66:	f7fc febb 	bl	240087e0 <HAL_QSPI_Command>
2400ba6a:	2800      	cmp	r0, #0
2400ba6c:	d1ef      	bne.n	2400ba4e <CSP_QUADSPI_Init+0x46>
2400ba6e:	f241 3088 	movw	r0, #5000	; 0x1388
2400ba72:	f7ff ff41 	bl	2400b8f8 <QSPI_AutoPollingMemReady>
2400ba76:	2800      	cmp	r0, #0
2400ba78:	d1e9      	bne.n	2400ba4e <CSP_QUADSPI_Init+0x46>
2400ba7a:	b00f      	add	sp, #60	; 0x3c
2400ba7c:	bd30      	pop	{r4, r5, pc}
2400ba7e:	bf00      	nop
2400ba80:	24000560 	.word	0x24000560
2400ba84:	52005000 	.word	0x52005000

2400ba88 <CSP_QSPI_Erase_Chip>:
2400ba88:	b500      	push	{lr}
2400ba8a:	23c7      	movs	r3, #199	; 0xc7
2400ba8c:	b08f      	sub	sp, #60	; 0x3c
2400ba8e:	9300      	str	r3, [sp, #0]
2400ba90:	f44f 7380 	mov.w	r3, #256	; 0x100
2400ba94:	9306      	str	r3, [sp, #24]
2400ba96:	2300      	movs	r3, #0
2400ba98:	9308      	str	r3, [sp, #32]
2400ba9a:	930d      	str	r3, [sp, #52]	; 0x34
2400ba9c:	9307      	str	r3, [sp, #28]
2400ba9e:	9301      	str	r3, [sp, #4]
2400baa0:	9309      	str	r3, [sp, #36]	; 0x24
2400baa2:	9305      	str	r3, [sp, #20]
2400baa4:	e9cd 330b 	strd	r3, r3, [sp, #44]	; 0x2c
2400baa8:	f7ff ff50 	bl	2400b94c <QSPI_WriteEnable>
2400baac:	b118      	cbz	r0, 2400bab6 <CSP_QSPI_Erase_Chip+0x2e>
2400baae:	2001      	movs	r0, #1
2400bab0:	b00f      	add	sp, #60	; 0x3c
2400bab2:	f85d fb04 	ldr.w	pc, [sp], #4
2400bab6:	f241 3288 	movw	r2, #5000	; 0x1388
2400baba:	4669      	mov	r1, sp
2400babc:	4805      	ldr	r0, [pc, #20]	; (2400bad4 <CSP_QSPI_Erase_Chip+0x4c>)
2400babe:	f7fc fe8f 	bl	240087e0 <HAL_QSPI_Command>
2400bac2:	2800      	cmp	r0, #0
2400bac4:	d1f3      	bne.n	2400baae <CSP_QSPI_Erase_Chip+0x26>
2400bac6:	4804      	ldr	r0, [pc, #16]	; (2400bad8 <CSP_QSPI_Erase_Chip+0x50>)
2400bac8:	f7ff ff16 	bl	2400b8f8 <QSPI_AutoPollingMemReady>
2400bacc:	3800      	subs	r0, #0
2400bace:	bf18      	it	ne
2400bad0:	2001      	movne	r0, #1
2400bad2:	e7ed      	b.n	2400bab0 <CSP_QSPI_Erase_Chip+0x28>
2400bad4:	24000560 	.word	0x24000560
2400bad8:	0003d090 	.word	0x0003d090

2400badc <CSP_QSPI_EraseSector>:
2400badc:	b570      	push	{r4, r5, r6, lr}
2400bade:	f44f 7380 	mov.w	r3, #256	; 0x100
2400bae2:	b08e      	sub	sp, #56	; 0x38
2400bae4:	22d8      	movs	r2, #216	; 0xd8
2400bae6:	0c04      	lsrs	r4, r0, #16
2400bae8:	9306      	str	r3, [sp, #24]
2400baea:	f44f 5300 	mov.w	r3, #8192	; 0x2000
2400baee:	9200      	str	r2, [sp, #0]
2400baf0:	460d      	mov	r5, r1
2400baf2:	f44f 6280 	mov.w	r2, #1024	; 0x400
2400baf6:	9303      	str	r3, [sp, #12]
2400baf8:	0424      	lsls	r4, r4, #16
2400bafa:	2300      	movs	r3, #0
2400bafc:	4e12      	ldr	r6, [pc, #72]	; (2400bb48 <CSP_QSPI_EraseSector+0x6c>)
2400bafe:	9308      	str	r3, [sp, #32]
2400bb00:	930d      	str	r3, [sp, #52]	; 0x34
2400bb02:	9207      	str	r2, [sp, #28]
2400bb04:	9309      	str	r3, [sp, #36]	; 0x24
2400bb06:	9305      	str	r3, [sp, #20]
2400bb08:	e9cd 330b 	strd	r3, r3, [sp, #44]	; 0x2c
2400bb0c:	42ac      	cmp	r4, r5
2400bb0e:	d901      	bls.n	2400bb14 <CSP_QSPI_EraseSector+0x38>
2400bb10:	2000      	movs	r0, #0
2400bb12:	e006      	b.n	2400bb22 <CSP_QSPI_EraseSector+0x46>
2400bb14:	f024 4370 	bic.w	r3, r4, #4026531840	; 0xf0000000
2400bb18:	9301      	str	r3, [sp, #4]
2400bb1a:	f7ff ff17 	bl	2400b94c <QSPI_WriteEnable>
2400bb1e:	b110      	cbz	r0, 2400bb26 <CSP_QSPI_EraseSector+0x4a>
2400bb20:	2001      	movs	r0, #1
2400bb22:	b00e      	add	sp, #56	; 0x38
2400bb24:	bd70      	pop	{r4, r5, r6, pc}
2400bb26:	f241 3288 	movw	r2, #5000	; 0x1388
2400bb2a:	4669      	mov	r1, sp
2400bb2c:	4630      	mov	r0, r6
2400bb2e:	f7fc fe57 	bl	240087e0 <HAL_QSPI_Command>
2400bb32:	2800      	cmp	r0, #0
2400bb34:	d1f4      	bne.n	2400bb20 <CSP_QSPI_EraseSector+0x44>
2400bb36:	f640 30b8 	movw	r0, #3000	; 0xbb8
2400bb3a:	f504 3480 	add.w	r4, r4, #65536	; 0x10000
2400bb3e:	f7ff fedb 	bl	2400b8f8 <QSPI_AutoPollingMemReady>
2400bb42:	2800      	cmp	r0, #0
2400bb44:	d0e2      	beq.n	2400bb0c <CSP_QSPI_EraseSector+0x30>
2400bb46:	e7eb      	b.n	2400bb20 <CSP_QSPI_EraseSector+0x44>
2400bb48:	24000560 	.word	0x24000560

2400bb4c <CSP_QSPI_WriteMemory>:
2400bb4c:	e92d 41f0 	stmdb	sp!, {r4, r5, r6, r7, r8, lr}
2400bb50:	4607      	mov	r7, r0
2400bb52:	b08e      	sub	sp, #56	; 0x38
2400bb54:	460e      	mov	r6, r1
2400bb56:	2400      	movs	r4, #0
2400bb58:	f504 7480 	add.w	r4, r4, #256	; 0x100
2400bb5c:	42a6      	cmp	r6, r4
2400bb5e:	d2fb      	bcs.n	2400bb58 <CSP_QSPI_WriteMemory+0xc>
2400bb60:	1ba4      	subs	r4, r4, r6
2400bb62:	f44f 7380 	mov.w	r3, #256	; 0x100
2400bb66:	18b5      	adds	r5, r6, r2
2400bb68:	f8df 8084 	ldr.w	r8, [pc, #132]	; 2400bbf0 <CSP_QSPI_WriteMemory+0xa4>
2400bb6c:	4294      	cmp	r4, r2
2400bb6e:	9306      	str	r3, [sp, #24]
2400bb70:	f44f 5300 	mov.w	r3, #8192	; 0x2000
2400bb74:	bf28      	it	cs
2400bb76:	4614      	movcs	r4, r2
2400bb78:	2232      	movs	r2, #50	; 0x32
2400bb7a:	9303      	str	r3, [sp, #12]
2400bb7c:	2300      	movs	r3, #0
2400bb7e:	9200      	str	r2, [sp, #0]
2400bb80:	f44f 6280 	mov.w	r2, #1024	; 0x400
2400bb84:	9308      	str	r3, [sp, #32]
2400bb86:	9207      	str	r2, [sp, #28]
2400bb88:	f04f 7240 	mov.w	r2, #50331648	; 0x3000000
2400bb8c:	930d      	str	r3, [sp, #52]	; 0x34
2400bb8e:	9209      	str	r2, [sp, #36]	; 0x24
2400bb90:	9305      	str	r3, [sp, #20]
2400bb92:	e9cd 330b 	strd	r3, r3, [sp, #44]	; 0x2c
2400bb96:	9601      	str	r6, [sp, #4]
2400bb98:	940a      	str	r4, [sp, #40]	; 0x28
2400bb9a:	b33c      	cbz	r4, 2400bbec <CSP_QSPI_WriteMemory+0xa0>
2400bb9c:	f7ff fed6 	bl	2400b94c <QSPI_WriteEnable>
2400bba0:	b118      	cbz	r0, 2400bbaa <CSP_QSPI_WriteMemory+0x5e>
2400bba2:	2001      	movs	r0, #1
2400bba4:	b00e      	add	sp, #56	; 0x38
2400bba6:	e8bd 81f0 	ldmia.w	sp!, {r4, r5, r6, r7, r8, pc}
2400bbaa:	f241 3288 	movw	r2, #5000	; 0x1388
2400bbae:	4669      	mov	r1, sp
2400bbb0:	4640      	mov	r0, r8
2400bbb2:	f7fc fe15 	bl	240087e0 <HAL_QSPI_Command>
2400bbb6:	2800      	cmp	r0, #0
2400bbb8:	d1f3      	bne.n	2400bba2 <CSP_QSPI_WriteMemory+0x56>
2400bbba:	f241 3288 	movw	r2, #5000	; 0x1388
2400bbbe:	4639      	mov	r1, r7
2400bbc0:	4640      	mov	r0, r8
2400bbc2:	f7fc fe91 	bl	240088e8 <HAL_QSPI_Transmit>
2400bbc6:	2800      	cmp	r0, #0
2400bbc8:	d1eb      	bne.n	2400bba2 <CSP_QSPI_WriteMemory+0x56>
2400bbca:	f241 3088 	movw	r0, #5000	; 0x1388
2400bbce:	f7ff fe93 	bl	2400b8f8 <QSPI_AutoPollingMemReady>
2400bbd2:	2800      	cmp	r0, #0
2400bbd4:	d1e5      	bne.n	2400bba2 <CSP_QSPI_WriteMemory+0x56>
2400bbd6:	4426      	add	r6, r4
2400bbd8:	4427      	add	r7, r4
2400bbda:	f506 7380 	add.w	r3, r6, #256	; 0x100
2400bbde:	42ab      	cmp	r3, r5
2400bbe0:	bf8c      	ite	hi
2400bbe2:	1bac      	subhi	r4, r5, r6
2400bbe4:	f44f 7480 	movls.w	r4, #256	; 0x100
2400bbe8:	42b5      	cmp	r5, r6
2400bbea:	d2d4      	bcs.n	2400bb96 <CSP_QSPI_WriteMemory+0x4a>
2400bbec:	2000      	movs	r0, #0
2400bbee:	e7d9      	b.n	2400bba4 <CSP_QSPI_WriteMemory+0x58>
2400bbf0:	24000560 	.word	0x24000560

2400bbf4 <CSP_QSPI_EnableMemoryMappedMode>:
2400bbf4:	b500      	push	{lr}
2400bbf6:	f44f 7380 	mov.w	r3, #256	; 0x100
2400bbfa:	b091      	sub	sp, #68	; 0x44
2400bbfc:	f04f 7240 	mov.w	r2, #50331648	; 0x3000000
2400bc00:	4810      	ldr	r0, [pc, #64]	; (2400bc44 <CSP_QSPI_EnableMemoryMappedMode+0x50>)
2400bc02:	9308      	str	r3, [sp, #32]
2400bc04:	23eb      	movs	r3, #235	; 0xeb
2400bc06:	920b      	str	r2, [sp, #44]	; 0x2c
2400bc08:	2208      	movs	r2, #8
2400bc0a:	9302      	str	r3, [sp, #8]
2400bc0c:	f44f 6340 	mov.w	r3, #3072	; 0xc00
2400bc10:	9207      	str	r2, [sp, #28]
2400bc12:	a902      	add	r1, sp, #8
2400bc14:	9309      	str	r3, [sp, #36]	; 0x24
2400bc16:	f44f 5300 	mov.w	r3, #8192	; 0x2000
2400bc1a:	466a      	mov	r2, sp
2400bc1c:	9305      	str	r3, [sp, #20]
2400bc1e:	f44f 4340 	mov.w	r3, #49152	; 0xc000
2400bc22:	930a      	str	r3, [sp, #40]	; 0x28
2400bc24:	2300      	movs	r3, #0
2400bc26:	9306      	str	r3, [sp, #24]
2400bc28:	9304      	str	r3, [sp, #16]
2400bc2a:	930f      	str	r3, [sp, #60]	; 0x3c
2400bc2c:	9301      	str	r3, [sp, #4]
2400bc2e:	e9cd 330d 	strd	r3, r3, [sp, #52]	; 0x34
2400bc32:	f7fd f945 	bl	24008ec0 <HAL_QSPI_MemoryMapped>
2400bc36:	3800      	subs	r0, #0
2400bc38:	bf18      	it	ne
2400bc3a:	2001      	movne	r0, #1
2400bc3c:	b011      	add	sp, #68	; 0x44
2400bc3e:	f85d fb04 	ldr.w	pc, [sp], #4
2400bc42:	bf00      	nop
2400bc44:	24000560 	.word	0x24000560

2400bc48 <HAL_QSPI_MspInit>:
2400bc48:	b5f0      	push	{r4, r5, r6, r7, lr}
2400bc4a:	b089      	sub	sp, #36	; 0x24
2400bc4c:	4604      	mov	r4, r0
2400bc4e:	2214      	movs	r2, #20
2400bc50:	2100      	movs	r1, #0
2400bc52:	a803      	add	r0, sp, #12
2400bc54:	f000 fa4a 	bl	2400c0ec <memset>
2400bc58:	6822      	ldr	r2, [r4, #0]
2400bc5a:	4b28      	ldr	r3, [pc, #160]	; (2400bcfc <HAL_QSPI_MspInit+0xb4>)
2400bc5c:	429a      	cmp	r2, r3
2400bc5e:	d14a      	bne.n	2400bcf6 <HAL_QSPI_MspInit+0xae>
2400bc60:	4b27      	ldr	r3, [pc, #156]	; (2400bd00 <HAL_QSPI_MspInit+0xb8>)
2400bc62:	2502      	movs	r5, #2
2400bc64:	2403      	movs	r4, #3
2400bc66:	2609      	movs	r6, #9
2400bc68:	f8d3 20d4 	ldr.w	r2, [r3, #212]	; 0xd4
2400bc6c:	a903      	add	r1, sp, #12
2400bc6e:	4825      	ldr	r0, [pc, #148]	; (2400bd04 <HAL_QSPI_MspInit+0xbc>)
2400bc70:	2700      	movs	r7, #0
2400bc72:	f442 4280 	orr.w	r2, r2, #16384	; 0x4000
2400bc76:	f8c3 20d4 	str.w	r2, [r3, #212]	; 0xd4
2400bc7a:	f8d3 20d4 	ldr.w	r2, [r3, #212]	; 0xd4
2400bc7e:	f402 4280 	and.w	r2, r2, #16384	; 0x4000
2400bc82:	9200      	str	r2, [sp, #0]
2400bc84:	9a00      	ldr	r2, [sp, #0]
2400bc86:	f8d3 20e0 	ldr.w	r2, [r3, #224]	; 0xe0
2400bc8a:	f042 0220 	orr.w	r2, r2, #32
2400bc8e:	f8c3 20e0 	str.w	r2, [r3, #224]	; 0xe0
2400bc92:	f8d3 20e0 	ldr.w	r2, [r3, #224]	; 0xe0
2400bc96:	f002 0220 	and.w	r2, r2, #32
2400bc9a:	9201      	str	r2, [sp, #4]
2400bc9c:	9a01      	ldr	r2, [sp, #4]
2400bc9e:	f8d3 20e0 	ldr.w	r2, [r3, #224]	; 0xe0
2400bca2:	f042 0202 	orr.w	r2, r2, #2
2400bca6:	f8c3 20e0 	str.w	r2, [r3, #224]	; 0xe0
2400bcaa:	f8d3 30e0 	ldr.w	r3, [r3, #224]	; 0xe0
2400bcae:	9607      	str	r6, [sp, #28]
2400bcb0:	f003 0302 	and.w	r3, r3, #2
2400bcb4:	9302      	str	r3, [sp, #8]
2400bcb6:	9b02      	ldr	r3, [sp, #8]
2400bcb8:	23c0      	movs	r3, #192	; 0xc0
2400bcba:	e9cd 3503 	strd	r3, r5, [sp, #12]
2400bcbe:	2301      	movs	r3, #1
2400bcc0:	e9cd 3405 	strd	r3, r4, [sp, #20]
2400bcc4:	f7f8 fa38 	bl	24004138 <HAL_GPIO_Init>
2400bcc8:	f44f 7340 	mov.w	r3, #768	; 0x300
2400bccc:	a903      	add	r1, sp, #12
2400bcce:	480d      	ldr	r0, [pc, #52]	; (2400bd04 <HAL_QSPI_MspInit+0xbc>)
2400bcd0:	e9cd 3503 	strd	r3, r5, [sp, #12]
2400bcd4:	230a      	movs	r3, #10
2400bcd6:	e9cd 7405 	strd	r7, r4, [sp, #20]
2400bcda:	9307      	str	r3, [sp, #28]
2400bcdc:	f7f8 fa2c 	bl	24004138 <HAL_GPIO_Init>
2400bce0:	f240 4304 	movw	r3, #1028	; 0x404
2400bce4:	a903      	add	r1, sp, #12
2400bce6:	4808      	ldr	r0, [pc, #32]	; (2400bd08 <HAL_QSPI_MspInit+0xc0>)
2400bce8:	9607      	str	r6, [sp, #28]
2400bcea:	e9cd 3503 	strd	r3, r5, [sp, #12]
2400bcee:	e9cd 7405 	strd	r7, r4, [sp, #20]
2400bcf2:	f7f8 fa21 	bl	24004138 <HAL_GPIO_Init>
2400bcf6:	b009      	add	sp, #36	; 0x24
2400bcf8:	bdf0      	pop	{r4, r5, r6, r7, pc}
2400bcfa:	bf00      	nop
2400bcfc:	52005000 	.word	0x52005000
2400bd00:	58024400 	.word	0x58024400
2400bd04:	58021400 	.word	0x58021400
2400bd08:	58020400 	.word	0x58020400

2400bd0c <HAL_QSPI_MspDeInit>:
2400bd0c:	6802      	ldr	r2, [r0, #0]
2400bd0e:	b508      	push	{r3, lr}
2400bd10:	4b0b      	ldr	r3, [pc, #44]	; (2400bd40 <HAL_QSPI_MspDeInit+0x34>)
2400bd12:	429a      	cmp	r2, r3
2400bd14:	d112      	bne.n	2400bd3c <HAL_QSPI_MspDeInit+0x30>
2400bd16:	4a0b      	ldr	r2, [pc, #44]	; (2400bd44 <HAL_QSPI_MspDeInit+0x38>)
2400bd18:	f44f 7170 	mov.w	r1, #960	; 0x3c0
2400bd1c:	480a      	ldr	r0, [pc, #40]	; (2400bd48 <HAL_QSPI_MspDeInit+0x3c>)
2400bd1e:	f8d2 30d4 	ldr.w	r3, [r2, #212]	; 0xd4
2400bd22:	f423 4380 	bic.w	r3, r3, #16384	; 0x4000
2400bd26:	f8c2 30d4 	str.w	r3, [r2, #212]	; 0xd4
2400bd2a:	f7f8 faef 	bl	2400430c <HAL_GPIO_DeInit>
2400bd2e:	f240 4104 	movw	r1, #1028	; 0x404
2400bd32:	4806      	ldr	r0, [pc, #24]	; (2400bd4c <HAL_QSPI_MspDeInit+0x40>)
2400bd34:	e8bd 4008 	ldmia.w	sp!, {r3, lr}
2400bd38:	f7f8 bae8 	b.w	2400430c <HAL_GPIO_DeInit>
2400bd3c:	bd08      	pop	{r3, pc}
2400bd3e:	bf00      	nop
2400bd40:	52005000 	.word	0x52005000
2400bd44:	58024400 	.word	0x58024400
2400bd48:	58021400 	.word	0x58021400
2400bd4c:	58020400 	.word	0x58020400

2400bd50 <HAL_MspInit>:
2400bd50:	4b07      	ldr	r3, [pc, #28]	; (2400bd70 <HAL_MspInit+0x20>)
2400bd52:	b082      	sub	sp, #8
2400bd54:	f8d3 20f4 	ldr.w	r2, [r3, #244]	; 0xf4
2400bd58:	f042 0202 	orr.w	r2, r2, #2
2400bd5c:	f8c3 20f4 	str.w	r2, [r3, #244]	; 0xf4
2400bd60:	f8d3 30f4 	ldr.w	r3, [r3, #244]	; 0xf4
2400bd64:	f003 0302 	and.w	r3, r3, #2
2400bd68:	9301      	str	r3, [sp, #4]
2400bd6a:	9b01      	ldr	r3, [sp, #4]
2400bd6c:	b002      	add	sp, #8
2400bd6e:	4770      	bx	lr
2400bd70:	58024400 	.word	0x58024400

2400bd74 <NMI_Handler>:
2400bd74:	4770      	bx	lr

2400bd76 <HardFault_Handler>:
2400bd76:	e7fe      	b.n	2400bd76 <HardFault_Handler>

2400bd78 <MemManage_Handler>:
2400bd78:	e7fe      	b.n	2400bd78 <MemManage_Handler>

2400bd7a <BusFault_Handler>:
2400bd7a:	e7fe      	b.n	2400bd7a <BusFault_Handler>

2400bd7c <UsageFault_Handler>:
2400bd7c:	e7fe      	b.n	2400bd7c <UsageFault_Handler>

2400bd7e <SVC_Handler>:
2400bd7e:	4770      	bx	lr

2400bd80 <DebugMon_Handler>:
2400bd80:	4770      	bx	lr

2400bd82 <PendSV_Handler>:
2400bd82:	4770      	bx	lr

2400bd84 <SysTick_Handler>:
2400bd84:	f7f4 bd02 	b.w	2400078c <HAL_IncTick>

2400bd88 <initialise_monitor_handles>:
2400bd88:	4770      	bx	lr

2400bd8a <_getpid>:
2400bd8a:	2001      	movs	r0, #1
2400bd8c:	4770      	bx	lr

2400bd8e <_kill>:
2400bd8e:	b508      	push	{r3, lr}
2400bd90:	f000 f96e 	bl	2400c070 <__errno>
2400bd94:	2316      	movs	r3, #22
2400bd96:	6003      	str	r3, [r0, #0]
2400bd98:	f04f 30ff 	mov.w	r0, #4294967295
2400bd9c:	bd08      	pop	{r3, pc}

2400bd9e <_exit>:
2400bd9e:	b508      	push	{r3, lr}
2400bda0:	f000 f966 	bl	2400c070 <__errno>
2400bda4:	2316      	movs	r3, #22
2400bda6:	6003      	str	r3, [r0, #0]
2400bda8:	e7fe      	b.n	2400bda8 <_exit+0xa>

2400bdaa <_read>:
2400bdaa:	b570      	push	{r4, r5, r6, lr}
2400bdac:	460d      	mov	r5, r1
2400bdae:	4614      	mov	r4, r2
2400bdb0:	460e      	mov	r6, r1
2400bdb2:	1b73      	subs	r3, r6, r5
2400bdb4:	429c      	cmp	r4, r3
2400bdb6:	dc01      	bgt.n	2400bdbc <_read+0x12>
2400bdb8:	4620      	mov	r0, r4
2400bdba:	bd70      	pop	{r4, r5, r6, pc}
2400bdbc:	f3af 8000 	nop.w
2400bdc0:	f806 0b01 	strb.w	r0, [r6], #1
2400bdc4:	e7f5      	b.n	2400bdb2 <_read+0x8>

2400bdc6 <_write>:
2400bdc6:	b570      	push	{r4, r5, r6, lr}
2400bdc8:	460d      	mov	r5, r1
2400bdca:	4614      	mov	r4, r2
2400bdcc:	460e      	mov	r6, r1
2400bdce:	1b73      	subs	r3, r6, r5
2400bdd0:	429c      	cmp	r4, r3
2400bdd2:	dc01      	bgt.n	2400bdd8 <_write+0x12>
2400bdd4:	4620      	mov	r0, r4
2400bdd6:	bd70      	pop	{r4, r5, r6, pc}
2400bdd8:	f816 0b01 	ldrb.w	r0, [r6], #1
2400bddc:	f7ff fcc0 	bl	2400b760 <__io_putchar>
2400bde0:	e7f5      	b.n	2400bdce <_write+0x8>

2400bde2 <_close>:
2400bde2:	f04f 30ff 	mov.w	r0, #4294967295
2400bde6:	4770      	bx	lr

2400bde8 <_fstat>:
2400bde8:	f44f 5300 	mov.w	r3, #8192	; 0x2000
2400bdec:	2000      	movs	r0, #0
2400bdee:	604b      	str	r3, [r1, #4]
2400bdf0:	4770      	bx	lr

2400bdf2 <_isatty>:
2400bdf2:	2001      	movs	r0, #1
2400bdf4:	4770      	bx	lr

2400bdf6 <_lseek>:
2400bdf6:	2000      	movs	r0, #0
2400bdf8:	4770      	bx	lr

2400bdfa <_open>:
2400bdfa:	f04f 30ff 	mov.w	r0, #4294967295
2400bdfe:	b40e      	push	{r1, r2, r3}
2400be00:	b003      	add	sp, #12
2400be02:	4770      	bx	lr

2400be04 <_wait>:
2400be04:	b508      	push	{r3, lr}
2400be06:	f000 f933 	bl	2400c070 <__errno>
2400be0a:	230a      	movs	r3, #10
2400be0c:	6003      	str	r3, [r0, #0]
2400be0e:	f04f 30ff 	mov.w	r0, #4294967295
2400be12:	bd08      	pop	{r3, pc}

2400be14 <_unlink>:
2400be14:	b508      	push	{r3, lr}
2400be16:	f000 f92b 	bl	2400c070 <__errno>
2400be1a:	2302      	movs	r3, #2
2400be1c:	6003      	str	r3, [r0, #0]
2400be1e:	f04f 30ff 	mov.w	r0, #4294967295
2400be22:	bd08      	pop	{r3, pc}

2400be24 <_times>:
2400be24:	f04f 30ff 	mov.w	r0, #4294967295
2400be28:	4770      	bx	lr

2400be2a <_stat>:
2400be2a:	f44f 5300 	mov.w	r3, #8192	; 0x2000
2400be2e:	2000      	movs	r0, #0
2400be30:	604b      	str	r3, [r1, #4]
2400be32:	4770      	bx	lr

2400be34 <_link>:
2400be34:	b508      	push	{r3, lr}
2400be36:	f000 f91b 	bl	2400c070 <__errno>
2400be3a:	231f      	movs	r3, #31
2400be3c:	6003      	str	r3, [r0, #0]
2400be3e:	f04f 30ff 	mov.w	r0, #4294967295
2400be42:	bd08      	pop	{r3, pc}

2400be44 <_fork>:
2400be44:	b508      	push	{r3, lr}
2400be46:	f000 f913 	bl	2400c070 <__errno>
2400be4a:	230b      	movs	r3, #11
2400be4c:	6003      	str	r3, [r0, #0]
2400be4e:	f04f 30ff 	mov.w	r0, #4294967295
2400be52:	bd08      	pop	{r3, pc}

2400be54 <_execve>:
2400be54:	b508      	push	{r3, lr}
2400be56:	f000 f90b 	bl	2400c070 <__errno>
2400be5a:	230c      	movs	r3, #12
2400be5c:	6003      	str	r3, [r0, #0]
2400be5e:	f04f 30ff 	mov.w	r0, #4294967295
2400be62:	bd08      	pop	{r3, pc}

2400be64 <SystemInit>:
2400be64:	4918      	ldr	r1, [pc, #96]	; (2400bec8 <SystemInit+0x64>)
2400be66:	4819      	ldr	r0, [pc, #100]	; (2400becc <SystemInit+0x68>)
2400be68:	f8d1 3088 	ldr.w	r3, [r1, #136]	; 0x88
2400be6c:	f443 0370 	orr.w	r3, r3, #15728640	; 0xf00000
2400be70:	b510      	push	{r4, lr}
2400be72:	f8c1 3088 	str.w	r3, [r1, #136]	; 0x88
2400be76:	4b16      	ldr	r3, [pc, #88]	; (2400bed0 <SystemInit+0x6c>)
2400be78:	681a      	ldr	r2, [r3, #0]
2400be7a:	f042 0201 	orr.w	r2, r2, #1
2400be7e:	601a      	str	r2, [r3, #0]
2400be80:	2200      	movs	r2, #0
2400be82:	611a      	str	r2, [r3, #16]
2400be84:	681c      	ldr	r4, [r3, #0]
2400be86:	4020      	ands	r0, r4
2400be88:	6018      	str	r0, [r3, #0]
2400be8a:	619a      	str	r2, [r3, #24]
2400be8c:	61da      	str	r2, [r3, #28]
2400be8e:	621a      	str	r2, [r3, #32]
2400be90:	629a      	str	r2, [r3, #40]	; 0x28
2400be92:	62da      	str	r2, [r3, #44]	; 0x2c
2400be94:	631a      	str	r2, [r3, #48]	; 0x30
2400be96:	635a      	str	r2, [r3, #52]	; 0x34
2400be98:	639a      	str	r2, [r3, #56]	; 0x38
2400be9a:	63da      	str	r2, [r3, #60]	; 0x3c
2400be9c:	641a      	str	r2, [r3, #64]	; 0x40
2400be9e:	645a      	str	r2, [r3, #68]	; 0x44
2400bea0:	6818      	ldr	r0, [r3, #0]
2400bea2:	f420 2080 	bic.w	r0, r0, #262144	; 0x40000
2400bea6:	6018      	str	r0, [r3, #0]
2400bea8:	661a      	str	r2, [r3, #96]	; 0x60
2400beaa:	4b0a      	ldr	r3, [pc, #40]	; (2400bed4 <SystemInit+0x70>)
2400beac:	681b      	ldr	r3, [r3, #0]
2400beae:	0c1b      	lsrs	r3, r3, #16
2400beb0:	041b      	lsls	r3, r3, #16
2400beb2:	f1b3 5f00 	cmp.w	r3, #536870912	; 0x20000000
2400beb6:	d203      	bcs.n	2400bec0 <SystemInit+0x5c>
2400beb8:	4b07      	ldr	r3, [pc, #28]	; (2400bed8 <SystemInit+0x74>)
2400beba:	2201      	movs	r2, #1
2400bebc:	f8c3 2108 	str.w	r2, [r3, #264]	; 0x108
2400bec0:	f04f 6300 	mov.w	r3, #134217728	; 0x8000000
2400bec4:	608b      	str	r3, [r1, #8]
2400bec6:	bd10      	pop	{r4, pc}
2400bec8:	e000ed00 	.word	0xe000ed00
2400becc:	eaf6ed7f 	.word	0xeaf6ed7f
2400bed0:	58024400 	.word	0x58024400
2400bed4:	5c001000 	.word	0x5c001000
2400bed8:	51008000 	.word	0x51008000

2400bedc <SystemCoreClockUpdate>:
2400bedc:	4a46      	ldr	r2, [pc, #280]	; (2400bff8 <SystemCoreClockUpdate+0x11c>)
2400bede:	6913      	ldr	r3, [r2, #16]
2400bee0:	f003 0338 	and.w	r3, r3, #56	; 0x38
2400bee4:	2b10      	cmp	r3, #16
2400bee6:	b530      	push	{r4, r5, lr}
2400bee8:	f000 8082 	beq.w	2400bff0 <SystemCoreClockUpdate+0x114>
2400beec:	2b18      	cmp	r3, #24
2400beee:	d01a      	beq.n	2400bf26 <SystemCoreClockUpdate+0x4a>
2400bef0:	2b00      	cmp	r3, #0
2400bef2:	d17f      	bne.n	2400bff4 <SystemCoreClockUpdate+0x118>
2400bef4:	6812      	ldr	r2, [r2, #0]
2400bef6:	4b41      	ldr	r3, [pc, #260]	; (2400bffc <SystemCoreClockUpdate+0x120>)
2400bef8:	f3c2 02c1 	ubfx	r2, r2, #3, #2
2400befc:	40d3      	lsrs	r3, r2
2400befe:	483e      	ldr	r0, [pc, #248]	; (2400bff8 <SystemCoreClockUpdate+0x11c>)
2400bf00:	493f      	ldr	r1, [pc, #252]	; (2400c000 <SystemCoreClockUpdate+0x124>)
2400bf02:	6982      	ldr	r2, [r0, #24]
2400bf04:	f3c2 2203 	ubfx	r2, r2, #8, #4
2400bf08:	5c8a      	ldrb	r2, [r1, r2]
2400bf0a:	40d3      	lsrs	r3, r2
2400bf0c:	6982      	ldr	r2, [r0, #24]
2400bf0e:	f002 020f 	and.w	r2, r2, #15
2400bf12:	5c8a      	ldrb	r2, [r1, r2]
2400bf14:	493b      	ldr	r1, [pc, #236]	; (2400c004 <SystemCoreClockUpdate+0x128>)
2400bf16:	f002 021f 	and.w	r2, r2, #31
2400bf1a:	fa23 f202 	lsr.w	r2, r3, r2
2400bf1e:	600a      	str	r2, [r1, #0]
2400bf20:	4a39      	ldr	r2, [pc, #228]	; (2400c008 <SystemCoreClockUpdate+0x12c>)
2400bf22:	6013      	str	r3, [r2, #0]
2400bf24:	bd30      	pop	{r4, r5, pc}
2400bf26:	6a90      	ldr	r0, [r2, #40]	; 0x28
2400bf28:	6a95      	ldr	r5, [r2, #40]	; 0x28
2400bf2a:	6ad4      	ldr	r4, [r2, #44]	; 0x2c
2400bf2c:	f415 7f7c 	tst.w	r5, #1008	; 0x3f0
2400bf30:	f3c5 1305 	ubfx	r3, r5, #4, #6
2400bf34:	6b51      	ldr	r1, [r2, #52]	; 0x34
2400bf36:	d0e2      	beq.n	2400befe <SystemCoreClockUpdate+0x22>
2400bf38:	ee07 3a90 	vmov	s15, r3
2400bf3c:	f3c1 03cc 	ubfx	r3, r1, #3, #13
2400bf40:	f004 0101 	and.w	r1, r4, #1
2400bf44:	f000 0003 	and.w	r0, r0, #3
2400bf48:	eef8 6ae7 	vcvt.f32.s32	s13, s15
2400bf4c:	434b      	muls	r3, r1
2400bf4e:	2801      	cmp	r0, #1
2400bf50:	eef7 5a00 	vmov.f32	s11, #112	; 0x3f800000  1.0
2400bf54:	ee07 3a90 	vmov	s15, r3
2400bf58:	eefa 7ae9 	vcvt.f32.s32	s15, s15, #13
2400bf5c:	d03a      	beq.n	2400bfd4 <SystemCoreClockUpdate+0xf8>
2400bf5e:	2802      	cmp	r0, #2
2400bf60:	d028      	beq.n	2400bfb4 <SystemCoreClockUpdate+0xd8>
2400bf62:	bbb8      	cbnz	r0, 2400bfd4 <SystemCoreClockUpdate+0xf8>
2400bf64:	6811      	ldr	r1, [r2, #0]
2400bf66:	6b13      	ldr	r3, [r2, #48]	; 0x30
2400bf68:	f3c1 01c1 	ubfx	r1, r1, #3, #2
2400bf6c:	4a23      	ldr	r2, [pc, #140]	; (2400bffc <SystemCoreClockUpdate+0x120>)
2400bf6e:	f3c3 0308 	ubfx	r3, r3, #0, #9
2400bf72:	40ca      	lsrs	r2, r1
2400bf74:	ee07 2a10 	vmov	s14, r2
2400bf78:	eeb8 6ac7 	vcvt.f32.s32	s12, s14
2400bf7c:	ee86 7a26 	vdiv.f32	s14, s12, s13
2400bf80:	ee06 3a90 	vmov	s13, r3
2400bf84:	eef8 6ae6 	vcvt.f32.s32	s13, s13
2400bf88:	ee76 7aa7 	vadd.f32	s15, s13, s15
2400bf8c:	ee77 7aa5 	vadd.f32	s15, s15, s11
2400bf90:	4b19      	ldr	r3, [pc, #100]	; (2400bff8 <SystemCoreClockUpdate+0x11c>)
2400bf92:	ee67 7a87 	vmul.f32	s15, s15, s14
2400bf96:	6b1b      	ldr	r3, [r3, #48]	; 0x30
2400bf98:	f3c3 2346 	ubfx	r3, r3, #9, #7
2400bf9c:	3301      	adds	r3, #1
2400bf9e:	ee07 3a10 	vmov	s14, r3
2400bfa2:	eef8 6ac7 	vcvt.f32.s32	s13, s14
2400bfa6:	ee87 7aa6 	vdiv.f32	s14, s15, s13
2400bfaa:	eefc 7ac7 	vcvt.u32.f32	s15, s14
2400bfae:	ee17 3a90 	vmov	r3, s15
2400bfb2:	e7a4      	b.n	2400befe <SystemCoreClockUpdate+0x22>
2400bfb4:	6b13      	ldr	r3, [r2, #48]	; 0x30
2400bfb6:	ed9f 6a15 	vldr	s12, [pc, #84]	; 2400c00c <SystemCoreClockUpdate+0x130>
2400bfba:	f3c3 0308 	ubfx	r3, r3, #0, #9
2400bfbe:	ee07 3a10 	vmov	s14, r3
2400bfc2:	eeb8 7ac7 	vcvt.f32.s32	s14, s14
2400bfc6:	ee77 7a27 	vadd.f32	s15, s14, s15
2400bfca:	ee77 7aa5 	vadd.f32	s15, s15, s11
2400bfce:	ee86 7a26 	vdiv.f32	s14, s12, s13
2400bfd2:	e7dd      	b.n	2400bf90 <SystemCoreClockUpdate+0xb4>
2400bfd4:	6b13      	ldr	r3, [r2, #48]	; 0x30
2400bfd6:	ed9f 6a0e 	vldr	s12, [pc, #56]	; 2400c010 <SystemCoreClockUpdate+0x134>
2400bfda:	f3c3 0308 	ubfx	r3, r3, #0, #9
2400bfde:	ee07 3a10 	vmov	s14, r3
2400bfe2:	eeb8 7ac7 	vcvt.f32.s32	s14, s14
2400bfe6:	ee77 7a27 	vadd.f32	s15, s14, s15
2400bfea:	ee77 7aa5 	vadd.f32	s15, s15, s11
2400bfee:	e7ee      	b.n	2400bfce <SystemCoreClockUpdate+0xf2>
2400bff0:	4b08      	ldr	r3, [pc, #32]	; (2400c014 <SystemCoreClockUpdate+0x138>)
2400bff2:	e784      	b.n	2400befe <SystemCoreClockUpdate+0x22>
2400bff4:	4b08      	ldr	r3, [pc, #32]	; (2400c018 <SystemCoreClockUpdate+0x13c>)
2400bff6:	e782      	b.n	2400befe <SystemCoreClockUpdate+0x22>
2400bff8:	58024400 	.word	0x58024400
2400bffc:	03d09000 	.word	0x03d09000
2400c000:	2400c230 	.word	0x2400c230
2400c004:	240004bc 	.word	0x240004bc
2400c008:	240004b8 	.word	0x240004b8
2400c00c:	4bbebc20 	.word	0x4bbebc20
2400c010:	4a742400 	.word	0x4a742400
2400c014:	017d7840 	.word	0x017d7840
2400c018:	003d0900 	.word	0x003d0900

2400c01c <Reset_Handler>:
2400c01c:	f8df d034 	ldr.w	sp, [pc, #52]	; 2400c054 <LoopFillZerobss+0x14>
2400c020:	2100      	movs	r1, #0
2400c022:	e003      	b.n	2400c02c <LoopCopyDataInit>

2400c024 <CopyDataInit>:
2400c024:	4b0c      	ldr	r3, [pc, #48]	; (2400c058 <LoopFillZerobss+0x18>)
2400c026:	585b      	ldr	r3, [r3, r1]
2400c028:	5043      	str	r3, [r0, r1]
2400c02a:	3104      	adds	r1, #4

2400c02c <LoopCopyDataInit>:
2400c02c:	480b      	ldr	r0, [pc, #44]	; (2400c05c <LoopFillZerobss+0x1c>)
2400c02e:	4b0c      	ldr	r3, [pc, #48]	; (2400c060 <LoopFillZerobss+0x20>)
2400c030:	1842      	adds	r2, r0, r1
2400c032:	429a      	cmp	r2, r3
2400c034:	d3f6      	bcc.n	2400c024 <CopyDataInit>
2400c036:	4a0b      	ldr	r2, [pc, #44]	; (2400c064 <LoopFillZerobss+0x24>)
2400c038:	e002      	b.n	2400c040 <LoopFillZerobss>

2400c03a <FillZerobss>:
2400c03a:	2300      	movs	r3, #0
2400c03c:	f842 3b04 	str.w	r3, [r2], #4

2400c040 <LoopFillZerobss>:
2400c040:	4b09      	ldr	r3, [pc, #36]	; (2400c068 <LoopFillZerobss+0x28>)
2400c042:	429a      	cmp	r2, r3
2400c044:	d3f9      	bcc.n	2400c03a <FillZerobss>
2400c046:	f7ff ff0d 	bl	2400be64 <SystemInit>
2400c04a:	f000 f82b 	bl	2400c0a4 <__libc_init_array>
2400c04e:	f7ff fa73 	bl	2400b538 <Init>
2400c052:	4770      	bx	lr
2400c054:	24080004 	.word	0x24080004
2400c058:	240004a8 	.word	0x240004a8
2400c05c:	240004a8 	.word	0x240004a8
2400c060:	24000524 	.word	0x24000524
2400c064:	24000524 	.word	0x24000524
2400c068:	240005b0 	.word	0x240005b0

2400c06c <ADC3_IRQHandler>:
2400c06c:	e7fe      	b.n	2400c06c <ADC3_IRQHandler>
	...

2400c070 <__errno>:
2400c070:	4b01      	ldr	r3, [pc, #4]	; (2400c078 <__errno+0x8>)
2400c072:	6818      	ldr	r0, [r3, #0]
2400c074:	4770      	bx	lr
2400c076:	bf00      	nop
2400c078:	240004c0 	.word	0x240004c0

2400c07c <exit>:
2400c07c:	b508      	push	{r3, lr}
2400c07e:	4b07      	ldr	r3, [pc, #28]	; (2400c09c <exit+0x20>)
2400c080:	4604      	mov	r4, r0
2400c082:	b113      	cbz	r3, 2400c08a <exit+0xe>
2400c084:	2100      	movs	r1, #0
2400c086:	f3af 8000 	nop.w
2400c08a:	4b05      	ldr	r3, [pc, #20]	; (2400c0a0 <exit+0x24>)
2400c08c:	6818      	ldr	r0, [r3, #0]
2400c08e:	6a83      	ldr	r3, [r0, #40]	; 0x28
2400c090:	b103      	cbz	r3, 2400c094 <exit+0x18>
2400c092:	4798      	blx	r3
2400c094:	4620      	mov	r0, r4
2400c096:	f7ff fe82 	bl	2400bd9e <_exit>
2400c09a:	bf00      	nop
2400c09c:	00000000 	.word	0x00000000
2400c0a0:	2400c240 	.word	0x2400c240

2400c0a4 <__libc_init_array>:
2400c0a4:	b570      	push	{r4, r5, r6, lr}
2400c0a6:	4d0d      	ldr	r5, [pc, #52]	; (2400c0dc <__libc_init_array+0x38>)
2400c0a8:	4c0d      	ldr	r4, [pc, #52]	; (2400c0e0 <__libc_init_array+0x3c>)
2400c0aa:	1b64      	subs	r4, r4, r5
2400c0ac:	10a4      	asrs	r4, r4, #2
2400c0ae:	2600      	movs	r6, #0
2400c0b0:	42a6      	cmp	r6, r4
2400c0b2:	d109      	bne.n	2400c0c8 <__libc_init_array+0x24>
2400c0b4:	4d0b      	ldr	r5, [pc, #44]	; (2400c0e4 <__libc_init_array+0x40>)
2400c0b6:	4c0c      	ldr	r4, [pc, #48]	; (2400c0e8 <__libc_init_array+0x44>)
2400c0b8:	f000 f822 	bl	2400c100 <_init>
2400c0bc:	1b64      	subs	r4, r4, r5
2400c0be:	10a4      	asrs	r4, r4, #2
2400c0c0:	2600      	movs	r6, #0
2400c0c2:	42a6      	cmp	r6, r4
2400c0c4:	d105      	bne.n	2400c0d2 <__libc_init_array+0x2e>
2400c0c6:	bd70      	pop	{r4, r5, r6, pc}
2400c0c8:	f855 3b04 	ldr.w	r3, [r5], #4
2400c0cc:	4798      	blx	r3
2400c0ce:	3601      	adds	r6, #1
2400c0d0:	e7ee      	b.n	2400c0b0 <__libc_init_array+0xc>
2400c0d2:	f855 3b04 	ldr.w	r3, [r5], #4
2400c0d6:	4798      	blx	r3
2400c0d8:	3601      	adds	r6, #1
2400c0da:	e7f2      	b.n	2400c0c2 <__libc_init_array+0x1e>
2400c0dc:	240004a0 	.word	0x240004a0
2400c0e0:	240004a0 	.word	0x240004a0
2400c0e4:	240004a0 	.word	0x240004a0
2400c0e8:	240004a4 	.word	0x240004a4

2400c0ec <memset>:
2400c0ec:	4402      	add	r2, r0
2400c0ee:	4603      	mov	r3, r0
2400c0f0:	4293      	cmp	r3, r2
2400c0f2:	d100      	bne.n	2400c0f6 <memset+0xa>
2400c0f4:	4770      	bx	lr
2400c0f6:	f803 1b01 	strb.w	r1, [r3], #1
2400c0fa:	e7f9      	b.n	2400c0f0 <memset+0x4>

2400c0fc <__EH_FRAME_BEGIN__>:
2400c0fc:	0000 0000                                   ....

2400c100 <_init>:
2400c100:	b5f8      	push	{r3, r4, r5, r6, r7, lr}
2400c102:	bf00      	nop
2400c104:	bcf8      	pop	{r3, r4, r5, r6, r7}
2400c106:	bc08      	pop	{r3}
2400c108:	469e      	mov	lr, r3
2400c10a:	4770      	bx	lr

2400c10c <_fini>:
2400c10c:	b5f8      	push	{r3, r4, r5, r6, r7, lr}
2400c10e:	bf00      	nop
2400c110:	bcf8      	pop	{r3, r4, r5, r6, r7}
2400c112:	bc08      	pop	{r3}
2400c114:	469e      	mov	lr, r3
2400c116:	4770      	bx	lr
